
target/riscv64gc-unknown-none-elf/debug/rust-to-riscv-asm:	file format elf64-littleriscv

Disassembly of section .text:

0000000080200000 <_start>:
; _start():
80200000: 00007117     	auipc	sp, 0x7
80200004: 52210113     	addi	sp, sp, 0x522
80200008: 00a002b7     	lui	t0, 0xa00
8020000c: 9116         	add	sp, sp, t0
8020000e: 00004097     	auipc	ra, 0x4
80200012: ccc080e7     	jalr	-0x334(ra) <rust_main>

0000000080200016 <_$LT$spin..mutex..spin..SpinMutexGuard$LT$T$GT$$u20$as$u20$core..ops..deref..DerefMut$GT$::deref_mut::h0223c9bbaa9429db>:
; _$LT$spin..mutex..spin..SpinMutexGuard$LT$T$GT$$u20$as$u20$core..ops..deref..DerefMut$GT$::deref_mut::h0223c9bbaa9429db():
; /Users/lewis/.cargo/registry/src/rsproxy.cn-0dccff568467c15b/spin-0.9.8/src/mutex/spin.rs:341
80200016: 1141         	addi	sp, sp, -0x10
80200018: e42a         	sd	a0, 0x8(sp)
; /Users/lewis/.cargo/registry/src/rsproxy.cn-0dccff568467c15b/spin-0.9.8/src/mutex/spin.rs:343
8020001a: 6508         	ld	a0, 0x8(a0)
; /Users/lewis/.cargo/registry/src/rsproxy.cn-0dccff568467c15b/spin-0.9.8/src/mutex/spin.rs:344
8020001c: 0141         	addi	sp, sp, 0x10
8020001e: 8082         	ret

0000000080200020 <core::slice::raw::from_raw_parts::precondition_check::hf255f1839e0b0db8>:
; core::slice::raw::from_raw_parts::precondition_check::hf255f1839e0b0db8():
; /Users/lewis/.rustup/toolchains/stable-aarch64-apple-darwin/lib/rustlib/src/rust/library/core/src/ub_checks.rs:68
80200020: 7135         	addi	sp, sp, -0xa0
80200022: e436         	sd	a3, 0x8(sp)
80200024: e832         	sd	a2, 0x10(sp)
80200026: ec2e         	sd	a1, 0x18(sp)
80200028: f0aa         	sd	a0, 0x60(sp)
8020002a: f4ae         	sd	a1, 0x68(sp)
8020002c: f8b2         	sd	a2, 0x70(sp)
8020002e: fcb6         	sd	a3, 0x78(sp)

0000000080200030 <.Lpcrel_hi0>:
; .Lpcrel_hi0():
; /Users/lewis/.rustup/toolchains/stable-aarch64-apple-darwin/lib/rustlib/src/rust/library/core/src/fmt/mod.rs:337
80200030: 00006597     	auipc	a1, 0x6
80200034: 00058593     	mv	a1, a1
80200038: e12e         	sd	a1, 0x80(sp)
; /Users/lewis/.rustup/toolchains/stable-aarch64-apple-darwin/lib/rustlib/src/rust/library/core/src/slice/raw.rs:135
8020003a: e52a         	sd	a0, 0x88(sp)
; /Users/lewis/.rustup/toolchains/stable-aarch64-apple-darwin/lib/rustlib/src/rust/library/core/src/ptr/const_ptr.rs:54
8020003c: e92a         	sd	a0, 0x90(sp)
; /Users/lewis/.rustup/toolchains/stable-aarch64-apple-darwin/lib/rustlib/src/rust/library/core/src/ptr/const_ptr.rs:147
8020003e: 85aa         	mv	a1, a0
80200040: f02e         	sd	a1, 0x20(sp)
; /Users/lewis/.rustup/toolchains/stable-aarch64-apple-darwin/lib/rustlib/src/rust/library/core/src/ub_checks.rs:120
80200042: e119         	bnez	a0, 0x80200048 <.Lpcrel_hi0+0x18>
80200044: a009         	j	0x80200046 <.Lpcrel_hi0+0x16>
; /Users/lewis/.rustup/toolchains/stable-aarch64-apple-darwin/lib/rustlib/src/rust/library/core/src/slice/raw.rs:135
80200046: a0ad         	j	0x802000b0 <.Lpcrel_hi0+0x80>
80200048: 6542         	ld	a0, 0x10(sp)
; /Users/lewis/.rustup/toolchains/stable-aarch64-apple-darwin/lib/rustlib/src/rust/library/core/src/num/uint_macros.rs:85
8020004a: 00155593     	srli	a1, a0, 0x1
8020004e: 55555637     	lui	a2, 0x55555
80200052: 5556061b     	addiw	a2, a2, 0x555
80200056: 02061693     	slli	a3, a2, 0x20
8020005a: 9636         	add	a2, a2, a3
8020005c: 8df1         	and	a1, a1, a2
8020005e: 40b505b3     	sub	a1, a0, a1
80200062: 33333537     	lui	a0, 0x33333
80200066: 3335051b     	addiw	a0, a0, 0x333
8020006a: 02051613     	slli	a2, a0, 0x20
8020006e: 962a         	add	a2, a2, a0
80200070: 00c5f533     	and	a0, a1, a2
80200074: 8189         	srli	a1, a1, 0x2
80200076: 8df1         	and	a1, a1, a2
80200078: 952e         	add	a0, a0, a1
8020007a: 00455593     	srli	a1, a0, 0x4
8020007e: 952e         	add	a0, a0, a1
80200080: 0f0f15b7     	lui	a1, 0xf0f1
80200084: f0f5859b     	addiw	a1, a1, -0xf1
80200088: 02059613     	slli	a2, a1, 0x20
8020008c: 95b2         	add	a1, a1, a2
8020008e: 8d6d         	and	a0, a0, a1
80200090: 010105b7     	lui	a1, 0x1010
80200094: 1015859b     	addiw	a1, a1, 0x101
80200098: 02059613     	slli	a2, a1, 0x20
8020009c: 95b2         	add	a1, a1, a2
8020009e: 02b50533     	mul	a0, a0, a1
802000a2: 9161         	srli	a0, a0, 0x38
802000a4: cf2a         	sw	a0, 0x9c(sp)
802000a6: 457a         	lw	a0, 0x9c(sp)
802000a8: 4585         	li	a1, 0x1
; /Users/lewis/.rustup/toolchains/stable-aarch64-apple-darwin/lib/rustlib/src/rust/library/core/src/ptr/const_ptr.rs:1602
802000aa: 00b50463     	beq	a0, a1, 0x802000b2 <.Lpcrel_hi0+0x82>
802000ae: a801         	j	0x802000be <.Lpcrel_hi1>
802000b0: a889         	j	0x80200102 <.Lpcrel_hi4>
802000b2: 7502         	ld	a0, 0x20(sp)
802000b4: 65c2         	ld	a1, 0x10(sp)
; /Users/lewis/.rustup/toolchains/stable-aarch64-apple-darwin/lib/rustlib/src/rust/library/core/src/ptr/const_ptr.rs:1608
802000b6: 15fd         	addi	a1, a1, -0x1
802000b8: 8d6d         	and	a0, a0, a1
; /Users/lewis/.rustup/toolchains/stable-aarch64-apple-darwin/lib/rustlib/src/rust/library/core/src/slice/raw.rs:135
802000ba: cd15         	beqz	a0, 0x802000f6 <.Lpcrel_hi3+0x12>
802000bc: bfd5         	j	0x802000b0 <.Lpcrel_hi0+0x80>

00000000802000be <.Lpcrel_hi1>:
; .Lpcrel_hi1():
; /Users/lewis/.rustup/toolchains/stable-aarch64-apple-darwin/lib/rustlib/src/rust/library/core/src/fmt/mod.rs:339
802000be: 00006517     	auipc	a0, 0x6
802000c2: f7250513     	addi	a0, a0, -0x8e
802000c6: f42a         	sd	a0, 0x28(sp)
802000c8: 4505         	li	a0, 0x1
802000ca: f82a         	sd	a0, 0x30(sp)

00000000802000cc <.Lpcrel_hi2>:
; .Lpcrel_hi2():
; /Users/lewis/.rustup/toolchains/stable-aarch64-apple-darwin/lib/rustlib/src/rust/library/core/src/fmt/mod.rs:339
802000cc: 00006517     	auipc	a0, 0x6
802000d0: 0d450513     	addi	a0, a0, 0xd4
802000d4: 610c         	ld	a1, 0x0(a0)
802000d6: 6508         	ld	a0, 0x8(a0)
802000d8: e4ae         	sd	a1, 0x48(sp)
802000da: e8aa         	sd	a0, 0x50(sp)
802000dc: 4521         	li	a0, 0x8
802000de: fc2a         	sd	a0, 0x38(sp)
802000e0: 4501         	li	a0, 0x0
802000e2: e0aa         	sd	a0, 0x40(sp)

00000000802000e4 <.Lpcrel_hi3>:
; .Lpcrel_hi3():
; /Users/lewis/.rustup/toolchains/stable-aarch64-apple-darwin/lib/rustlib/src/rust/library/core/src/ptr/const_ptr.rs:1603
802000e4: 00006517     	auipc	a0, 0x6
802000e8: 15450593     	addi	a1, a0, 0x154
802000ec: 1028         	addi	a0, sp, 0x28
802000ee: 00004097     	auipc	ra, 0x4
802000f2: 208080e7     	jalr	0x208(ra) <core::panicking::panic_fmt::hd74e2a0fb7381b7e>
802000f6: 6562         	ld	a0, 0x18(sp)
; /Users/lewis/.rustup/toolchains/stable-aarch64-apple-darwin/lib/rustlib/src/rust/library/core/src/ub_checks.rs:125
802000f8: 00153593     	seqz	a1, a0
802000fc: e02e         	sd	a1, 0x0(sp)
802000fe: cd01         	beqz	a0, 0x80200116 <.Lpcrel_hi4+0x14>
80200100: a831         	j	0x8020011c <.Lpcrel_hi4+0x1a>

0000000080200102 <.Lpcrel_hi4>:
; .Lpcrel_hi4():
; /Users/lewis/.rustup/toolchains/stable-aarch64-apple-darwin/lib/rustlib/src/rust/library/core/src/ub_checks.rs:70
80200102: 00006517     	auipc	a0, 0x6
80200106: fc650513     	addi	a0, a0, -0x3a
8020010a: 0a200593     	li	a1, 0xa2
8020010e: 00004097     	auipc	ra, 0x4
80200112: 290080e7     	jalr	0x290(ra) <core::panicking::panic_nounwind::h92acbb232d24bc37>
80200116: 557d         	li	a0, -0x1
; /Users/lewis/.rustup/toolchains/stable-aarch64-apple-darwin/lib/rustlib/src/rust/library/core/src/ub_checks.rs:125
80200118: ecaa         	sd	a0, 0x58(sp)
8020011a: a029         	j	0x80200124 <.Lpcrel_hi4+0x22>
8020011c: 6502         	ld	a0, 0x0(sp)
; /Users/lewis/.rustup/toolchains/stable-aarch64-apple-darwin/lib/rustlib/src/rust/library/core/src/ub_checks.rs:125
8020011e: 8905         	andi	a0, a0, 0x1
80200120: ed11         	bnez	a0, 0x8020013c <.Lpcrel_hi5>
80200122: a031         	j	0x8020012e <.Lpcrel_hi4+0x2c>
80200124: 65a2         	ld	a1, 0x8(sp)
; /Users/lewis/.rustup/toolchains/stable-aarch64-apple-darwin/lib/rustlib/src/rust/library/core/src/ub_checks.rs:126
80200126: 6566         	ld	a0, 0x58(sp)
; /Users/lewis/.rustup/toolchains/stable-aarch64-apple-darwin/lib/rustlib/src/rust/library/core/src/slice/raw.rs:136
80200128: 02b57363     	bgeu	a0, a1, 0x8020014e <.Lpcrel_hi5+0x12>
8020012c: a005         	j	0x8020014c <.Lpcrel_hi5+0x10>
8020012e: 65e2         	ld	a1, 0x18(sp)
80200130: 557d         	li	a0, -0x1
80200132: 8105         	srli	a0, a0, 0x1
; /Users/lewis/.rustup/toolchains/stable-aarch64-apple-darwin/lib/rustlib/src/rust/library/core/src/ub_checks.rs:125
80200134: 02b55533     	divu	a0, a0, a1
80200138: ecaa         	sd	a0, 0x58(sp)
8020013a: b7ed         	j	0x80200124 <.Lpcrel_hi4+0x22>

000000008020013c <.Lpcrel_hi5>:
; .Lpcrel_hi5():
; /Users/lewis/.rustup/toolchains/stable-aarch64-apple-darwin/lib/rustlib/src/rust/library/core/src/ub_checks.rs:125
8020013c: 00006517     	auipc	a0, 0x6
80200140: f7450513     	addi	a0, a0, -0x8c
80200144: 00005097     	auipc	ra, 0x5
80200148: dc6080e7     	jalr	-0x23a(ra) <core::panicking::panic_const::panic_const_div_by_zero::h54d21b33a46fc536>
8020014c: bf5d         	j	0x80200102 <.Lpcrel_hi4>
; /Users/lewis/.rustup/toolchains/stable-aarch64-apple-darwin/lib/rustlib/src/rust/library/core/src/ub_checks.rs:74
8020014e: 610d         	addi	sp, sp, 0xa0
80200150: 8082         	ret

0000000080200152 <core::slice::raw::from_raw_parts_mut::precondition_check::h9cad483dd6fa9676>:
; core::slice::raw::from_raw_parts_mut::precondition_check::h9cad483dd6fa9676():
; /Users/lewis/.rustup/toolchains/stable-aarch64-apple-darwin/lib/rustlib/src/rust/library/core/src/ub_checks.rs:68
80200152: 7135         	addi	sp, sp, -0xa0
80200154: e436         	sd	a3, 0x8(sp)
80200156: e832         	sd	a2, 0x10(sp)
80200158: ec2e         	sd	a1, 0x18(sp)
8020015a: f0aa         	sd	a0, 0x60(sp)
8020015c: f4ae         	sd	a1, 0x68(sp)
8020015e: f8b2         	sd	a2, 0x70(sp)
80200160: fcb6         	sd	a3, 0x78(sp)

0000000080200162 <.Lpcrel_hi6>:
; .Lpcrel_hi6():
; /Users/lewis/.rustup/toolchains/stable-aarch64-apple-darwin/lib/rustlib/src/rust/library/core/src/fmt/mod.rs:337
80200162: 00006597     	auipc	a1, 0x6
80200166: ece58593     	addi	a1, a1, -0x132
8020016a: e12e         	sd	a1, 0x80(sp)
; /Users/lewis/.rustup/toolchains/stable-aarch64-apple-darwin/lib/rustlib/src/rust/library/core/src/slice/raw.rs:190
8020016c: e52a         	sd	a0, 0x88(sp)
; /Users/lewis/.rustup/toolchains/stable-aarch64-apple-darwin/lib/rustlib/src/rust/library/core/src/ptr/const_ptr.rs:54
8020016e: e92a         	sd	a0, 0x90(sp)
; /Users/lewis/.rustup/toolchains/stable-aarch64-apple-darwin/lib/rustlib/src/rust/library/core/src/ptr/const_ptr.rs:147
80200170: 85aa         	mv	a1, a0
80200172: f02e         	sd	a1, 0x20(sp)
; /Users/lewis/.rustup/toolchains/stable-aarch64-apple-darwin/lib/rustlib/src/rust/library/core/src/ub_checks.rs:120
80200174: e119         	bnez	a0, 0x8020017a <.Lpcrel_hi6+0x18>
80200176: a009         	j	0x80200178 <.Lpcrel_hi6+0x16>
; /Users/lewis/.rustup/toolchains/stable-aarch64-apple-darwin/lib/rustlib/src/rust/library/core/src/slice/raw.rs:190
80200178: a0ad         	j	0x802001e2 <.Lpcrel_hi6+0x80>
8020017a: 6542         	ld	a0, 0x10(sp)
; /Users/lewis/.rustup/toolchains/stable-aarch64-apple-darwin/lib/rustlib/src/rust/library/core/src/num/uint_macros.rs:85
8020017c: 00155593     	srli	a1, a0, 0x1
80200180: 55555637     	lui	a2, 0x55555
80200184: 5556061b     	addiw	a2, a2, 0x555
80200188: 02061693     	slli	a3, a2, 0x20
8020018c: 9636         	add	a2, a2, a3
8020018e: 8df1         	and	a1, a1, a2
80200190: 40b505b3     	sub	a1, a0, a1
80200194: 33333537     	lui	a0, 0x33333
80200198: 3335051b     	addiw	a0, a0, 0x333
8020019c: 02051613     	slli	a2, a0, 0x20
802001a0: 962a         	add	a2, a2, a0
802001a2: 00c5f533     	and	a0, a1, a2
802001a6: 8189         	srli	a1, a1, 0x2
802001a8: 8df1         	and	a1, a1, a2
802001aa: 952e         	add	a0, a0, a1
802001ac: 00455593     	srli	a1, a0, 0x4
802001b0: 952e         	add	a0, a0, a1
802001b2: 0f0f15b7     	lui	a1, 0xf0f1
802001b6: f0f5859b     	addiw	a1, a1, -0xf1
802001ba: 02059613     	slli	a2, a1, 0x20
802001be: 95b2         	add	a1, a1, a2
802001c0: 8d6d         	and	a0, a0, a1
802001c2: 010105b7     	lui	a1, 0x1010
802001c6: 1015859b     	addiw	a1, a1, 0x101
802001ca: 02059613     	slli	a2, a1, 0x20
802001ce: 95b2         	add	a1, a1, a2
802001d0: 02b50533     	mul	a0, a0, a1
802001d4: 9161         	srli	a0, a0, 0x38
802001d6: cf2a         	sw	a0, 0x9c(sp)
802001d8: 457a         	lw	a0, 0x9c(sp)
802001da: 4585         	li	a1, 0x1
; /Users/lewis/.rustup/toolchains/stable-aarch64-apple-darwin/lib/rustlib/src/rust/library/core/src/ptr/const_ptr.rs:1602
802001dc: 00b50463     	beq	a0, a1, 0x802001e4 <.Lpcrel_hi6+0x82>
802001e0: a801         	j	0x802001f0 <.Lpcrel_hi7>
802001e2: a889         	j	0x80200234 <.Lpcrel_hi10>
802001e4: 7502         	ld	a0, 0x20(sp)
802001e6: 65c2         	ld	a1, 0x10(sp)
; /Users/lewis/.rustup/toolchains/stable-aarch64-apple-darwin/lib/rustlib/src/rust/library/core/src/ptr/const_ptr.rs:1608
802001e8: 15fd         	addi	a1, a1, -0x1
802001ea: 8d6d         	and	a0, a0, a1
; /Users/lewis/.rustup/toolchains/stable-aarch64-apple-darwin/lib/rustlib/src/rust/library/core/src/slice/raw.rs:190
802001ec: cd15         	beqz	a0, 0x80200228 <.Lpcrel_hi9+0x12>
802001ee: bfd5         	j	0x802001e2 <.Lpcrel_hi6+0x80>

00000000802001f0 <.Lpcrel_hi7>:
; .Lpcrel_hi7():
; /Users/lewis/.rustup/toolchains/stable-aarch64-apple-darwin/lib/rustlib/src/rust/library/core/src/fmt/mod.rs:339
802001f0: 00006517     	auipc	a0, 0x6
802001f4: e4050513     	addi	a0, a0, -0x1c0
802001f8: f42a         	sd	a0, 0x28(sp)
802001fa: 4505         	li	a0, 0x1
802001fc: f82a         	sd	a0, 0x30(sp)

00000000802001fe <.Lpcrel_hi8>:
; .Lpcrel_hi8():
; /Users/lewis/.rustup/toolchains/stable-aarch64-apple-darwin/lib/rustlib/src/rust/library/core/src/fmt/mod.rs:339
802001fe: 00006517     	auipc	a0, 0x6
80200202: fa250513     	addi	a0, a0, -0x5e
80200206: 610c         	ld	a1, 0x0(a0)
80200208: 6508         	ld	a0, 0x8(a0)
8020020a: e4ae         	sd	a1, 0x48(sp)
8020020c: e8aa         	sd	a0, 0x50(sp)
8020020e: 4521         	li	a0, 0x8
80200210: fc2a         	sd	a0, 0x38(sp)
80200212: 4501         	li	a0, 0x0
80200214: e0aa         	sd	a0, 0x40(sp)

0000000080200216 <.Lpcrel_hi9>:
; .Lpcrel_hi9():
; /Users/lewis/.rustup/toolchains/stable-aarch64-apple-darwin/lib/rustlib/src/rust/library/core/src/ptr/const_ptr.rs:1603
80200216: 00006517     	auipc	a0, 0x6
8020021a: 02250593     	addi	a1, a0, 0x22
8020021e: 1028         	addi	a0, sp, 0x28
80200220: 00004097     	auipc	ra, 0x4
80200224: 0d6080e7     	jalr	0xd6(ra) <core::panicking::panic_fmt::hd74e2a0fb7381b7e>
80200228: 6562         	ld	a0, 0x18(sp)
; /Users/lewis/.rustup/toolchains/stable-aarch64-apple-darwin/lib/rustlib/src/rust/library/core/src/ub_checks.rs:125
8020022a: 00153593     	seqz	a1, a0
8020022e: e02e         	sd	a1, 0x0(sp)
80200230: cd01         	beqz	a0, 0x80200248 <.Lpcrel_hi10+0x14>
80200232: a831         	j	0x8020024e <.Lpcrel_hi10+0x1a>

0000000080200234 <.Lpcrel_hi10>:
; .Lpcrel_hi10():
; /Users/lewis/.rustup/toolchains/stable-aarch64-apple-darwin/lib/rustlib/src/rust/library/core/src/ub_checks.rs:70
80200234: 00006517     	auipc	a0, 0x6
80200238: 01c50513     	addi	a0, a0, 0x1c
8020023c: 0a600593     	li	a1, 0xa6
80200240: 00004097     	auipc	ra, 0x4
80200244: 15e080e7     	jalr	0x15e(ra) <core::panicking::panic_nounwind::h92acbb232d24bc37>
80200248: 557d         	li	a0, -0x1
; /Users/lewis/.rustup/toolchains/stable-aarch64-apple-darwin/lib/rustlib/src/rust/library/core/src/ub_checks.rs:125
8020024a: ecaa         	sd	a0, 0x58(sp)
8020024c: a029         	j	0x80200256 <.Lpcrel_hi10+0x22>
8020024e: 6502         	ld	a0, 0x0(sp)
; /Users/lewis/.rustup/toolchains/stable-aarch64-apple-darwin/lib/rustlib/src/rust/library/core/src/ub_checks.rs:125
80200250: 8905         	andi	a0, a0, 0x1
80200252: ed11         	bnez	a0, 0x8020026e <.Lpcrel_hi11>
80200254: a031         	j	0x80200260 <.Lpcrel_hi10+0x2c>
80200256: 65a2         	ld	a1, 0x8(sp)
; /Users/lewis/.rustup/toolchains/stable-aarch64-apple-darwin/lib/rustlib/src/rust/library/core/src/ub_checks.rs:126
80200258: 6566         	ld	a0, 0x58(sp)
; /Users/lewis/.rustup/toolchains/stable-aarch64-apple-darwin/lib/rustlib/src/rust/library/core/src/slice/raw.rs:191
8020025a: 02b57363     	bgeu	a0, a1, 0x80200280 <.Lpcrel_hi11+0x12>
8020025e: a005         	j	0x8020027e <.Lpcrel_hi11+0x10>
80200260: 65e2         	ld	a1, 0x18(sp)
80200262: 557d         	li	a0, -0x1
80200264: 8105         	srli	a0, a0, 0x1
; /Users/lewis/.rustup/toolchains/stable-aarch64-apple-darwin/lib/rustlib/src/rust/library/core/src/ub_checks.rs:125
80200266: 02b55533     	divu	a0, a0, a1
8020026a: ecaa         	sd	a0, 0x58(sp)
8020026c: b7ed         	j	0x80200256 <.Lpcrel_hi10+0x22>

000000008020026e <.Lpcrel_hi11>:
; .Lpcrel_hi11():
; /Users/lewis/.rustup/toolchains/stable-aarch64-apple-darwin/lib/rustlib/src/rust/library/core/src/ub_checks.rs:125
8020026e: 00006517     	auipc	a0, 0x6
80200272: e4250513     	addi	a0, a0, -0x1be
80200276: 00005097     	auipc	ra, 0x5
8020027a: c94080e7     	jalr	-0x36c(ra) <core::panicking::panic_const::panic_const_div_by_zero::h54d21b33a46fc536>
8020027e: bf5d         	j	0x80200234 <.Lpcrel_hi10>
; /Users/lewis/.rustup/toolchains/stable-aarch64-apple-darwin/lib/rustlib/src/rust/library/core/src/ub_checks.rs:74
80200280: 610d         	addi	sp, sp, 0xa0
80200282: 8082         	ret

0000000080200284 <core::panic::location::Location::file::h08f598e10ade15f3>:
; core::panic::location::Location::file::h08f598e10ade15f3():
; /Users/lewis/.rustup/toolchains/stable-aarch64-apple-darwin/lib/rustlib/src/rust/library/core/src/panic/location.rs:129
80200284: 1141         	addi	sp, sp, -0x10
80200286: 85aa         	mv	a1, a0
80200288: e42e         	sd	a1, 0x8(sp)
; /Users/lewis/.rustup/toolchains/stable-aarch64-apple-darwin/lib/rustlib/src/rust/library/core/src/panic/location.rs:130
8020028a: 6188         	ld	a0, 0x0(a1)
8020028c: 658c         	ld	a1, 0x8(a1)
; /Users/lewis/.rustup/toolchains/stable-aarch64-apple-darwin/lib/rustlib/src/rust/library/core/src/panic/location.rs:131
8020028e: 0141         	addi	sp, sp, 0x10
80200290: 8082         	ret

0000000080200292 <core::panic::location::Location::line::ha5850aad9d2160c8>:
; core::panic::location::Location::line::ha5850aad9d2160c8():
; /Users/lewis/.rustup/toolchains/stable-aarch64-apple-darwin/lib/rustlib/src/rust/library/core/src/panic/location.rs:154
80200292: 1141         	addi	sp, sp, -0x10
80200294: e42a         	sd	a0, 0x8(sp)
; /Users/lewis/.rustup/toolchains/stable-aarch64-apple-darwin/lib/rustlib/src/rust/library/core/src/panic/location.rs:156
80200296: 4908         	lw	a0, 0x10(a0)
80200298: 0141         	addi	sp, sp, 0x10
8020029a: 8082         	ret

000000008020029c <_$LT$rust_to_riscv_asm..console..Stdout$u20$as$u20$core..fmt..Write$GT$::write_str::h5ad7fa42d9fd745f>:
; _$LT$rust_to_riscv_asm..console..Stdout$u20$as$u20$core..fmt..Write$GT$::write_str::h5ad7fa42d9fd745f():
; /Users/lewis/Github/rust-to-riscv-asm/src/console.rs:6
8020029c: 7119         	addi	sp, sp, -0x80
8020029e: fc86         	sd	ra, 0x78(sp)
802002a0: e432         	sd	a2, 0x8(sp)
802002a2: 862e         	mv	a2, a1
802002a4: 65a2         	ld	a1, 0x8(sp)
802002a6: e032         	sd	a2, 0x0(sp)
802002a8: 862a         	mv	a2, a0
802002aa: 6502         	ld	a0, 0x0(sp)
802002ac: e0b2         	sd	a2, 0x40(sp)
802002ae: e4aa         	sd	a0, 0x48(sp)
802002b0: e8ae         	sd	a1, 0x50(sp)
; /Users/lewis/Github/rust-to-riscv-asm/src/console.rs:7
802002b2: 00002097     	auipc	ra, 0x2
802002b6: 96e080e7     	jalr	-0x692(ra) <core::str::_$LT$impl$u20$str$GT$::len::h5b82fa9fe3124e7c>
802002ba: 6602         	ld	a2, 0x0(sp)
802002bc: 85aa         	mv	a1, a0
802002be: 6522         	ld	a0, 0x8(sp)
802002c0: f4b2         	sd	a2, 0x68(sp)
802002c2: f8aa         	sd	a0, 0x70(sp)
802002c4: 1028         	addi	a0, sp, 0x28
802002c6: e82a         	sd	a0, 0x10(sp)
802002c8: 4681         	li	a3, 0x0
802002ca: ec36         	sd	a3, 0x18(sp)
802002cc: 00000097     	auipc	ra, 0x0
802002d0: 62e080e7     	jalr	0x62e(ra) <sbi_spec::binary::Physical$LT$P$GT$::new::hdb4740218d4a5d2f>
802002d4: 6542         	ld	a0, 0x10(sp)
802002d6: 00001097     	auipc	ra, 0x1
802002da: ebc080e7     	jalr	-0x144(ra) <sbi_rt::dbcn::console_write::h5f5c7795607bc46b>
802002de: 862a         	mv	a2, a0
802002e0: 6562         	ld	a0, 0x18(sp)
802002e2: ecb2         	sd	a2, 0x58(sp)
802002e4: f0ae         	sd	a1, 0x60(sp)
; /Users/lewis/Github/rust-to-riscv-asm/src/console.rs:8
802002e6: 02a103a3     	sb	a0, 0x27(sp)
; /Users/lewis/Github/rust-to-riscv-asm/src/console.rs:9
802002ea: 02714503     	lbu	a0, 0x27(sp)
802002ee: 8905         	andi	a0, a0, 0x1
802002f0: 70e6         	ld	ra, 0x78(sp)
802002f2: 6109         	addi	sp, sp, 0x80
802002f4: 8082         	ret

00000000802002f6 <rust_to_riscv_asm::console::print::h400bbaddcd70c1de>:
; rust_to_riscv_asm::console::print::h400bbaddcd70c1de():
; /Users/lewis/Github/rust-to-riscv-asm/src/console.rs:12
802002f6: 715d         	addi	sp, sp, -0x50
802002f8: e486         	sd	ra, 0x48(sp)
; /Users/lewis/Github/rust-to-riscv-asm/src/console.rs:13
802002fa: 750c         	ld	a1, 0x28(a0)
802002fc: fc2e         	sd	a1, 0x38(sp)
802002fe: 710c         	ld	a1, 0x20(a0)
80200300: f82e         	sd	a1, 0x30(sp)
80200302: 6d0c         	ld	a1, 0x18(a0)
80200304: f42e         	sd	a1, 0x28(sp)
80200306: 690c         	ld	a1, 0x10(a0)
80200308: f02e         	sd	a1, 0x20(sp)
8020030a: 650c         	ld	a1, 0x8(a0)
8020030c: ec2e         	sd	a1, 0x18(sp)
8020030e: 6108         	ld	a0, 0x0(a0)
80200310: e82a         	sd	a0, 0x10(sp)
80200312: 00f10513     	addi	a0, sp, 0xf
80200316: 080c         	addi	a1, sp, 0x10
80200318: 00003097     	auipc	ra, 0x3
8020031c: 2c2080e7     	jalr	0x2c2(ra) <core::fmt::Write::write_fmt::h7e2e3aec3f72d504>
80200320: 04a10323     	sb	a0, 0x46(sp)
; /Users/lewis/.rustup/toolchains/stable-aarch64-apple-darwin/lib/rustlib/src/rust/library/core/src/result.rs:1102
80200324: 04614503     	lbu	a0, 0x46(sp)
80200328: 8905         	andi	a0, a0, 0x1
8020032a: c515         	beqz	a0, 0x80200356 <.Lpcrel_hi2+0x18>
8020032c: a009         	j	0x8020032e <.Lpcrel_hi0>

000000008020032e <.Lpcrel_hi0>:
; .Lpcrel_hi0():
; /Users/lewis/.rustup/toolchains/stable-aarch64-apple-darwin/lib/rustlib/src/rust/library/core/src/result.rs:1104
8020032e: 00006517     	auipc	a0, 0x6
80200332: fea50513     	addi	a0, a0, -0x16

0000000080200336 <.Lpcrel_hi1>:
; .Lpcrel_hi1():
; /Users/lewis/.rustup/toolchains/stable-aarch64-apple-darwin/lib/rustlib/src/rust/library/core/src/result.rs:1104
80200336: 00006597     	auipc	a1, 0x6
8020033a: fc258693     	addi	a3, a1, -0x3e

000000008020033e <.Lpcrel_hi2>:
; .Lpcrel_hi2():
; /Users/lewis/.rustup/toolchains/stable-aarch64-apple-darwin/lib/rustlib/src/rust/library/core/src/result.rs:1104
8020033e: 00006597     	auipc	a1, 0x6
80200342: 01a58713     	addi	a4, a1, 0x1a
80200346: 02b00593     	li	a1, 0x2b
8020034a: 04710613     	addi	a2, sp, 0x47
8020034e: 00004097     	auipc	ra, 0x4
80200352: 1ec080e7     	jalr	0x1ec(ra) <core::result::unwrap_failed::hf18ad24dd5556ab7>
80200356: 60a6         	ld	ra, 0x48(sp)
; /Users/lewis/Github/rust-to-riscv-asm/src/console.rs:14
80200358: 6161         	addi	sp, sp, 0x50
8020035a: 8082         	ret

000000008020035c <core::cmp::impls::_$LT$impl$u20$core..cmp..Ord$u20$for$u20$usize$GT$::cmp::h663b80f781ef9171>:
; core::cmp::impls::_$LT$impl$u20$core..cmp..Ord$u20$for$u20$usize$GT$::cmp::h663b80f781ef9171():
; /Users/lewis/.rustup/toolchains/stable-aarch64-apple-darwin/lib/rustlib/src/rust/library/core/src/cmp.rs:1732
8020035c: 1101         	addi	sp, sp, -0x20
8020035e: e42e         	sd	a1, 0x8(sp)
80200360: 85aa         	mv	a1, a0
80200362: 6522         	ld	a0, 0x8(sp)
80200364: e82e         	sd	a1, 0x10(sp)
80200366: ec2a         	sd	a0, 0x18(sp)
; /Users/lewis/.rustup/toolchains/stable-aarch64-apple-darwin/lib/rustlib/src/rust/library/core/src/cmp.rs:1733
80200368: 618c         	ld	a1, 0x0(a1)
8020036a: 6110         	ld	a2, 0x0(a0)
8020036c: 00b63533     	sltu	a0, a2, a1
80200370: 00c5b5b3     	sltu	a1, a1, a2
80200374: 8d0d         	sub	a0, a0, a1
; /Users/lewis/.rustup/toolchains/stable-aarch64-apple-darwin/lib/rustlib/src/rust/library/core/src/cmp.rs:1734
80200376: 6105         	addi	sp, sp, 0x20
80200378: 8082         	ret

000000008020037a <core::ptr::write_volatile::h5caa313ac914b712>:
; core::ptr::write_volatile::h5caa313ac914b712():
; /Users/lewis/.rustup/toolchains/stable-aarch64-apple-darwin/lib/rustlib/src/rust/library/core/src/ptr/mod.rs:1881
8020037a: 7179         	addi	sp, sp, -0x30
8020037c: f406         	sd	ra, 0x28(sp)
8020037e: e42a         	sd	a0, 0x8(sp)
80200380: 862e         	mv	a2, a1
80200382: e832         	sd	a2, 0x10(sp)
80200384: ec2a         	sd	a0, 0x18(sp)
80200386: 02b103a3     	sb	a1, 0x27(sp)
; /Users/lewis/.rustup/toolchains/stable-aarch64-apple-darwin/lib/rustlib/src/rust/library/core/src/ub_checks.rs:76
8020038a: a009         	j	0x8020038c <core::ptr::write_volatile::h5caa313ac914b712+0x12>
8020038c: 6522         	ld	a0, 0x8(sp)
8020038e: 4585         	li	a1, 0x1
; /Users/lewis/.rustup/toolchains/stable-aarch64-apple-darwin/lib/rustlib/src/rust/library/core/src/ub_checks.rs:77
80200390: 00002097     	auipc	ra, 0x2
80200394: a46080e7     	jalr	-0x5ba(ra) <core::ptr::write_volatile::precondition_check::h3d23e9a5ee098f9b>
; /Users/lewis/.rustup/toolchains/stable-aarch64-apple-darwin/lib/rustlib/src/rust/library/core/src/ub_checks.rs:76
80200398: a009         	j	0x8020039a <core::ptr::write_volatile::h5caa313ac914b712+0x20>
8020039a: 6542         	ld	a0, 0x10(sp)
8020039c: 65a2         	ld	a1, 0x8(sp)
; /Users/lewis/.rustup/toolchains/stable-aarch64-apple-darwin/lib/rustlib/src/rust/library/core/src/ptr/mod.rs:1892
8020039e: 00a58023     	sb	a0, 0x0(a1)
802003a2: 70a2         	ld	ra, 0x28(sp)
; /Users/lewis/.rustup/toolchains/stable-aarch64-apple-darwin/lib/rustlib/src/rust/library/core/src/ptr/mod.rs:1894
802003a4: 6145         	addi	sp, sp, 0x30
802003a6: 8082         	ret

00000000802003a8 <core::ptr::non_null::NonNull$LT$T$GT$::new_unchecked::precondition_check::he5ce373b39dd0c33>:
; core::ptr::non_null::NonNull$LT$T$GT$::new_unchecked::precondition_check::he5ce373b39dd0c33():
; /Users/lewis/.rustup/toolchains/stable-aarch64-apple-darwin/lib/rustlib/src/rust/library/core/src/ub_checks.rs:68
802003a8: 1101         	addi	sp, sp, -0x20
802003aa: e42a         	sd	a0, 0x8(sp)
; /Users/lewis/.rustup/toolchains/stable-aarch64-apple-darwin/lib/rustlib/src/rust/library/core/src/ptr/mut_ptr.rs:102
802003ac: e82a         	sd	a0, 0x10(sp)
; /Users/lewis/.rustup/toolchains/stable-aarch64-apple-darwin/lib/rustlib/src/rust/library/core/src/ptr/const_ptr.rs:54
802003ae: ec2a         	sd	a0, 0x18(sp)
; /Users/lewis/.rustup/toolchains/stable-aarch64-apple-darwin/lib/rustlib/src/rust/library/core/src/ptr/non_null.rs:201
802003b0: ed01         	bnez	a0, 0x802003c8 <.Lpcrel_hi0+0x14>
802003b2: a009         	j	0x802003b4 <.Lpcrel_hi0>

00000000802003b4 <.Lpcrel_hi0>:
; .Lpcrel_hi0():
; /Users/lewis/.rustup/toolchains/stable-aarch64-apple-darwin/lib/rustlib/src/rust/library/core/src/ub_checks.rs:70
802003b4: 00006517     	auipc	a0, 0x6
802003b8: fbc50513     	addi	a0, a0, -0x44
802003bc: 05d00593     	li	a1, 0x5d
802003c0: 00004097     	auipc	ra, 0x4
802003c4: fde080e7     	jalr	-0x22(ra) <core::panicking::panic_nounwind::h92acbb232d24bc37>
; /Users/lewis/.rustup/toolchains/stable-aarch64-apple-darwin/lib/rustlib/src/rust/library/core/src/ub_checks.rs:74
802003c8: 6105         	addi	sp, sp, 0x20
802003ca: 8082         	ret

00000000802003cc <rust_to_riscv_asm::heap::init_heap::h2959418298247a77>:
; rust_to_riscv_asm::heap::init_heap::h2959418298247a77():
; /Users/lewis/Github/rust-to-riscv-asm/src/heap.rs:9
802003cc: d0010113     	addi	sp, sp, -0x300
802003d0: 2e113c23     	sd	ra, 0x2f8(sp)
802003d4: 00100537     	lui	a0, 0x100
802003d8: fc2a         	sd	a0, 0x38(sp)
802003da: 4501         	li	a0, 0x0
; /Users/lewis/Github/rust-to-riscv-asm/src/heap.rs:15
802003dc: e911         	bnez	a0, 0x802003f0 <.Lpcrel_hi0>
802003de: a009         	j	0x802003e0 <rust_to_riscv_asm::heap::init_heap::h2959418298247a77+0x14>
802003e0: 75e2         	ld	a1, 0x38(sp)
; /Users/lewis/Github/rust-to-riscv-asm/src/heap.rs:15
802003e2: 00a59513     	slli	a0, a1, 0xa
802003e6: f82a         	sd	a0, 0x30(sp)
802003e8: 8129         	srli	a0, a0, 0xa
802003ea: 10b51763     	bne	a0, a1, 0x802004f8 <.Lpcrel_hi4>
802003ee: a809         	j	0x80200400 <.Lpcrel_hi0+0x10>

00000000802003f0 <.Lpcrel_hi0>:
; .Lpcrel_hi0():
; /Users/lewis/Github/rust-to-riscv-asm/src/heap.rs:15
802003f0: 00006517     	auipc	a0, 0x6
802003f4: fe850513     	addi	a0, a0, -0x18
802003f8: 00005097     	auipc	ra, 0x5
802003fc: aa6080e7     	jalr	-0x55a(ra) <core::panicking::panic_const::panic_const_mul_overflow::h9bca4aab8cdc06a4>
80200400: 7542         	ld	a0, 0x30(sp)
; /Users/lewis/Github/rust-to-riscv-asm/src/heap.rs:15
80200402: 20a13023     	sd	a0, 0x200(sp)

0000000080200406 <.Lpcrel_hi1>:
; .Lpcrel_hi1():
; /Users/lewis/Github/rust-to-riscv-asm/src/heap.rs:16
80200406: 00a08517     	auipc	a0, 0xa08
8020040a: bfa50513     	addi	a0, a0, -0x406
8020040e: 00002097     	auipc	ra, 0x2
80200412: 75c080e7     	jalr	0x75c(ra) <_$LT$buddy_system_allocator..LockedHeap$LT$_$GT$$u20$as$u20$core..ops..deref..Deref$GT$::deref::haafb622773e345ef>
80200416: 85aa         	mv	a1, a0
80200418: f42e         	sd	a1, 0x28(sp)
8020041a: 2ca13423     	sd	a0, 0x2c8(sp)
8020041e: 2ca13c23     	sd	a0, 0x2d8(sp)
; /Users/lewis/.cargo/registry/src/rsproxy.cn-0dccff568467c15b/spin-0.9.8/src/mutex/spin.rs:180
80200422: a011         	j	0x80200426 <.Lpcrel_hi1+0x20>
80200424: a009         	j	0x80200426 <.Lpcrel_hi1+0x20>
80200426: 7522         	ld	a0, 0x28(sp)
80200428: 4589         	li	a1, 0x2
; /Users/lewis/.cargo/registry/src/rsproxy.cn-0dccff568467c15b/spin-0.9.8/src/mutex/spin.rs:182
8020042a: 2cb10b23     	sb	a1, 0x2d6(sp)
8020042e: 4581         	li	a1, 0x0
80200430: 2cb10ba3     	sb	a1, 0x2d7(sp)
; /Users/lewis/.cargo/registry/src/rsproxy.cn-0dccff568467c15b/spin-0.9.8/src/mutex/spin.rs:180
80200434: 2d714703     	lbu	a4, 0x2d7(sp)
80200438: 2d614683     	lbu	a3, 0x2d6(sp)
8020043c: 4605         	li	a2, 0x1
8020043e: 00001097     	auipc	ra, 0x1
80200442: 5a4080e7     	jalr	0x5a4(ra) <core::sync::atomic::AtomicBool::compare_exchange_weak::h1804b97bf0448963>
80200446: 8905         	andi	a0, a0, 0x1
80200448: 2ca10a23     	sb	a0, 0x2d4(sp)
8020044c: 2cb10aa3     	sb	a1, 0x2d5(sp)
80200450: 0dc8         	addi	a0, sp, 0x2d4
80200452: 00004097     	auipc	ra, 0x4
80200456: 85c080e7     	jalr	-0x7a4(ra) <core::result::Result$LT$T$C$E$GT$::is_err::h7ecd1e2d27598032>
8020045a: c515         	beqz	a0, 0x80200486 <.Lpcrel_hi1+0x80>
8020045c: a009         	j	0x8020045e <.Lpcrel_hi1+0x58>
; /Users/lewis/.cargo/registry/src/rsproxy.cn-0dccff568467c15b/spin-0.9.8/src/mutex/spin.rs:186
8020045e: a009         	j	0x80200460 <.Lpcrel_hi1+0x5a>
80200460: 7522         	ld	a0, 0x28(sp)
80200462: 2ea13823     	sd	a0, 0x2f0(sp)
80200466: 4581         	li	a1, 0x0
; /Users/lewis/.cargo/registry/src/rsproxy.cn-0dccff568467c15b/spin-0.9.8/src/mutex/spin.rs:207
80200468: 2eb107a3     	sb	a1, 0x2ef(sp)
8020046c: 2ef14583     	lbu	a1, 0x2ef(sp)
80200470: 00001097     	auipc	ra, 0x1
80200474: 596080e7     	jalr	0x596(ra) <core::sync::atomic::AtomicBool::load::hfd836ec387f875cf>
; /Users/lewis/.cargo/registry/src/rsproxy.cn-0dccff568467c15b/spin-0.9.8/src/mutex/spin.rs:186
80200478: d555         	beqz	a0, 0x80200424 <.Lpcrel_hi1+0x1e>
8020047a: a009         	j	0x8020047c <.Lpcrel_hi1+0x76>
; /Users/lewis/.cargo/registry/src/rsproxy.cn-0dccff568467c15b/spin-0.9.8/src/relax.rs:29
8020047c: 00001097     	auipc	ra, 0x1
80200480: 79e080e7     	jalr	0x79e(ra) <core::sync::atomic::spin_loop_hint::h6faf56d8b48c19bc>
; /Users/lewis/.cargo/registry/src/rsproxy.cn-0dccff568467c15b/spin-0.9.8/src/mutex/spin.rs:187
80200484: bff1         	j	0x80200460 <.Lpcrel_hi1+0x5a>
80200486: 75a2         	ld	a1, 0x28(sp)
; /Users/lewis/.cargo/registry/src/rsproxy.cn-0dccff568467c15b/spin-0.9.8/src/mutex/spin.rs:193
80200488: 00858513     	addi	a0, a1, 0x8
8020048c: 2ea13023     	sd	a0, 0x2e0(sp)
; /Users/lewis/Github/rust-to-riscv-asm/src/heap.rs:16
80200490: e0ae         	sd	a1, 0x40(sp)
80200492: e4aa         	sd	a0, 0x48(sp)
80200494: 0088         	addi	a0, sp, 0x40
80200496: e82a         	sd	a0, 0x10(sp)
80200498: 00002097     	auipc	ra, 0x2
8020049c: ca2080e7     	jalr	-0x35e(ra) <_$LT$spin..mutex..MutexGuard$LT$T$GT$$u20$as$u20$core..ops..deref..DerefMut$GT$::deref_mut::h645f58df60fdf12d>
802004a0: 7642         	ld	a2, 0x30(sp)

00000000802004a2 <.Lpcrel_hi2>:
; .Lpcrel_hi2():
; /Users/lewis/Github/rust-to-riscv-asm/src/heap.rs:16
802004a2: 00a09597     	auipc	a1, 0xa09
802004a6: b5e58593     	addi	a1, a1, -0x4a2
802004aa: ec2e         	sd	a1, 0x18(sp)
802004ac: 00002097     	auipc	ra, 0x2
802004b0: f10080e7     	jalr	-0xf0(ra) <buddy_system_allocator::Heap$LT$_$GT$::init::h759e2e4a29f935f5>
802004b4: 6542         	ld	a0, 0x10(sp)
802004b6: 00003097     	auipc	ra, 0x3
802004ba: b70080e7     	jalr	-0x490(ra) <core::ptr::drop_in_place$LT$spin..mutex..MutexGuard$LT$buddy_system_allocator..Heap$LT$32_usize$GT$$GT$$GT$::h40f7c54feb970bf5>
802004be: 7542         	ld	a0, 0x30(sp)
802004c0: 65e2         	ld	a1, 0x18(sp)
; /Users/lewis/Github/rust-to-riscv-asm/src/heap.rs:17
802004c2: f92e         	sd	a1, 0xb0(sp)
802004c4: 1914         	addi	a3, sp, 0xb0
802004c6: 2ad13823     	sd	a3, 0x2b0(sp)

00000000802004ca <.Lpcrel_hi3>:
; .Lpcrel_hi3():
; /Users/lewis/.rustup/toolchains/stable-aarch64-apple-darwin/lib/rustlib/src/rust/library/core/src/fmt/rt.rs:130
802004ca: 00005617     	auipc	a2, 0x5
802004ce: b6660613     	addi	a2, a2, -0x49a
802004d2: 2ac13c23     	sd	a2, 0x2b8(sp)
; /Users/lewis/.rustup/toolchains/stable-aarch64-apple-darwin/lib/rustlib/src/rust/library/core/src/ptr/non_null.rs:1767
802004d6: 2cd13023     	sd	a3, 0x2c0(sp)
; /Users/lewis/.rustup/toolchains/stable-aarch64-apple-darwin/lib/rustlib/src/rust/library/core/src/fmt/rt.rs:103
802004da: 2ad13023     	sd	a3, 0x2a0(sp)
802004de: 2ac13423     	sd	a2, 0x2a8(sp)
; /Users/lewis/.rustup/toolchains/stable-aarch64-apple-darwin/lib/rustlib/src/rust/library/core/src/fmt/rt.rs:100
802004e2: 2a813603     	ld	a2, 0x2a8(sp)
802004e6: f532         	sd	a2, 0xa8(sp)
802004e8: 2a013603     	ld	a2, 0x2a0(sp)
802004ec: f132         	sd	a2, 0xa0(sp)
; /Users/lewis/Github/rust-to-riscv-asm/src/heap.rs:17
802004ee: 952e         	add	a0, a0, a1
802004f0: f02a         	sd	a0, 0x20(sp)
802004f2: 16b56263     	bltu	a0, a1, 0x80200656 <.Lpcrel_hi7>
802004f6: a809         	j	0x80200508 <.Lpcrel_hi4+0x10>

00000000802004f8 <.Lpcrel_hi4>:
; .Lpcrel_hi4():
; /Users/lewis/Github/rust-to-riscv-asm/src/heap.rs:15
802004f8: 00006517     	auipc	a0, 0x6
802004fc: ee050513     	addi	a0, a0, -0x120
80200500: 00005097     	auipc	ra, 0x5
80200504: 99e080e7     	jalr	-0x662(ra) <core::panicking::panic_const::panic_const_mul_overflow::h9bca4aab8cdc06a4>
80200508: 7502         	ld	a0, 0x20(sp)
; /Users/lewis/Github/rust-to-riscv-asm/src/heap.rs:17
8020050a: e5aa         	sd	a0, 0xc8(sp)
8020050c: 01ac         	addi	a1, sp, 0xc8
8020050e: 28b13423     	sd	a1, 0x288(sp)

0000000080200512 <.Lpcrel_hi5>:
; .Lpcrel_hi5():
; /Users/lewis/.rustup/toolchains/stable-aarch64-apple-darwin/lib/rustlib/src/rust/library/core/src/fmt/rt.rs:130
80200512: 00005517     	auipc	a0, 0x5
80200516: b1e50513     	addi	a0, a0, -0x4e2
8020051a: 28a13823     	sd	a0, 0x290(sp)
; /Users/lewis/.rustup/toolchains/stable-aarch64-apple-darwin/lib/rustlib/src/rust/library/core/src/ptr/non_null.rs:1767
8020051e: 28b13c23     	sd	a1, 0x298(sp)
; /Users/lewis/.rustup/toolchains/stable-aarch64-apple-darwin/lib/rustlib/src/rust/library/core/src/fmt/rt.rs:103
80200522: 26b13c23     	sd	a1, 0x278(sp)
80200526: 28a13023     	sd	a0, 0x280(sp)
; /Users/lewis/.rustup/toolchains/stable-aarch64-apple-darwin/lib/rustlib/src/rust/library/core/src/fmt/rt.rs:100
8020052a: 28013503     	ld	a0, 0x280(sp)
8020052e: e1aa         	sd	a0, 0xc0(sp)
80200530: 27813503     	ld	a0, 0x278(sp)
80200534: fd2a         	sd	a0, 0xb8(sp)
; /Users/lewis/Github/rust-to-riscv-asm/src/console.rs:26
80200536: 752a         	ld	a0, 0xa8(sp)
80200538: e52a         	sd	a0, 0x88(sp)
8020053a: 750a         	ld	a0, 0xa0(sp)
8020053c: e12a         	sd	a0, 0x80(sp)
8020053e: 650e         	ld	a0, 0xc0(sp)
80200540: ed2a         	sd	a0, 0x98(sp)
80200542: 756a         	ld	a0, 0xb8(sp)
80200544: e92a         	sd	a0, 0x90(sp)
80200546: 460d         	li	a2, 0x3
80200548: 16c10fa3     	sb	a2, 0x17f(sp)
8020054c: 4809         	li	a6, 0x2
8020054e: e342         	sd	a6, 0x180(sp)
80200550: eb42         	sd	a6, 0x190(sp)
80200552: 17f14883     	lbu	a7, 0x17f(sp)
80200556: 671a         	ld	a4, 0x180(sp)
80200558: 66ba         	ld	a3, 0x188(sp)
8020055a: 65da         	ld	a1, 0x190(sp)
8020055c: 657a         	ld	a0, 0x198(sp)
8020055e: 4301         	li	t1, 0x0
80200560: 24613023     	sd	t1, 0x240(sp)
80200564: 02000293     	li	t0, 0x20
80200568: 24512623     	sw	t0, 0x24c(sp)
8020056c: 251109a3     	sb	a7, 0x253(sp)
80200570: 4791         	li	a5, 0x4
80200572: 24f12a23     	sw	a5, 0x254(sp)
80200576: 24e13c23     	sd	a4, 0x258(sp)
8020057a: 26d13023     	sd	a3, 0x260(sp)
8020057e: 26b13423     	sd	a1, 0x268(sp)
80200582: 26a13823     	sd	a0, 0x270(sp)
; /Users/lewis/.rustup/toolchains/stable-aarch64-apple-darwin/lib/rustlib/src/rust/library/core/src/fmt/rt.rs:31
80200586: f29a         	sd	t1, 0x160(sp)
80200588: 16512423     	sw	t0, 0x168(sp)
8020058c: 17110823     	sb	a7, 0x170(sp)
80200590: 16f12623     	sw	a5, 0x16c(sp)
80200594: e2ba         	sd	a4, 0x140(sp)
80200596: e6b6         	sd	a3, 0x148(sp)
80200598: eaae         	sd	a1, 0x150(sp)
8020059a: eeaa         	sd	a0, 0x158(sp)
; /Users/lewis/Github/rust-to-riscv-asm/src/console.rs:26
8020059c: 1cc10fa3     	sb	a2, 0x1df(sp)
802005a0: f3c2         	sd	a6, 0x1e0(sp)
802005a2: fbc2         	sd	a6, 0x1f0(sp)
802005a4: 1df14883     	lbu	a7, 0x1df(sp)
802005a8: 771e         	ld	a4, 0x1e0(sp)
802005aa: 76be         	ld	a3, 0x1e8(sp)
802005ac: 75de         	ld	a1, 0x1f0(sp)
802005ae: 757e         	ld	a0, 0x1f8(sp)
802005b0: 4305         	li	t1, 0x1
802005b2: 20613423     	sd	t1, 0x208(sp)
802005b6: 20512a23     	sw	t0, 0x214(sp)
802005ba: 21110da3     	sb	a7, 0x21b(sp)
802005be: 20f12e23     	sw	a5, 0x21c(sp)
802005c2: 22e13023     	sd	a4, 0x220(sp)
802005c6: 22d13423     	sd	a3, 0x228(sp)
802005ca: 22b13823     	sd	a1, 0x230(sp)
802005ce: 22a13c23     	sd	a0, 0x238(sp)
; /Users/lewis/.rustup/toolchains/stable-aarch64-apple-darwin/lib/rustlib/src/rust/library/core/src/fmt/rt.rs:31
802005d2: e39a         	sd	t1, 0x1c0(sp)
802005d4: 1c512423     	sw	t0, 0x1c8(sp)
802005d8: 1d110823     	sb	a7, 0x1d0(sp)
802005dc: 1cf12623     	sw	a5, 0x1cc(sp)
802005e0: f33a         	sd	a4, 0x1a0(sp)
802005e2: f736         	sd	a3, 0x1a8(sp)
802005e4: fb2e         	sd	a1, 0x1b0(sp)
802005e6: ff2a         	sd	a0, 0x1b8(sp)
; /Users/lewis/Github/rust-to-riscv-asm/src/console.rs:26
802005e8: 7556         	ld	a0, 0x170(sp)
802005ea: e22a         	sd	a0, 0x100(sp)
802005ec: 7536         	ld	a0, 0x168(sp)
802005ee: fdaa         	sd	a0, 0xf8(sp)
802005f0: 7516         	ld	a0, 0x160(sp)
802005f2: f9aa         	sd	a0, 0xf0(sp)
802005f4: 6576         	ld	a0, 0x158(sp)
802005f6: f5aa         	sd	a0, 0xe8(sp)
802005f8: 6556         	ld	a0, 0x150(sp)
802005fa: f1aa         	sd	a0, 0xe0(sp)
802005fc: 6536         	ld	a0, 0x148(sp)
802005fe: edaa         	sd	a0, 0xd8(sp)
80200600: 6516         	ld	a0, 0x140(sp)
80200602: e9aa         	sd	a0, 0xd0(sp)
80200604: 655e         	ld	a0, 0x1d0(sp)
80200606: fe2a         	sd	a0, 0x138(sp)
80200608: 653e         	ld	a0, 0x1c8(sp)
8020060a: fa2a         	sd	a0, 0x130(sp)
8020060c: 651e         	ld	a0, 0x1c0(sp)
8020060e: f62a         	sd	a0, 0x128(sp)
80200610: 757a         	ld	a0, 0x1b8(sp)
80200612: f22a         	sd	a0, 0x120(sp)
80200614: 755a         	ld	a0, 0x1b0(sp)
80200616: ee2a         	sd	a0, 0x118(sp)
80200618: 753a         	ld	a0, 0x1a8(sp)
8020061a: ea2a         	sd	a0, 0x110(sp)
8020061c: 751a         	ld	a0, 0x1a0(sp)
8020061e: e62a         	sd	a0, 0x108(sp)

0000000080200620 <.Lpcrel_hi6>:
; .Lpcrel_hi6():
; /Users/lewis/Github/rust-to-riscv-asm/src/console.rs:26
80200620: 00006517     	auipc	a0, 0x6
80200624: de850593     	addi	a1, a0, -0x218
80200628: 0888         	addi	a0, sp, 0x50
8020062a: e42a         	sd	a0, 0x8(sp)
8020062c: 0114         	addi	a3, sp, 0x80
8020062e: 099c         	addi	a5, sp, 0xd0
80200630: 8742         	mv	a4, a6
80200632: 00003097     	auipc	ra, 0x3
80200636: d72080e7     	jalr	-0x28e(ra) <core::fmt::Arguments::new_v1_formatted::h08eb7517a36825be>
8020063a: 6522         	ld	a0, 0x8(sp)
8020063c: 00000097     	auipc	ra, 0x0
80200640: cba080e7     	jalr	-0x346(ra) <rust_to_riscv_asm::console::print::h400bbaddcd70c1de>
; /Users/lewis/Github/rust-to-riscv-asm/src/heap.rs:20
80200644: 00000097     	auipc	ra, 0x0
80200648: 022080e7     	jalr	0x22(ra) <rust_to_riscv_asm::heap::heap_test::h349270c25a53af05>
8020064c: 2f813083     	ld	ra, 0x2f8(sp)
; /Users/lewis/Github/rust-to-riscv-asm/src/heap.rs:21
80200650: 30010113     	addi	sp, sp, 0x300
80200654: 8082         	ret

0000000080200656 <.Lpcrel_hi7>:
; .Lpcrel_hi7():
; /Users/lewis/Github/rust-to-riscv-asm/src/heap.rs:17
80200656: 00006517     	auipc	a0, 0x6
8020065a: de250513     	addi	a0, a0, -0x21e
8020065e: 00004097     	auipc	ra, 0x4
80200662: 7d4080e7     	jalr	0x7d4(ra) <core::panicking::panic_const::panic_const_add_overflow::h1eeea1441bfc0f05>

0000000080200666 <rust_to_riscv_asm::heap::heap_test::h349270c25a53af05>:
; rust_to_riscv_asm::heap::heap_test::h349270c25a53af05():
; /Users/lewis/Github/rust-to-riscv-asm/src/heap.rs:24
80200666: 7109         	addi	sp, sp, -0x180
80200668: fe86         	sd	ra, 0x178(sp)
8020066a: 1008         	addi	a0, sp, 0x20
; /Users/lewis/Github/rust-to-riscv-asm/src/heap.rs:25
8020066c: 00003097     	auipc	ra, 0x3
80200670: 886080e7     	jalr	-0x77a(ra) <alloc::vec::Vec$LT$T$GT$::new::h90e526053258c592>
80200674: 4501         	li	a0, 0x0
80200676: 3e800593     	li	a1, 0x3e8
; /Users/lewis/Github/rust-to-riscv-asm/src/heap.rs:26
8020067a: 00001097     	auipc	ra, 0x1
8020067e: c04080e7     	jalr	-0x3fc(ra) <_$LT$I$u20$as$u20$core..iter..traits..collect..IntoIterator$GT$::into_iter::h3bed3cee3382c0ac>
80200682: dc2a         	sw	a0, 0x38(sp)
80200684: de2e         	sw	a1, 0x3c(sp)
80200686: a009         	j	0x80200688 <rust_to_riscv_asm::heap::heap_test::h349270c25a53af05+0x22>
80200688: 1828         	addi	a0, sp, 0x38
; /Users/lewis/Github/rust-to-riscv-asm/src/heap.rs:26
8020068a: 00001097     	auipc	ra, 0x1
8020068e: b5e080e7     	jalr	-0x4a2(ra) <core::iter::range::_$LT$impl$u20$core..iter..traits..iterator..Iterator$u20$for$u20$core..ops..range..Range$LT$A$GT$$GT$::next::h699376679b793822>
80200692: c0aa         	sw	a0, 0x40(sp)
80200694: c2ae         	sw	a1, 0x44(sp)
80200696: 4506         	lw	a0, 0x40(sp)
80200698: e505         	bnez	a0, 0x802006c0 <.Lpcrel_hi8+0x14>
8020069a: a009         	j	0x8020069c <rust_to_riscv_asm::heap::heap_test::h349270c25a53af05+0x36>
8020069c: 1008         	addi	a0, sp, 0x20
; /Users/lewis/Github/rust-to-riscv-asm/src/heap.rs:29
8020069e: 00003097     	auipc	ra, 0x3
802006a2: 86a080e7     	jalr	-0x796(ra) <alloc::vec::Vec$LT$T$C$A$GT$::len::hb7bba9fe6f68bb37>
802006a6: e4aa         	sd	a0, 0x48(sp)
802006a8: 00a8         	addi	a0, sp, 0x48
802006aa: fa2a         	sd	a0, 0x130(sp)

00000000802006ac <.Lpcrel_hi8>:
; .Lpcrel_hi8():
; /Users/lewis/Github/rust-to-riscv-asm/src/heap.rs:29
802006ac: 00006517     	auipc	a0, 0x6
802006b0: dc450593     	addi	a1, a0, -0x23c
802006b4: fe2e         	sd	a1, 0x138(sp)
802006b6: 6526         	ld	a0, 0x48(sp)
802006b8: 618c         	ld	a1, 0x0(a1)
802006ba: 04b50063     	beq	a0, a1, 0x802006fa <.Lpcrel_hi11>
802006be: a811         	j	0x802006d2 <.Lpcrel_hi8+0x26>
; /Users/lewis/Github/rust-to-riscv-asm/src/heap.rs:27
802006c0: 4596         	lw	a1, 0x44(sp)
; /Users/lewis/Github/rust-to-riscv-asm/src/heap.rs:26
802006c2: 16b12a23     	sw	a1, 0x174(sp)
802006c6: 1008         	addi	a0, sp, 0x20
; /Users/lewis/Github/rust-to-riscv-asm/src/heap.rs:27
802006c8: 00003097     	auipc	ra, 0x3
802006cc: 84a080e7     	jalr	-0x7b6(ra) <alloc::vec::Vec$LT$T$C$A$GT$::push::h0fa8558ba6218b7c>
802006d0: bf65         	j	0x80200688 <rust_to_riscv_asm::heap::heap_test::h349270c25a53af05+0x22>
802006d2: 4501         	li	a0, 0x0
; /Users/lewis/Github/rust-to-riscv-asm/src/heap.rs:29
802006d4: 04a10ba3     	sb	a0, 0x57(sp)
802006d8: ecaa         	sd	a0, 0x58(sp)
802006da: 05714503     	lbu	a0, 0x57(sp)

00000000802006de <.Lpcrel_hi9>:
; .Lpcrel_hi9():
; /Users/lewis/Github/rust-to-riscv-asm/src/heap.rs:29
802006de: 00006597     	auipc	a1, 0x6
802006e2: d9258613     	addi	a2, a1, -0x26e

00000000802006e6 <.Lpcrel_hi10>:
; .Lpcrel_hi10():
; /Users/lewis/Github/rust-to-riscv-asm/src/heap.rs:29
802006e6: 00006597     	auipc	a1, 0x6
802006ea: d9258713     	addi	a4, a1, -0x26e
802006ee: 00ac         	addi	a1, sp, 0x48
802006f0: 08b4         	addi	a3, sp, 0x58
802006f2: 00002097     	auipc	ra, 0x2
802006f6: 7bc080e7     	jalr	0x7bc(ra) <core::panicking::assert_failed::hfcd3e854b36aaadd>

00000000802006fa <.Lpcrel_hi11>:
; .Lpcrel_hi11():
; /Users/lewis/Github/rust-to-riscv-asm/src/heap.rs:30
802006fa: 00006517     	auipc	a0, 0x6
802006fe: d9650613     	addi	a2, a0, -0x26a
80200702: 1008         	addi	a0, sp, 0x20
80200704: 4581         	li	a1, 0x0
80200706: 00003097     	auipc	ra, 0x3
8020070a: 870080e7     	jalr	-0x790(ra) <_$LT$alloc..vec..Vec$LT$T$C$A$GT$$u20$as$u20$core..ops..index..Index$LT$I$GT$$GT$::index::h39e6f510a4f0ce36>
8020070e: 85aa         	mv	a1, a0
80200710: ec2e         	sd	a1, 0x18(sp)
80200712: e2aa         	sd	a0, 0x140(sp)

0000000080200714 <.Lpcrel_hi12>:
; .Lpcrel_hi12():
; /Users/lewis/Github/rust-to-riscv-asm/src/heap.rs:30
80200714: 00006597     	auipc	a1, 0x6
80200718: d9458593     	addi	a1, a1, -0x26c
8020071c: e6ae         	sd	a1, 0x148(sp)
8020071e: 4108         	lw	a0, 0x0(a0)
80200720: 418c         	lw	a1, 0x0(a1)
80200722: 02b50763     	beq	a0, a1, 0x80200750 <.Lpcrel_hi15>
80200726: a009         	j	0x80200728 <.Lpcrel_hi12+0x14>
80200728: 65e2         	ld	a1, 0x18(sp)
8020072a: 4501         	li	a0, 0x0
; /Users/lewis/Github/rust-to-riscv-asm/src/heap.rs:30
8020072c: 08a107a3     	sb	a0, 0x8f(sp)
80200730: e92a         	sd	a0, 0x90(sp)
80200732: 08f14503     	lbu	a0, 0x8f(sp)

0000000080200736 <.Lpcrel_hi13>:
; .Lpcrel_hi13():
; /Users/lewis/Github/rust-to-riscv-asm/src/heap.rs:30
80200736: 00006617     	auipc	a2, 0x6
8020073a: d7260613     	addi	a2, a2, -0x28e

000000008020073e <.Lpcrel_hi14>:
; .Lpcrel_hi14():
; /Users/lewis/Github/rust-to-riscv-asm/src/heap.rs:30
8020073e: 00006697     	auipc	a3, 0x6
80200742: d7a68713     	addi	a4, a3, -0x286
80200746: 0914         	addi	a3, sp, 0x90
80200748: 00002097     	auipc	ra, 0x2
8020074c: 742080e7     	jalr	0x742(ra) <core::panicking::assert_failed::h5bace2fa3525e235>

0000000080200750 <.Lpcrel_hi15>:
; .Lpcrel_hi15():
; /Users/lewis/Github/rust-to-riscv-asm/src/heap.rs:31
80200750: 00006517     	auipc	a0, 0x6
80200754: d8050613     	addi	a2, a0, -0x280
80200758: 1008         	addi	a0, sp, 0x20
8020075a: 06300593     	li	a1, 0x63
8020075e: 00003097     	auipc	ra, 0x3
80200762: 818080e7     	jalr	-0x7e8(ra) <_$LT$alloc..vec..Vec$LT$T$C$A$GT$$u20$as$u20$core..ops..index..Index$LT$I$GT$$GT$::index::h39e6f510a4f0ce36>
80200766: 85aa         	mv	a1, a0
80200768: e82e         	sd	a1, 0x10(sp)
8020076a: eaaa         	sd	a0, 0x150(sp)

000000008020076c <.Lpcrel_hi16>:
; .Lpcrel_hi16():
; /Users/lewis/Github/rust-to-riscv-asm/src/heap.rs:31
8020076c: 00006597     	auipc	a1, 0x6
80200770: d4458593     	addi	a1, a1, -0x2bc
80200774: eeae         	sd	a1, 0x158(sp)
80200776: 4108         	lw	a0, 0x0(a0)
80200778: 418c         	lw	a1, 0x0(a1)
8020077a: 02b50763     	beq	a0, a1, 0x802007a8 <.Lpcrel_hi19>
8020077e: a009         	j	0x80200780 <.Lpcrel_hi16+0x14>
80200780: 65c2         	ld	a1, 0x10(sp)
80200782: 4501         	li	a0, 0x0
; /Users/lewis/Github/rust-to-riscv-asm/src/heap.rs:31
80200784: 0ca103a3     	sb	a0, 0xc7(sp)
80200788: e5aa         	sd	a0, 0xc8(sp)
8020078a: 0c714503     	lbu	a0, 0xc7(sp)

000000008020078e <.Lpcrel_hi17>:
; .Lpcrel_hi17():
; /Users/lewis/Github/rust-to-riscv-asm/src/heap.rs:31
8020078e: 00006617     	auipc	a2, 0x6
80200792: d2260613     	addi	a2, a2, -0x2de

0000000080200796 <.Lpcrel_hi18>:
; .Lpcrel_hi18():
; /Users/lewis/Github/rust-to-riscv-asm/src/heap.rs:31
80200796: 00006697     	auipc	a3, 0x6
8020079a: d5268713     	addi	a4, a3, -0x2ae
8020079e: 01b4         	addi	a3, sp, 0xc8
802007a0: 00002097     	auipc	ra, 0x2
802007a4: 6ea080e7     	jalr	0x6ea(ra) <core::panicking::assert_failed::h5bace2fa3525e235>

00000000802007a8 <.Lpcrel_hi19>:
; .Lpcrel_hi19():
; /Users/lewis/Github/rust-to-riscv-asm/src/heap.rs:32
802007a8: 00006517     	auipc	a0, 0x6
802007ac: d5850613     	addi	a2, a0, -0x2a8
802007b0: 1008         	addi	a0, sp, 0x20
802007b2: 3e700593     	li	a1, 0x3e7
802007b6: 00002097     	auipc	ra, 0x2
802007ba: 7c0080e7     	jalr	0x7c0(ra) <_$LT$alloc..vec..Vec$LT$T$C$A$GT$$u20$as$u20$core..ops..index..Index$LT$I$GT$$GT$::index::h39e6f510a4f0ce36>
802007be: 85aa         	mv	a1, a0
802007c0: e42e         	sd	a1, 0x8(sp)
802007c2: f2aa         	sd	a0, 0x160(sp)

00000000802007c4 <.Lpcrel_hi20>:
; .Lpcrel_hi20():
; /Users/lewis/Github/rust-to-riscv-asm/src/heap.rs:32
802007c4: 00006597     	auipc	a1, 0x6
802007c8: ce858593     	addi	a1, a1, -0x318
802007cc: f6ae         	sd	a1, 0x168(sp)
802007ce: 4108         	lw	a0, 0x0(a0)
802007d0: 418c         	lw	a1, 0x0(a1)
802007d2: 02b50763     	beq	a0, a1, 0x80200800 <.Lpcrel_hi22+0x12>
802007d6: a009         	j	0x802007d8 <.Lpcrel_hi20+0x14>
802007d8: 65a2         	ld	a1, 0x8(sp)
802007da: 4501         	li	a0, 0x0
; /Users/lewis/Github/rust-to-riscv-asm/src/heap.rs:32
802007dc: 0ea10fa3     	sb	a0, 0xff(sp)
802007e0: e22a         	sd	a0, 0x100(sp)
802007e2: 0ff14503     	lbu	a0, 0xff(sp)

00000000802007e6 <.Lpcrel_hi21>:
; .Lpcrel_hi21():
; /Users/lewis/Github/rust-to-riscv-asm/src/heap.rs:32
802007e6: 00006617     	auipc	a2, 0x6
802007ea: cc660613     	addi	a2, a2, -0x33a

00000000802007ee <.Lpcrel_hi22>:
; .Lpcrel_hi22():
; /Users/lewis/Github/rust-to-riscv-asm/src/heap.rs:32
802007ee: 00006697     	auipc	a3, 0x6
802007f2: d2a68713     	addi	a4, a3, -0x2d6
802007f6: 0214         	addi	a3, sp, 0x100
802007f8: 00002097     	auipc	ra, 0x2
802007fc: 692080e7     	jalr	0x692(ra) <core::panicking::assert_failed::h5bace2fa3525e235>
80200800: 1008         	addi	a0, sp, 0x20
; /Users/lewis/Github/rust-to-riscv-asm/src/heap.rs:34
80200802: 00002097     	auipc	ra, 0x2
80200806: 7f0080e7     	jalr	0x7f0(ra) <core::ptr::drop_in_place$LT$alloc..vec..Vec$LT$i32$GT$$GT$::h809a8474d3e511e9>
8020080a: 70f6         	ld	ra, 0x178(sp)
8020080c: 6119         	addi	sp, sp, 0x180
8020080e: 8082         	ret

0000000080200810 <__rust_alloc>:
; __rust_alloc():
; /Users/lewis/Github/rust-to-riscv-asm/src/heap.rs:7
80200810: 1101         	addi	sp, sp, -0x20
80200812: ec06         	sd	ra, 0x18(sp)
80200814: e42a         	sd	a0, 0x8(sp)
80200816: e82e         	sd	a1, 0x10(sp)
80200818: 00003097     	auipc	ra, 0x3
8020081c: 91e080e7     	jalr	-0x6e2(ra) <core::alloc::layout::Layout::from_size_align_unchecked::h9f3e2fef90bc133c>
80200820: e02a         	sd	a0, 0x0(sp)
80200822: 862e         	mv	a2, a1
80200824: 6582         	ld	a1, 0x0(sp)

0000000080200826 <.Lpcrel_hi23>:
; .Lpcrel_hi23():
; /Users/lewis/Github/rust-to-riscv-asm/src/heap.rs:7
80200826: 00a07517     	auipc	a0, 0xa07
8020082a: 7da50513     	addi	a0, a0, 0x7da
8020082e: 00002097     	auipc	ra, 0x2
80200832: 344080e7     	jalr	0x344(ra) <_$LT$buddy_system_allocator..LockedHeap$LT$_$GT$$u20$as$u20$core..alloc..global..GlobalAlloc$GT$::alloc::hf4cc074af7eebe1d>
80200836: 60e2         	ld	ra, 0x18(sp)
80200838: 6105         	addi	sp, sp, 0x20
8020083a: 8082         	ret

000000008020083c <__rust_dealloc>:
; __rust_dealloc():
; /Users/lewis/Github/rust-to-riscv-asm/src/heap.rs:7
8020083c: 7139         	addi	sp, sp, -0x40
8020083e: fc06         	sd	ra, 0x38(sp)
80200840: e432         	sd	a2, 0x8(sp)
80200842: 862e         	mv	a2, a1
80200844: 65a2         	ld	a1, 0x8(sp)
80200846: e832         	sd	a2, 0x10(sp)
80200848: 862a         	mv	a2, a0
8020084a: 6542         	ld	a0, 0x10(sp)
8020084c: ec32         	sd	a2, 0x18(sp)
8020084e: f032         	sd	a2, 0x20(sp)
80200850: f42a         	sd	a0, 0x28(sp)
80200852: f82e         	sd	a1, 0x30(sp)
80200854: 00003097     	auipc	ra, 0x3
80200858: 8e2080e7     	jalr	-0x71e(ra) <core::alloc::layout::Layout::from_size_align_unchecked::h9f3e2fef90bc133c>
8020085c: 862a         	mv	a2, a0
8020085e: 86ae         	mv	a3, a1
80200860: 65e2         	ld	a1, 0x18(sp)

0000000080200862 <.Lpcrel_hi24>:
; .Lpcrel_hi24():
; /Users/lewis/Github/rust-to-riscv-asm/src/heap.rs:7
80200862: 00a07517     	auipc	a0, 0xa07
80200866: 79e50513     	addi	a0, a0, 0x79e
8020086a: 00002097     	auipc	ra, 0x2
8020086e: 3d8080e7     	jalr	0x3d8(ra) <_$LT$buddy_system_allocator..LockedHeap$LT$_$GT$$u20$as$u20$core..alloc..global..GlobalAlloc$GT$::dealloc::hcae98aa223b1497b>
80200872: 70e2         	ld	ra, 0x38(sp)
80200874: 6121         	addi	sp, sp, 0x40
80200876: 8082         	ret

0000000080200878 <__rust_realloc>:
; __rust_realloc():
; /Users/lewis/Github/rust-to-riscv-asm/src/heap.rs:7
80200878: 715d         	addi	sp, sp, -0x50
8020087a: e486         	sd	ra, 0x48(sp)
8020087c: ec36         	sd	a3, 0x18(sp)
8020087e: e432         	sd	a2, 0x8(sp)
80200880: 862e         	mv	a2, a1
80200882: 65a2         	ld	a1, 0x8(sp)
80200884: e832         	sd	a2, 0x10(sp)
80200886: 862a         	mv	a2, a0
80200888: 6542         	ld	a0, 0x10(sp)
8020088a: f032         	sd	a2, 0x20(sp)
8020088c: f432         	sd	a2, 0x28(sp)
8020088e: f82a         	sd	a0, 0x30(sp)
80200890: fc2e         	sd	a1, 0x38(sp)
80200892: e0b6         	sd	a3, 0x40(sp)
80200894: 00003097     	auipc	ra, 0x3
80200898: 8a2080e7     	jalr	-0x75e(ra) <core::alloc::layout::Layout::from_size_align_unchecked::h9f3e2fef90bc133c>
8020089c: 6762         	ld	a4, 0x18(sp)
8020089e: 862a         	mv	a2, a0
802008a0: 86ae         	mv	a3, a1
802008a2: 7582         	ld	a1, 0x20(sp)

00000000802008a4 <.Lpcrel_hi25>:
; .Lpcrel_hi25():
; /Users/lewis/Github/rust-to-riscv-asm/src/heap.rs:7
802008a4: 00a07517     	auipc	a0, 0xa07
802008a8: 75c50513     	addi	a0, a0, 0x75c
802008ac: 00002097     	auipc	ra, 0x2
802008b0: 1ea080e7     	jalr	0x1ea(ra) <core::alloc::global::GlobalAlloc::realloc::h20167195fd1f2f8a>
802008b4: 60a6         	ld	ra, 0x48(sp)
802008b6: 6161         	addi	sp, sp, 0x50
802008b8: 8082         	ret

00000000802008ba <__rust_alloc_zeroed>:
; __rust_alloc_zeroed():
; /Users/lewis/Github/rust-to-riscv-asm/src/heap.rs:7
802008ba: 1101         	addi	sp, sp, -0x20
802008bc: ec06         	sd	ra, 0x18(sp)
802008be: e42a         	sd	a0, 0x8(sp)
802008c0: e82e         	sd	a1, 0x10(sp)
802008c2: 00003097     	auipc	ra, 0x3
802008c6: 874080e7     	jalr	-0x78c(ra) <core::alloc::layout::Layout::from_size_align_unchecked::h9f3e2fef90bc133c>
802008ca: e02a         	sd	a0, 0x0(sp)
802008cc: 862e         	mv	a2, a1
802008ce: 6582         	ld	a1, 0x0(sp)

00000000802008d0 <.Lpcrel_hi26>:
; .Lpcrel_hi26():
; /Users/lewis/Github/rust-to-riscv-asm/src/heap.rs:7
802008d0: 00a07517     	auipc	a0, 0xa07
802008d4: 73050513     	addi	a0, a0, 0x730
802008d8: 00002097     	auipc	ra, 0x2
802008dc: 162080e7     	jalr	0x162(ra) <core::alloc::global::GlobalAlloc::alloc_zeroed::h1157c558ccbc1159>
802008e0: 60e2         	ld	ra, 0x18(sp)
802008e2: 6105         	addi	sp, sp, 0x20
802008e4: 8082         	ret

00000000802008e6 <sbi_spec::binary::Physical$LT$P$GT$::phys_addr_hi::h4823e69f382ed57d>:
; sbi_spec::binary::Physical$LT$P$GT$::phys_addr_hi::h4823e69f382ed57d():
; /Users/lewis/.cargo/registry/src/rsproxy.cn-0dccff568467c15b/sbi-spec-0.0.7/src/binary.rs:779
802008e6: 1141         	addi	sp, sp, -0x10
802008e8: e42a         	sd	a0, 0x8(sp)
; /Users/lewis/.cargo/registry/src/rsproxy.cn-0dccff568467c15b/sbi-spec-0.0.7/src/binary.rs:780
802008ea: 6908         	ld	a0, 0x10(a0)
; /Users/lewis/.cargo/registry/src/rsproxy.cn-0dccff568467c15b/sbi-spec-0.0.7/src/binary.rs:781
802008ec: 0141         	addi	sp, sp, 0x10
802008ee: 8082         	ret

00000000802008f0 <sbi_spec::binary::Physical$LT$P$GT$::phys_addr_lo::hcb6d870fd2acc422>:
; sbi_spec::binary::Physical$LT$P$GT$::phys_addr_lo::hcb6d870fd2acc422():
; /Users/lewis/.cargo/registry/src/rsproxy.cn-0dccff568467c15b/sbi-spec-0.0.7/src/binary.rs:773
802008f0: 1141         	addi	sp, sp, -0x10
802008f2: e42a         	sd	a0, 0x8(sp)
; /Users/lewis/.cargo/registry/src/rsproxy.cn-0dccff568467c15b/sbi-spec-0.0.7/src/binary.rs:774
802008f4: 6508         	ld	a0, 0x8(a0)
; /Users/lewis/.cargo/registry/src/rsproxy.cn-0dccff568467c15b/sbi-spec-0.0.7/src/binary.rs:775
802008f6: 0141         	addi	sp, sp, 0x10
802008f8: 8082         	ret

00000000802008fa <sbi_spec::binary::Physical$LT$P$GT$::new::hdb4740218d4a5d2f>:
; sbi_spec::binary::Physical$LT$P$GT$::new::hdb4740218d4a5d2f():
; /Users/lewis/.cargo/registry/src/rsproxy.cn-0dccff568467c15b/sbi-spec-0.0.7/src/binary.rs:756
802008fa: 1101         	addi	sp, sp, -0x20
802008fc: e42e         	sd	a1, 0x8(sp)
802008fe: e832         	sd	a2, 0x10(sp)
80200900: ec36         	sd	a3, 0x18(sp)
; /Users/lewis/.cargo/registry/src/rsproxy.cn-0dccff568467c15b/sbi-spec-0.0.7/src/binary.rs:757
80200902: e10c         	sd	a1, 0x0(a0)
80200904: e510         	sd	a2, 0x8(a0)
80200906: e914         	sd	a3, 0x10(a0)
; /Users/lewis/.cargo/registry/src/rsproxy.cn-0dccff568467c15b/sbi-spec-0.0.7/src/binary.rs:763
80200908: 6105         	addi	sp, sp, 0x20
8020090a: 8082         	ret

000000008020090c <sbi_spec::binary::Physical$LT$P$GT$::num_bytes::hd16f0d3635db1ba4>:
; sbi_spec::binary::Physical$LT$P$GT$::num_bytes::hd16f0d3635db1ba4():
; /Users/lewis/.cargo/registry/src/rsproxy.cn-0dccff568467c15b/sbi-spec-0.0.7/src/binary.rs:767
8020090c: 1141         	addi	sp, sp, -0x10
8020090e: e42a         	sd	a0, 0x8(sp)
; /Users/lewis/.cargo/registry/src/rsproxy.cn-0dccff568467c15b/sbi-spec-0.0.7/src/binary.rs:768
80200910: 6108         	ld	a0, 0x0(a0)
; /Users/lewis/.cargo/registry/src/rsproxy.cn-0dccff568467c15b/sbi-spec-0.0.7/src/binary.rs:769
80200912: 0141         	addi	sp, sp, 0x10
80200914: 8082         	ret

0000000080200916 <sbi_rt::srst::system_reset::h15b60db9070daeb1>:
; sbi_rt::srst::system_reset::h15b60db9070daeb1():
; /Users/lewis/.cargo/registry/src/rsproxy.cn-0dccff568467c15b/sbi-rt-0.0.3/src/srst.rs:34
80200916: 715d         	addi	sp, sp, -0x50
80200918: e486         	sd	ra, 0x48(sp)
8020091a: 01610513     	addi	a0, sp, 0x16
; /Users/lewis/.cargo/registry/src/rsproxy.cn-0dccff568467c15b/sbi-rt-0.0.3/src/srst.rs:42
8020091e: 00001097     	auipc	ra, 0x1
80200922: 312080e7     	jalr	0x312(ra) <_$LT$sbi_rt..srst..Shutdown$u20$as$u20$sbi_rt..srst..ResetType$GT$::raw::h67a9fd825b9b1f1f>
80200926: 1502         	slli	a0, a0, 0x20
80200928: 9101         	srli	a0, a0, 0x20
8020092a: e42a         	sd	a0, 0x8(sp)
8020092c: 01710513     	addi	a0, sp, 0x17
; /Users/lewis/.cargo/registry/src/rsproxy.cn-0dccff568467c15b/sbi-rt-0.0.3/src/srst.rs:43
80200930: 00001097     	auipc	ra, 0x1
80200934: 314080e7     	jalr	0x314(ra) <_$LT$sbi_rt..srst..SystemFailure$u20$as$u20$sbi_rt..srst..ResetReason$GT$::raw::hf1b50de91e76b228>
80200938: 85aa         	mv	a1, a0
8020093a: 6522         	ld	a0, 0x8(sp)
8020093c: 1582         	slli	a1, a1, 0x20
8020093e: 9181         	srli	a1, a1, 0x20
80200940: 53525637     	lui	a2, 0x53525
80200944: 3546089b     	addiw	a7, a2, 0x354
80200948: f446         	sd	a7, 0x28(sp)
8020094a: 4801         	li	a6, 0x0
8020094c: f842         	sd	a6, 0x30(sp)
8020094e: fc2a         	sd	a0, 0x38(sp)
80200950: e0ae         	sd	a1, 0x40(sp)
; /Users/lewis/.cargo/registry/src/rsproxy.cn-0dccff568467c15b/sbi-rt-0.0.3/src/binary.rs:39
80200952: 00000073     	ecall
80200956: ec2a         	sd	a0, 0x18(sp)
80200958: f02e         	sd	a1, 0x20(sp)
; /Users/lewis/.cargo/registry/src/rsproxy.cn-0dccff568467c15b/sbi-rt-0.0.3/src/binary.rs:47
8020095a: 6562         	ld	a0, 0x18(sp)
8020095c: 7582         	ld	a1, 0x20(sp)
8020095e: 60a6         	ld	ra, 0x48(sp)
; /Users/lewis/.cargo/registry/src/rsproxy.cn-0dccff568467c15b/sbi-rt-0.0.3/src/srst.rs:45
80200960: 6161         	addi	sp, sp, 0x50
80200962: 8082         	ret

0000000080200964 <sbi_rt::srst::system_reset::h40de18e179a835af>:
; sbi_rt::srst::system_reset::h40de18e179a835af():
; /Users/lewis/.cargo/registry/src/rsproxy.cn-0dccff568467c15b/sbi-rt-0.0.3/src/srst.rs:34
80200964: 715d         	addi	sp, sp, -0x50
80200966: e486         	sd	ra, 0x48(sp)
80200968: 01610513     	addi	a0, sp, 0x16
; /Users/lewis/.cargo/registry/src/rsproxy.cn-0dccff568467c15b/sbi-rt-0.0.3/src/srst.rs:42
8020096c: 00001097     	auipc	ra, 0x1
80200970: 2c4080e7     	jalr	0x2c4(ra) <_$LT$sbi_rt..srst..Shutdown$u20$as$u20$sbi_rt..srst..ResetType$GT$::raw::h67a9fd825b9b1f1f>
80200974: 1502         	slli	a0, a0, 0x20
80200976: 9101         	srli	a0, a0, 0x20
80200978: e42a         	sd	a0, 0x8(sp)
8020097a: 01710513     	addi	a0, sp, 0x17
; /Users/lewis/.cargo/registry/src/rsproxy.cn-0dccff568467c15b/sbi-rt-0.0.3/src/srst.rs:43
8020097e: 00001097     	auipc	ra, 0x1
80200982: 2bc080e7     	jalr	0x2bc(ra) <_$LT$sbi_rt..srst..NoReason$u20$as$u20$sbi_rt..srst..ResetReason$GT$::raw::h34a366dbec981e2c>
80200986: 85aa         	mv	a1, a0
80200988: 6522         	ld	a0, 0x8(sp)
8020098a: 1582         	slli	a1, a1, 0x20
8020098c: 9181         	srli	a1, a1, 0x20
8020098e: 53525637     	lui	a2, 0x53525
80200992: 3546089b     	addiw	a7, a2, 0x354
80200996: f446         	sd	a7, 0x28(sp)
80200998: 4801         	li	a6, 0x0
8020099a: f842         	sd	a6, 0x30(sp)
8020099c: fc2a         	sd	a0, 0x38(sp)
8020099e: e0ae         	sd	a1, 0x40(sp)
; /Users/lewis/.cargo/registry/src/rsproxy.cn-0dccff568467c15b/sbi-rt-0.0.3/src/binary.rs:39
802009a0: 00000073     	ecall
802009a4: ec2a         	sd	a0, 0x18(sp)
802009a6: f02e         	sd	a1, 0x20(sp)
; /Users/lewis/.cargo/registry/src/rsproxy.cn-0dccff568467c15b/sbi-rt-0.0.3/src/binary.rs:47
802009a8: 6562         	ld	a0, 0x18(sp)
802009aa: 7582         	ld	a1, 0x20(sp)
802009ac: 60a6         	ld	ra, 0x48(sp)
; /Users/lewis/.cargo/registry/src/rsproxy.cn-0dccff568467c15b/sbi-rt-0.0.3/src/srst.rs:45
802009ae: 6161         	addi	sp, sp, 0x50
802009b0: 8082         	ret

00000000802009b2 <alloc::alloc::alloc_zeroed::h7fb6209031b876a4>:
; alloc::alloc::alloc_zeroed::h7fb6209031b876a4():
; /Users/lewis/.rustup/toolchains/stable-aarch64-apple-darwin/lib/rustlib/src/rust/library/alloc/src/alloc.rs:173
802009b2: 715d         	addi	sp, sp, -0x50
802009b4: e486         	sd	ra, 0x48(sp)
802009b6: e42a         	sd	a0, 0x8(sp)
802009b8: e82e         	sd	a1, 0x10(sp)

00000000802009ba <.Lpcrel_hi0>:
; .Lpcrel_hi0():
; /Users/lewis/.rustup/toolchains/stable-aarch64-apple-darwin/lib/rustlib/src/rust/library/core/src/ptr/mod.rs:1802
802009ba: 00a07517     	auipc	a0, 0xa07
802009be: 76750513     	addi	a0, a0, 0x767
802009c2: f02a         	sd	a0, 0x20(sp)
; /Users/lewis/.rustup/toolchains/stable-aarch64-apple-darwin/lib/rustlib/src/rust/library/core/src/ub_checks.rs:76
802009c4: a009         	j	0x802009c6 <.Lpcrel_hi1>

00000000802009c6 <.Lpcrel_hi1>:
; .Lpcrel_hi1():
; /Users/lewis/.rustup/toolchains/stable-aarch64-apple-darwin/lib/rustlib/src/rust/library/core/src/ub_checks.rs:77
802009c6: 00a07517     	auipc	a0, 0xa07
802009ca: 75b50513     	addi	a0, a0, 0x75b
802009ce: 4585         	li	a1, 0x1
802009d0: 00001097     	auipc	ra, 0x1
802009d4: 324080e7     	jalr	0x324(ra) <core::ptr::read_volatile::precondition_check::h15a8d4728ff45ab8>
; /Users/lewis/.rustup/toolchains/stable-aarch64-apple-darwin/lib/rustlib/src/rust/library/core/src/ub_checks.rs:76
802009d8: a009         	j	0x802009da <.Lpcrel_hi2>

00000000802009da <.Lpcrel_hi2>:
; .Lpcrel_hi2():
; /Users/lewis/.rustup/toolchains/stable-aarch64-apple-darwin/lib/rustlib/src/rust/library/core/src/ptr/mod.rs:1813
802009da: 00a07517     	auipc	a0, 0xa07
802009de: 74750513     	addi	a0, a0, 0x747
802009e2: 00054503     	lbu	a0, 0x0(a0)
802009e6: 02a107a3     	sb	a0, 0x2f(sp)
802009ea: 002c         	addi	a1, sp, 0x8
; /Users/lewis/.rustup/toolchains/stable-aarch64-apple-darwin/lib/rustlib/src/rust/library/alloc/src/alloc.rs:179
802009ec: f82e         	sd	a1, 0x30(sp)
; /Users/lewis/.rustup/toolchains/stable-aarch64-apple-darwin/lib/rustlib/src/rust/library/core/src/alloc/layout.rs:151
802009ee: 6542         	ld	a0, 0x10(sp)
; /Users/lewis/.rustup/toolchains/stable-aarch64-apple-darwin/lib/rustlib/src/rust/library/alloc/src/alloc.rs:179
802009f0: fc2e         	sd	a1, 0x38(sp)
; /Users/lewis/.rustup/toolchains/stable-aarch64-apple-darwin/lib/rustlib/src/rust/library/core/src/alloc/layout.rs:164
802009f2: 65a2         	ld	a1, 0x8(sp)
802009f4: e0ae         	sd	a1, 0x40(sp)
; /Users/lewis/.rustup/toolchains/stable-aarch64-apple-darwin/lib/rustlib/src/rust/library/core/src/ptr/alignment.rs:95
802009f6: ec2e         	sd	a1, 0x18(sp)
802009f8: 65e2         	ld	a1, 0x18(sp)
; /Users/lewis/.rustup/toolchains/stable-aarch64-apple-darwin/lib/rustlib/src/rust/library/alloc/src/alloc.rs:179
802009fa: 00000097     	auipc	ra, 0x0
802009fe: ec0080e7     	jalr	-0x140(ra) <__rust_alloc_zeroed>
80200a02: 60a6         	ld	ra, 0x48(sp)
; /Users/lewis/.rustup/toolchains/stable-aarch64-apple-darwin/lib/rustlib/src/rust/library/alloc/src/alloc.rs:181
80200a04: 6161         	addi	sp, sp, 0x50
80200a06: 8082         	ret

0000000080200a08 <alloc::alloc::alloc::h14b7c24fa74a8f12>:
; alloc::alloc::alloc::h14b7c24fa74a8f12():
; /Users/lewis/.rustup/toolchains/stable-aarch64-apple-darwin/lib/rustlib/src/rust/library/alloc/src/alloc.rs:93
80200a08: 715d         	addi	sp, sp, -0x50
80200a0a: e486         	sd	ra, 0x48(sp)
80200a0c: e42a         	sd	a0, 0x8(sp)
80200a0e: e82e         	sd	a1, 0x10(sp)

0000000080200a10 <.Lpcrel_hi3>:
; .Lpcrel_hi3():
; /Users/lewis/.rustup/toolchains/stable-aarch64-apple-darwin/lib/rustlib/src/rust/library/core/src/ptr/mod.rs:1802
80200a10: 00a07517     	auipc	a0, 0xa07
80200a14: 71150513     	addi	a0, a0, 0x711
80200a18: f02a         	sd	a0, 0x20(sp)
; /Users/lewis/.rustup/toolchains/stable-aarch64-apple-darwin/lib/rustlib/src/rust/library/core/src/ub_checks.rs:76
80200a1a: a009         	j	0x80200a1c <.Lpcrel_hi4>

0000000080200a1c <.Lpcrel_hi4>:
; .Lpcrel_hi4():
; /Users/lewis/.rustup/toolchains/stable-aarch64-apple-darwin/lib/rustlib/src/rust/library/core/src/ub_checks.rs:77
80200a1c: 00a07517     	auipc	a0, 0xa07
80200a20: 70550513     	addi	a0, a0, 0x705
80200a24: 4585         	li	a1, 0x1
80200a26: 00001097     	auipc	ra, 0x1
80200a2a: 2ce080e7     	jalr	0x2ce(ra) <core::ptr::read_volatile::precondition_check::h15a8d4728ff45ab8>
; /Users/lewis/.rustup/toolchains/stable-aarch64-apple-darwin/lib/rustlib/src/rust/library/core/src/ub_checks.rs:76
80200a2e: a009         	j	0x80200a30 <.Lpcrel_hi5>

0000000080200a30 <.Lpcrel_hi5>:
; .Lpcrel_hi5():
; /Users/lewis/.rustup/toolchains/stable-aarch64-apple-darwin/lib/rustlib/src/rust/library/core/src/ptr/mod.rs:1813
80200a30: 00a07517     	auipc	a0, 0xa07
80200a34: 6f150513     	addi	a0, a0, 0x6f1
80200a38: 00054503     	lbu	a0, 0x0(a0)
80200a3c: 02a107a3     	sb	a0, 0x2f(sp)
80200a40: 002c         	addi	a1, sp, 0x8
; /Users/lewis/.rustup/toolchains/stable-aarch64-apple-darwin/lib/rustlib/src/rust/library/alloc/src/alloc.rs:99
80200a42: f82e         	sd	a1, 0x30(sp)
; /Users/lewis/.rustup/toolchains/stable-aarch64-apple-darwin/lib/rustlib/src/rust/library/core/src/alloc/layout.rs:151
80200a44: 6542         	ld	a0, 0x10(sp)
; /Users/lewis/.rustup/toolchains/stable-aarch64-apple-darwin/lib/rustlib/src/rust/library/alloc/src/alloc.rs:99
80200a46: fc2e         	sd	a1, 0x38(sp)
; /Users/lewis/.rustup/toolchains/stable-aarch64-apple-darwin/lib/rustlib/src/rust/library/core/src/alloc/layout.rs:164
80200a48: 65a2         	ld	a1, 0x8(sp)
80200a4a: e0ae         	sd	a1, 0x40(sp)
; /Users/lewis/.rustup/toolchains/stable-aarch64-apple-darwin/lib/rustlib/src/rust/library/core/src/ptr/alignment.rs:95
80200a4c: ec2e         	sd	a1, 0x18(sp)
80200a4e: 65e2         	ld	a1, 0x18(sp)
; /Users/lewis/.rustup/toolchains/stable-aarch64-apple-darwin/lib/rustlib/src/rust/library/alloc/src/alloc.rs:99
80200a50: 00000097     	auipc	ra, 0x0
80200a54: dc0080e7     	jalr	-0x240(ra) <__rust_alloc>
80200a58: 60a6         	ld	ra, 0x48(sp)
; /Users/lewis/.rustup/toolchains/stable-aarch64-apple-darwin/lib/rustlib/src/rust/library/alloc/src/alloc.rs:101
80200a5a: 6161         	addi	sp, sp, 0x50
80200a5c: 8082         	ret

0000000080200a5e <alloc::alloc::Global::alloc_impl::h85b1ea9827698f0b>:
; alloc::alloc::Global::alloc_impl::h85b1ea9827698f0b():
; /Users/lewis/.rustup/toolchains/stable-aarch64-apple-darwin/lib/rustlib/src/rust/library/alloc/src/alloc.rs:187
80200a5e: 7129         	addi	sp, sp, -0x140
80200a60: fe06         	sd	ra, 0x138(sp)
80200a62: 8736         	mv	a4, a3
80200a64: f03a         	sd	a4, 0x20(sp)
80200a66: f82e         	sd	a1, 0x30(sp)
80200a68: fc32         	sd	a2, 0x38(sp)
80200a6a: e52a         	sd	a0, 0x88(sp)
80200a6c: 08d10b23     	sb	a3, 0x96(sp)
80200a70: 4501         	li	a0, 0x0
; /Users/lewis/.rustup/toolchains/stable-aarch64-apple-darwin/lib/rustlib/src/rust/library/core/src/ptr/non_null.rs:1438
80200a72: ed2a         	sd	a0, 0x98(sp)
; /Users/lewis/.rustup/toolchains/stable-aarch64-apple-darwin/lib/rustlib/src/rust/library/core/src/ptr/mod.rs:997
80200a74: f12a         	sd	a0, 0xa0(sp)
; /Users/lewis/.rustup/toolchains/stable-aarch64-apple-darwin/lib/rustlib/src/rust/library/core/src/ptr/metadata.rs:127
80200a76: f52a         	sd	a0, 0xa8(sp)
80200a78: 1808         	addi	a0, sp, 0x30
; /Users/lewis/.rustup/toolchains/stable-aarch64-apple-darwin/lib/rustlib/src/rust/library/alloc/src/alloc.rs:188
80200a7a: fd2a         	sd	a0, 0xb8(sp)
; /Users/lewis/.rustup/toolchains/stable-aarch64-apple-darwin/lib/rustlib/src/rust/library/core/src/alloc/layout.rs:151
80200a7c: 7562         	ld	a0, 0x38(sp)
80200a7e: f42a         	sd	a0, 0x28(sp)
80200a80: e1aa         	sd	a0, 0xc0(sp)
; /Users/lewis/.rustup/toolchains/stable-aarch64-apple-darwin/lib/rustlib/src/rust/library/alloc/src/alloc.rs:188
80200a82: ed01         	bnez	a0, 0x80200a9a <alloc::alloc::Global::alloc_impl::h85b1ea9827698f0b+0x3c>
80200a84: a009         	j	0x80200a86 <alloc::alloc::Global::alloc_impl::h85b1ea9827698f0b+0x28>
80200a86: 1808         	addi	a0, sp, 0x30
; /Users/lewis/.rustup/toolchains/stable-aarch64-apple-darwin/lib/rustlib/src/rust/library/alloc/src/alloc.rs:189
80200a88: e5aa         	sd	a0, 0xc8(sp)
; /Users/lewis/.rustup/toolchains/stable-aarch64-apple-darwin/lib/rustlib/src/rust/library/core/src/alloc/layout.rs:164
80200a8a: 7542         	ld	a0, 0x30(sp)
80200a8c: e9aa         	sd	a0, 0xd0(sp)
; /Users/lewis/.rustup/toolchains/stable-aarch64-apple-darwin/lib/rustlib/src/rust/library/core/src/ptr/alignment.rs:95
80200a8e: f8aa         	sd	a0, 0x70(sp)
80200a90: 7546         	ld	a0, 0x70(sp)
80200a92: ec2a         	sd	a0, 0x18(sp)
80200a94: edaa         	sd	a0, 0xd8(sp)
; /Users/lewis/.rustup/toolchains/stable-aarch64-apple-darwin/lib/rustlib/src/rust/library/core/src/ptr/mod.rs:700
80200a96: f1aa         	sd	a0, 0xe0(sp)
; /Users/lewis/.rustup/toolchains/stable-aarch64-apple-darwin/lib/rustlib/src/rust/library/core/src/ub_checks.rs:76
80200a98: a029         	j	0x80200aa2 <alloc::alloc::Global::alloc_impl::h85b1ea9827698f0b+0x44>
80200a9a: 7502         	ld	a0, 0x20(sp)
; /Users/lewis/.rustup/toolchains/stable-aarch64-apple-darwin/lib/rustlib/src/rust/library/alloc/src/alloc.rs:192
80200a9c: 8905         	andi	a0, a0, 0x1
80200a9e: e531         	bnez	a0, 0x80200aea <alloc::alloc::Global::alloc_impl::h85b1ea9827698f0b+0x8c>
80200aa0: a82d         	j	0x80200ada <alloc::alloc::Global::alloc_impl::h85b1ea9827698f0b+0x7c>
80200aa2: 6562         	ld	a0, 0x18(sp)
; /Users/lewis/.rustup/toolchains/stable-aarch64-apple-darwin/lib/rustlib/src/rust/library/core/src/ub_checks.rs:77
80200aa4: 00000097     	auipc	ra, 0x0
80200aa8: 904080e7     	jalr	-0x6fc(ra) <core::ptr::non_null::NonNull$LT$T$GT$::new_unchecked::precondition_check::he5ce373b39dd0c33>
80200aac: 6562         	ld	a0, 0x18(sp)
; /Users/lewis/.rustup/toolchains/stable-aarch64-apple-darwin/lib/rustlib/src/rust/library/core/src/ptr/non_null.rs:203
80200aae: f5aa         	sd	a0, 0xe8(sp)
; /Users/lewis/.rustup/toolchains/stable-aarch64-apple-darwin/lib/rustlib/src/rust/library/core/src/ptr/non_null.rs:329
80200ab0: f9aa         	sd	a0, 0xf0(sp)
; /Users/lewis/.rustup/toolchains/stable-aarch64-apple-darwin/lib/rustlib/src/rust/library/core/src/ptr/metadata.rs:129
80200ab2: fcaa         	sd	a0, 0x78(sp)
80200ab4: 4501         	li	a0, 0x0
80200ab6: e12a         	sd	a0, 0x80(sp)
; /Users/lewis/.rustup/toolchains/stable-aarch64-apple-darwin/lib/rustlib/src/rust/library/core/src/ub_checks.rs:76
80200ab8: a009         	j	0x80200aba <alloc::alloc::Global::alloc_impl::h85b1ea9827698f0b+0x5c>
80200aba: 6562         	ld	a0, 0x18(sp)
; /Users/lewis/.rustup/toolchains/stable-aarch64-apple-darwin/lib/rustlib/src/rust/library/core/src/ub_checks.rs:77
80200abc: 00000097     	auipc	ra, 0x0
80200ac0: 8ec080e7     	jalr	-0x714(ra) <core::ptr::non_null::NonNull$LT$T$GT$::new_unchecked::precondition_check::he5ce373b39dd0c33>
; /Users/lewis/.rustup/toolchains/stable-aarch64-apple-darwin/lib/rustlib/src/rust/library/core/src/ub_checks.rs:76
80200ac4: a009         	j	0x80200ac6 <alloc::alloc::Global::alloc_impl::h85b1ea9827698f0b+0x68>
; /Users/lewis/.rustup/toolchains/stable-aarch64-apple-darwin/lib/rustlib/src/rust/library/core/src/ptr/non_null.rs:203
80200ac6: 75e6         	ld	a1, 0x78(sp)
80200ac8: 650a         	ld	a0, 0x80(sp)
; /Users/lewis/.rustup/toolchains/stable-aarch64-apple-darwin/lib/rustlib/src/rust/library/alloc/src/alloc.rs:189
80200aca: e0ae         	sd	a1, 0x40(sp)
80200acc: e4aa         	sd	a0, 0x48(sp)
80200ace: a009         	j	0x80200ad0 <alloc::alloc::Global::alloc_impl::h85b1ea9827698f0b+0x72>
; /Users/lewis/.rustup/toolchains/stable-aarch64-apple-darwin/lib/rustlib/src/rust/library/alloc/src/alloc.rs:197
80200ad0: 6506         	ld	a0, 0x40(sp)
80200ad2: 65a6         	ld	a1, 0x48(sp)
80200ad4: 70f2         	ld	ra, 0x138(sp)
80200ad6: 6131         	addi	sp, sp, 0x140
80200ad8: 8082         	ret
; /Users/lewis/.rustup/toolchains/stable-aarch64-apple-darwin/lib/rustlib/src/rust/library/alloc/src/alloc.rs:192
80200ada: 7542         	ld	a0, 0x30(sp)
80200adc: 75e2         	ld	a1, 0x38(sp)
80200ade: 00000097     	auipc	ra, 0x0
80200ae2: f2a080e7     	jalr	-0xd6(ra) <alloc::alloc::alloc::h14b7c24fa74a8f12>
80200ae6: e8aa         	sd	a0, 0x50(sp)
80200ae8: a809         	j	0x80200afa <alloc::alloc::Global::alloc_impl::h85b1ea9827698f0b+0x9c>
80200aea: 7542         	ld	a0, 0x30(sp)
80200aec: 75e2         	ld	a1, 0x38(sp)
80200aee: 00000097     	auipc	ra, 0x0
80200af2: ec4080e7     	jalr	-0x13c(ra) <alloc::alloc::alloc_zeroed::h7fb6209031b876a4>
80200af6: e8aa         	sd	a0, 0x50(sp)
80200af8: a009         	j	0x80200afa <alloc::alloc::Global::alloc_impl::h85b1ea9827698f0b+0x9c>
; /Users/lewis/.rustup/toolchains/stable-aarch64-apple-darwin/lib/rustlib/src/rust/library/alloc/src/alloc.rs:193
80200afa: 6546         	ld	a0, 0x50(sp)
80200afc: e82a         	sd	a0, 0x10(sp)
80200afe: fdaa         	sd	a0, 0xf8(sp)
; /Users/lewis/.rustup/toolchains/stable-aarch64-apple-darwin/lib/rustlib/src/rust/library/core/src/ptr/mut_ptr.rs:102
80200b00: e22a         	sd	a0, 0x100(sp)
; /Users/lewis/.rustup/toolchains/stable-aarch64-apple-darwin/lib/rustlib/src/rust/library/core/src/ptr/non_null.rs:225
80200b02: ed11         	bnez	a0, 0x80200b1e <.Lpcrel_hi6+0x12>
80200b04: a009         	j	0x80200b06 <alloc::alloc::Global::alloc_impl::h85b1ea9827698f0b+0xa8>
80200b06: 4501         	li	a0, 0x0
; /Users/lewis/.rustup/toolchains/stable-aarch64-apple-darwin/lib/rustlib/src/rust/library/core/src/ptr/non_null.rs:229
80200b08: f4aa         	sd	a0, 0x68(sp)
; /Users/lewis/.rustup/toolchains/stable-aarch64-apple-darwin/lib/rustlib/src/rust/library/core/src/option.rs:1249
80200b0a: f0aa         	sd	a0, 0x60(sp)

0000000080200b0c <.Lpcrel_hi6>:
; .Lpcrel_hi6():
; /Users/lewis/.rustup/toolchains/stable-aarch64-apple-darwin/lib/rustlib/src/rust/library/core/src/result.rs:2010
80200b0c: 00005517     	auipc	a0, 0x5
80200b10: 69450513     	addi	a0, a0, 0x694
80200b14: 610c         	ld	a1, 0x0(a0)
80200b16: 6508         	ld	a0, 0x8(a0)
80200b18: e0ae         	sd	a1, 0x40(sp)
80200b1a: e4aa         	sd	a0, 0x48(sp)
; /Users/lewis/.rustup/toolchains/stable-aarch64-apple-darwin/lib/rustlib/src/rust/library/alloc/src/alloc.rs:197
80200b1c: bf55         	j	0x80200ad0 <alloc::alloc::Global::alloc_impl::h85b1ea9827698f0b+0x72>
; /Users/lewis/.rustup/toolchains/stable-aarch64-apple-darwin/lib/rustlib/src/rust/library/core/src/ub_checks.rs:76
80200b1e: a009         	j	0x80200b20 <.Lpcrel_hi6+0x14>
80200b20: 6542         	ld	a0, 0x10(sp)
; /Users/lewis/.rustup/toolchains/stable-aarch64-apple-darwin/lib/rustlib/src/rust/library/core/src/ub_checks.rs:77
80200b22: 00000097     	auipc	ra, 0x0
80200b26: 886080e7     	jalr	-0x77a(ra) <core::ptr::non_null::NonNull$LT$T$GT$::new_unchecked::precondition_check::he5ce373b39dd0c33>
; /Users/lewis/.rustup/toolchains/stable-aarch64-apple-darwin/lib/rustlib/src/rust/library/core/src/ub_checks.rs:76
80200b2a: a009         	j	0x80200b2c <.Lpcrel_hi6+0x20>
80200b2c: 7522         	ld	a0, 0x28(sp)
80200b2e: 65c2         	ld	a1, 0x10(sp)
; /Users/lewis/.rustup/toolchains/stable-aarch64-apple-darwin/lib/rustlib/src/rust/library/core/src/ptr/non_null.rs:227
80200b30: f4ae         	sd	a1, 0x68(sp)
; /Users/lewis/.rustup/toolchains/stable-aarch64-apple-darwin/lib/rustlib/src/rust/library/core/src/option.rs:1248
80200b32: 75a6         	ld	a1, 0x68(sp)
80200b34: e62e         	sd	a1, 0x108(sp)
80200b36: f0ae         	sd	a1, 0x60(sp)
; /Users/lewis/.rustup/toolchains/stable-aarch64-apple-darwin/lib/rustlib/src/rust/library/core/src/result.rs:1998
80200b38: 7586         	ld	a1, 0x60(sp)
80200b3a: ea2e         	sd	a1, 0x110(sp)
80200b3c: ecae         	sd	a1, 0x58(sp)
; /Users/lewis/.rustup/toolchains/stable-aarch64-apple-darwin/lib/rustlib/src/rust/library/alloc/src/alloc.rs:193
80200b3e: 65e6         	ld	a1, 0x58(sp)
80200b40: e42e         	sd	a1, 0x8(sp)
80200b42: ee2e         	sd	a1, 0x118(sp)
; /Users/lewis/.rustup/toolchains/stable-aarch64-apple-darwin/lib/rustlib/src/rust/library/core/src/ptr/non_null.rs:329
80200b44: f22e         	sd	a1, 0x120(sp)
; /Users/lewis/.rustup/toolchains/stable-aarch64-apple-darwin/lib/rustlib/src/rust/library/core/src/ptr/metadata.rs:129
80200b46: f62e         	sd	a1, 0x128(sp)
80200b48: fa2a         	sd	a0, 0x130(sp)
; /Users/lewis/.rustup/toolchains/stable-aarch64-apple-darwin/lib/rustlib/src/rust/library/core/src/ub_checks.rs:76
80200b4a: a009         	j	0x80200b4c <.Lpcrel_hi6+0x40>
80200b4c: 6522         	ld	a0, 0x8(sp)
; /Users/lewis/.rustup/toolchains/stable-aarch64-apple-darwin/lib/rustlib/src/rust/library/core/src/ub_checks.rs:77
80200b4e: 00000097     	auipc	ra, 0x0
80200b52: 85a080e7     	jalr	-0x7a6(ra) <core::ptr::non_null::NonNull$LT$T$GT$::new_unchecked::precondition_check::he5ce373b39dd0c33>
; /Users/lewis/.rustup/toolchains/stable-aarch64-apple-darwin/lib/rustlib/src/rust/library/core/src/ub_checks.rs:76
80200b56: a009         	j	0x80200b58 <.Lpcrel_hi6+0x4c>
80200b58: 7522         	ld	a0, 0x28(sp)
80200b5a: 65a2         	ld	a1, 0x8(sp)
; /Users/lewis/.rustup/toolchains/stable-aarch64-apple-darwin/lib/rustlib/src/rust/library/alloc/src/alloc.rs:194
80200b5c: e0ae         	sd	a1, 0x40(sp)
80200b5e: e4aa         	sd	a0, 0x48(sp)
; /Users/lewis/.rustup/toolchains/stable-aarch64-apple-darwin/lib/rustlib/src/rust/library/alloc/src/alloc.rs:195
80200b60: bf85         	j	0x80200ad0 <alloc::alloc::Global::alloc_impl::h85b1ea9827698f0b+0x72>

0000000080200b62 <alloc::alloc::Global::grow_impl::h27be49d41481273f>:
; alloc::alloc::Global::grow_impl::h27be49d41481273f():
; /Users/lewis/.rustup/toolchains/stable-aarch64-apple-darwin/lib/rustlib/src/rust/library/alloc/src/alloc.rs:202
80200b62: d6010113     	addi	sp, sp, -0x2a0
80200b66: 28113c23     	sd	ra, 0x298(sp)
80200b6a: e4ae         	sd	a1, 0x48(sp)
80200b6c: e8aa         	sd	a0, 0x50(sp)
80200b6e: 88c2         	mv	a7, a6
80200b70: ecc6         	sd	a7, 0x58(sp)
80200b72: f0b2         	sd	a2, 0x60(sp)
80200b74: f4b6         	sd	a3, 0x68(sp)
80200b76: f8ba         	sd	a4, 0x70(sp)
80200b78: fcbe         	sd	a5, 0x78(sp)
80200b7a: eaaa         	sd	a0, 0x150(sp)
80200b7c: eeae         	sd	a1, 0x158(sp)
80200b7e: 170102a3     	sb	a6, 0x165(sp)

0000000080200b82 <.Lpcrel_hi7>:
; .Lpcrel_hi7():
; /Users/lewis/.rustup/toolchains/stable-aarch64-apple-darwin/lib/rustlib/src/rust/library/core/src/fmt/mod.rs:337
80200b82: 00006517     	auipc	a0, 0x6
80200b86: 9f650513     	addi	a0, a0, -0x60a
80200b8a: f6aa         	sd	a0, 0x168(sp)
80200b8c: 4501         	li	a0, 0x0
; /Users/lewis/.rustup/toolchains/stable-aarch64-apple-darwin/lib/rustlib/src/rust/library/core/src/ptr/mut_ptr.rs:1474
80200b8e: 16a10d23     	sb	a0, 0x17a(sp)
; /Users/lewis/.rustup/toolchains/stable-aarch64-apple-darwin/lib/rustlib/src/rust/library/core/src/intrinsics.rs:3532
80200b92: 16a10da3     	sb	a0, 0x17b(sp)
80200b96: 1088         	addi	a0, sp, 0x60
; /Users/lewis/.rustup/toolchains/stable-aarch64-apple-darwin/lib/rustlib/src/rust/library/alloc/src/alloc.rs:214
80200b98: e32a         	sd	a0, 0x180(sp)
; /Users/lewis/.rustup/toolchains/stable-aarch64-apple-darwin/lib/rustlib/src/rust/library/core/src/alloc/layout.rs:151
80200b9a: 7526         	ld	a0, 0x68(sp)
80200b9c: e92a         	sd	a0, 0x90(sp)
; /Users/lewis/.rustup/toolchains/stable-aarch64-apple-darwin/lib/rustlib/src/rust/library/alloc/src/alloc.rs:214
80200b9e: 654a         	ld	a0, 0x90(sp)
80200ba0: ed11         	bnez	a0, 0x80200bbc <.Lpcrel_hi7+0x3a>
80200ba2: a009         	j	0x80200ba4 <.Lpcrel_hi7+0x22>
80200ba4: 6546         	ld	a0, 0x50(sp)
80200ba6: 66e6         	ld	a3, 0x58(sp)
; /Users/lewis/.rustup/toolchains/stable-aarch64-apple-darwin/lib/rustlib/src/rust/library/alloc/src/alloc.rs:215
80200ba8: 75c6         	ld	a1, 0x70(sp)
80200baa: 7666         	ld	a2, 0x78(sp)
80200bac: 8a85         	andi	a3, a3, 0x1
80200bae: 00000097     	auipc	ra, 0x0
80200bb2: eb0080e7     	jalr	-0x150(ra) <alloc::alloc::Global::alloc_impl::h85b1ea9827698f0b>
80200bb6: e12a         	sd	a0, 0x80(sp)
80200bb8: e52e         	sd	a1, 0x88(sp)
80200bba: a025         	j	0x80200be2 <.Lpcrel_hi7+0x60>
80200bbc: 0908         	addi	a0, sp, 0x90
; /Users/lewis/.rustup/toolchains/stable-aarch64-apple-darwin/lib/rustlib/src/rust/library/alloc/src/alloc.rs:219
80200bbe: e72a         	sd	a0, 0x188(sp)
80200bc0: 1088         	addi	a0, sp, 0x60
80200bc2: eb2a         	sd	a0, 0x190(sp)
; /Users/lewis/.rustup/toolchains/stable-aarch64-apple-darwin/lib/rustlib/src/rust/library/core/src/alloc/layout.rs:164
80200bc4: 7506         	ld	a0, 0x60(sp)
80200bc6: fc2a         	sd	a0, 0x38(sp)
80200bc8: ef2a         	sd	a0, 0x198(sp)
; /Users/lewis/.rustup/toolchains/stable-aarch64-apple-darwin/lib/rustlib/src/rust/library/core/src/ptr/alignment.rs:95
80200bca: e62a         	sd	a0, 0x108(sp)
80200bcc: 6532         	ld	a0, 0x108(sp)
80200bce: e0aa         	sd	a0, 0x40(sp)
80200bd0: 188c         	addi	a1, sp, 0x70
; /Users/lewis/.rustup/toolchains/stable-aarch64-apple-darwin/lib/rustlib/src/rust/library/alloc/src/alloc.rs:219
80200bd2: f32e         	sd	a1, 0x1a0(sp)
; /Users/lewis/.rustup/toolchains/stable-aarch64-apple-darwin/lib/rustlib/src/rust/library/core/src/alloc/layout.rs:164
80200bd4: 75c6         	ld	a1, 0x70(sp)
80200bd6: f72e         	sd	a1, 0x1a8(sp)
; /Users/lewis/.rustup/toolchains/stable-aarch64-apple-darwin/lib/rustlib/src/rust/library/core/src/ptr/alignment.rs:95
80200bd8: ea2e         	sd	a1, 0x110(sp)
80200bda: 65d2         	ld	a1, 0x110(sp)
; /Users/lewis/.rustup/toolchains/stable-aarch64-apple-darwin/lib/rustlib/src/rust/library/alloc/src/alloc.rs:219
80200bdc: 02b50863     	beq	a0, a1, 0x80200c0c <.Lpcrel_hi7+0x8a>
80200be0: a801         	j	0x80200bf0 <.Lpcrel_hi7+0x6e>
; /Users/lewis/.rustup/toolchains/stable-aarch64-apple-darwin/lib/rustlib/src/rust/library/alloc/src/alloc.rs:245
80200be2: 650a         	ld	a0, 0x80(sp)
80200be4: 65aa         	ld	a1, 0x88(sp)
80200be6: 29813083     	ld	ra, 0x298(sp)
80200bea: 2a010113     	addi	sp, sp, 0x2a0
80200bee: 8082         	ret
80200bf0: 6546         	ld	a0, 0x50(sp)
80200bf2: 66e6         	ld	a3, 0x58(sp)
; /Users/lewis/.rustup/toolchains/stable-aarch64-apple-darwin/lib/rustlib/src/rust/library/alloc/src/alloc.rs:239
80200bf4: 75c6         	ld	a1, 0x70(sp)
80200bf6: 7666         	ld	a2, 0x78(sp)
80200bf8: 8a85         	andi	a3, a3, 0x1
80200bfa: 00000097     	auipc	ra, 0x0
80200bfe: e64080e7     	jalr	-0x19c(ra) <alloc::alloc::Global::alloc_impl::h85b1ea9827698f0b>
80200c02: f5aa         	sd	a0, 0xe8(sp)
80200c04: f9ae         	sd	a1, 0xf0(sp)
; /Users/lewis/.rustup/toolchains/stable-aarch64-apple-darwin/lib/rustlib/src/rust/library/core/src/result.rs:1997
80200c06: 752e         	ld	a0, 0xe8(sp)
80200c08: e50d         	bnez	a0, 0x80200c32 <.Lpcrel_hi7+0xb0>
80200c0a: a81d         	j	0x80200c40 <.Lpcrel_hi8>
80200c0c: 1888         	addi	a0, sp, 0x70
; /Users/lewis/.rustup/toolchains/stable-aarch64-apple-darwin/lib/rustlib/src/rust/library/alloc/src/alloc.rs:220
80200c0e: 20a13423     	sd	a0, 0x208(sp)
; /Users/lewis/.rustup/toolchains/stable-aarch64-apple-darwin/lib/rustlib/src/rust/library/core/src/alloc/layout.rs:151
80200c12: 7566         	ld	a0, 0x78(sp)
80200c14: f42a         	sd	a0, 0x28(sp)
80200c16: 20a13823     	sd	a0, 0x210(sp)
80200c1a: 108c         	addi	a1, sp, 0x60
; /Users/lewis/.rustup/toolchains/stable-aarch64-apple-darwin/lib/rustlib/src/rust/library/alloc/src/alloc.rs:223
80200c1c: 20b13c23     	sd	a1, 0x218(sp)
80200c20: 65ca         	ld	a1, 0x90(sp)
80200c22: 00b53533     	sltu	a0, a0, a1
80200c26: 00154513     	xori	a0, a0, 0x1
80200c2a: f82a         	sd	a0, 0x30(sp)
80200c2c: 22a103a3     	sb	a0, 0x227(sp)
; /Users/lewis/.rustup/toolchains/stable-aarch64-apple-darwin/lib/rustlib/src/rust/library/core/src/ub_checks.rs:76
80200c30: a845         	j	0x80200ce0 <.Lpcrel_hi9+0x70>
; /Users/lewis/.rustup/toolchains/stable-aarch64-apple-darwin/lib/rustlib/src/rust/library/core/src/result.rs:1998
80200c32: 75ae         	ld	a1, 0xe8(sp)
80200c34: 754e         	ld	a0, 0xf0(sp)
80200c36: fb2e         	sd	a1, 0x1b0(sp)
80200c38: ff2a         	sd	a0, 0x1b8(sp)
80200c3a: edae         	sd	a1, 0xd8(sp)
80200c3c: f1aa         	sd	a0, 0xe0(sp)
80200c3e: a811         	j	0x80200c52 <.Lpcrel_hi8+0x12>

0000000080200c40 <.Lpcrel_hi8>:
; .Lpcrel_hi8():
; /Users/lewis/.rustup/toolchains/stable-aarch64-apple-darwin/lib/rustlib/src/rust/library/core/src/result.rs:1999
80200c40: 00005517     	auipc	a0, 0x5
80200c44: 56050513     	addi	a0, a0, 0x560
80200c48: 610c         	ld	a1, 0x0(a0)
80200c4a: 6508         	ld	a0, 0x8(a0)
80200c4c: edae         	sd	a1, 0xd8(sp)
80200c4e: f1aa         	sd	a0, 0xe0(sp)
80200c50: a009         	j	0x80200c52 <.Lpcrel_hi8+0x12>
; /Users/lewis/.rustup/toolchains/stable-aarch64-apple-darwin/lib/rustlib/src/rust/library/alloc/src/alloc.rs:239
80200c52: 656e         	ld	a0, 0xd8(sp)
80200c54: cd11         	beqz	a0, 0x80200c70 <.Lpcrel_hi9>
80200c56: a009         	j	0x80200c58 <.Lpcrel_hi8+0x18>
80200c58: 65a6         	ld	a1, 0x48(sp)
; /Users/lewis/.rustup/toolchains/stable-aarch64-apple-darwin/lib/rustlib/src/rust/library/alloc/src/alloc.rs:239
80200c5a: 656e         	ld	a0, 0xd8(sp)
80200c5c: ec2a         	sd	a0, 0x18(sp)
80200c5e: 760e         	ld	a2, 0xe0(sp)
80200c60: f032         	sd	a2, 0x20(sp)
80200c62: e3aa         	sd	a0, 0x1c0(sp)
80200c64: e7b2         	sd	a2, 0x1c8(sp)
; /Users/lewis/.rustup/toolchains/stable-aarch64-apple-darwin/lib/rustlib/src/rust/library/core/src/ptr/non_null.rs:329
80200c66: ebae         	sd	a1, 0x1d0(sp)
80200c68: efae         	sd	a1, 0x1d8(sp)
; /Users/lewis/.rustup/toolchains/stable-aarch64-apple-darwin/lib/rustlib/src/rust/library/core/src/ptr/non_null.rs:427
80200c6a: f3aa         	sd	a0, 0x1e0(sp)
; /Users/lewis/.rustup/toolchains/stable-aarch64-apple-darwin/lib/rustlib/src/rust/library/core/src/ptr/non_null.rs:329
80200c6c: f7aa         	sd	a0, 0x1e8(sp)
; /Users/lewis/.rustup/toolchains/stable-aarch64-apple-darwin/lib/rustlib/src/rust/library/core/src/ub_checks.rs:76
80200c6e: a811         	j	0x80200c82 <.Lpcrel_hi9+0x12>

0000000080200c70 <.Lpcrel_hi9>:
; .Lpcrel_hi9():
; /Users/lewis/.rustup/toolchains/stable-aarch64-apple-darwin/lib/rustlib/src/rust/library/core/src/result.rs:2010
80200c70: 00005517     	auipc	a0, 0x5
80200c74: 53050513     	addi	a0, a0, 0x530
80200c78: 610c         	ld	a1, 0x0(a0)
80200c7a: 6508         	ld	a0, 0x8(a0)
80200c7c: e12e         	sd	a1, 0x80(sp)
80200c7e: e52a         	sd	a0, 0x88(sp)
80200c80: b78d         	j	0x80200be2 <.Lpcrel_hi7+0x60>
80200c82: 65e2         	ld	a1, 0x18(sp)
80200c84: 6526         	ld	a0, 0x48(sp)
; /Users/lewis/.rustup/toolchains/stable-aarch64-apple-darwin/lib/rustlib/src/rust/library/core/src/ub_checks.rs:77
80200c86: 674a         	ld	a4, 0x90(sp)
80200c88: 4685         	li	a3, 0x1
80200c8a: 8636         	mv	a2, a3
80200c8c: 00000097     	auipc	ra, 0x0
80200c90: 2ea080e7     	jalr	0x2ea(ra) <core::intrinsics::copy_nonoverlapping::precondition_check::h6f1ba6038eff809a>
; /Users/lewis/.rustup/toolchains/stable-aarch64-apple-darwin/lib/rustlib/src/rust/library/core/src/ub_checks.rs:76
80200c94: a009         	j	0x80200c96 <.Lpcrel_hi9+0x26>
80200c96: 65a6         	ld	a1, 0x48(sp)
80200c98: 6562         	ld	a0, 0x18(sp)
; /Users/lewis/.rustup/toolchains/stable-aarch64-apple-darwin/lib/rustlib/src/rust/library/core/src/intrinsics.rs:3375
80200c9a: 664a         	ld	a2, 0x90(sp)
80200c9c: 00005097     	auipc	ra, 0x5
80200ca0: 98a080e7     	jalr	-0x676(ra) <memcpy>
; /Users/lewis/.rustup/toolchains/stable-aarch64-apple-darwin/lib/rustlib/src/rust/library/alloc/src/alloc.rs:241
80200ca4: 7586         	ld	a1, 0x60(sp)
80200ca6: 7526         	ld	a0, 0x68(sp)
80200ca8: fdae         	sd	a1, 0xf8(sp)
80200caa: e22a         	sd	a0, 0x100(sp)
80200cac: 19a8         	addi	a0, sp, 0xf8
; /Users/lewis/.rustup/toolchains/stable-aarch64-apple-darwin/lib/rustlib/src/rust/library/alloc/src/alloc.rs:266
80200cae: fbaa         	sd	a0, 0x1f0(sp)
80200cb0: 654a         	ld	a0, 0x90(sp)
80200cb2: e519         	bnez	a0, 0x80200cc0 <.Lpcrel_hi9+0x50>
80200cb4: a009         	j	0x80200cb6 <.Lpcrel_hi9+0x46>
80200cb6: 7502         	ld	a0, 0x20(sp)
80200cb8: 65e2         	ld	a1, 0x18(sp)
; /Users/lewis/.rustup/toolchains/stable-aarch64-apple-darwin/lib/rustlib/src/rust/library/alloc/src/alloc.rs:242
80200cba: e12e         	sd	a1, 0x80(sp)
80200cbc: e52a         	sd	a0, 0x88(sp)
; /Users/lewis/.rustup/toolchains/stable-aarch64-apple-darwin/lib/rustlib/src/rust/library/alloc/src/alloc.rs:243
80200cbe: b715         	j	0x80200be2 <.Lpcrel_hi7+0x60>
80200cc0: 6606         	ld	a2, 0x40(sp)
80200cc2: 6526         	ld	a0, 0x48(sp)
; /Users/lewis/.rustup/toolchains/stable-aarch64-apple-darwin/lib/rustlib/src/rust/library/alloc/src/alloc.rs:269
80200cc4: 7686         	ld	a3, 0x60(sp)
80200cc6: 75a6         	ld	a1, 0x68(sp)
80200cc8: e2b6         	sd	a3, 0x140(sp)
80200cca: e6ae         	sd	a1, 0x148(sp)
80200ccc: 028c         	addi	a1, sp, 0x140
; /Users/lewis/.rustup/toolchains/stable-aarch64-apple-darwin/lib/rustlib/src/rust/library/alloc/src/alloc.rs:119
80200cce: ffae         	sd	a1, 0x1f8(sp)
80200cd0: 20b13023     	sd	a1, 0x200(sp)
80200cd4: 65ca         	ld	a1, 0x90(sp)
80200cd6: 00000097     	auipc	ra, 0x0
80200cda: b66080e7     	jalr	-0x49a(ra) <__rust_dealloc>
; /Users/lewis/.rustup/toolchains/stable-aarch64-apple-darwin/lib/rustlib/src/rust/library/alloc/src/alloc.rs:266
80200cde: bfe1         	j	0x80200cb6 <.Lpcrel_hi9+0x46>
80200ce0: 7542         	ld	a0, 0x30(sp)
; /Users/lewis/.rustup/toolchains/stable-aarch64-apple-darwin/lib/rustlib/src/rust/library/core/src/ub_checks.rs:77
80200ce2: 8905         	andi	a0, a0, 0x1
80200ce4: 00003097     	auipc	ra, 0x3
80200ce8: f6e080e7     	jalr	-0x92(ra) <core::hint::assert_unchecked::precondition_check::ha977b864b150b540>
80200cec: 75e2         	ld	a1, 0x38(sp)
80200cee: 6526         	ld	a0, 0x48(sp)
80200cf0: 6606         	ld	a2, 0x40(sp)
80200cf2: 76a2         	ld	a3, 0x28(sp)
; /Users/lewis/.rustup/toolchains/stable-aarch64-apple-darwin/lib/rustlib/src/rust/library/alloc/src/alloc.rs:225
80200cf4: 22a13423     	sd	a0, 0x228(sp)
; /Users/lewis/.rustup/toolchains/stable-aarch64-apple-darwin/lib/rustlib/src/rust/library/core/src/ptr/non_null.rs:329
80200cf8: 22a13823     	sd	a0, 0x230(sp)
; /Users/lewis/.rustup/toolchains/stable-aarch64-apple-darwin/lib/rustlib/src/rust/library/alloc/src/alloc.rs:225
80200cfc: 7786         	ld	a5, 0x60(sp)
80200cfe: 7726         	ld	a4, 0x68(sp)
80200d00: f13e         	sd	a5, 0xa0(sp)
80200d02: f53a         	sd	a4, 0xa8(sp)
80200d04: 22d13c23     	sd	a3, 0x238(sp)
80200d08: 1118         	addi	a4, sp, 0xa0
; /Users/lewis/.rustup/toolchains/stable-aarch64-apple-darwin/lib/rustlib/src/rust/library/alloc/src/alloc.rs:139
80200d0a: 24e13023     	sd	a4, 0x240(sp)
80200d0e: 24e13423     	sd	a4, 0x248(sp)
; /Users/lewis/.rustup/toolchains/stable-aarch64-apple-darwin/lib/rustlib/src/rust/library/core/src/alloc/layout.rs:164
80200d12: 24b13823     	sd	a1, 0x250(sp)
; /Users/lewis/.rustup/toolchains/stable-aarch64-apple-darwin/lib/rustlib/src/rust/library/alloc/src/alloc.rs:139
80200d16: 65ca         	ld	a1, 0x90(sp)
80200d18: 00000097     	auipc	ra, 0x0
80200d1c: b60080e7     	jalr	-0x4a0(ra) <__rust_realloc>
80200d20: ed2a         	sd	a0, 0x98(sp)
; /Users/lewis/.rustup/toolchains/stable-aarch64-apple-darwin/lib/rustlib/src/rust/library/alloc/src/alloc.rs:226
80200d22: 656a         	ld	a0, 0x98(sp)
80200d24: 24a13c23     	sd	a0, 0x258(sp)
; /Users/lewis/.rustup/toolchains/stable-aarch64-apple-darwin/lib/rustlib/src/rust/library/core/src/ptr/mut_ptr.rs:102
80200d28: 656a         	ld	a0, 0x98(sp)
80200d2a: ee2a         	sd	a0, 0x118(sp)
; /Users/lewis/.rustup/toolchains/stable-aarch64-apple-darwin/lib/rustlib/src/rust/library/core/src/ptr/const_ptr.rs:54
80200d2c: 6572         	ld	a0, 0x118(sp)
80200d2e: 26a13023     	sd	a0, 0x260(sp)
; /Users/lewis/.rustup/toolchains/stable-aarch64-apple-darwin/lib/rustlib/src/rust/library/core/src/ptr/const_ptr.rs:147
80200d32: 656a         	ld	a0, 0x98(sp)
; /Users/lewis/.rustup/toolchains/stable-aarch64-apple-darwin/lib/rustlib/src/rust/library/core/src/ptr/non_null.rs:225
80200d34: e509         	bnez	a0, 0x80200d3e <.Lpcrel_hi9+0xce>
80200d36: a009         	j	0x80200d38 <.Lpcrel_hi9+0xc8>
80200d38: 4501         	li	a0, 0x0
; /Users/lewis/.rustup/toolchains/stable-aarch64-apple-darwin/lib/rustlib/src/rust/library/core/src/ptr/non_null.rs:229
80200d3a: e1aa         	sd	a0, 0xc0(sp)
; /Users/lewis/.rustup/toolchains/stable-aarch64-apple-darwin/lib/rustlib/src/rust/library/core/src/ptr/non_null.rs:225
80200d3c: a011         	j	0x80200d40 <.Lpcrel_hi9+0xd0>
; /Users/lewis/.rustup/toolchains/stable-aarch64-apple-darwin/lib/rustlib/src/rust/library/core/src/ub_checks.rs:76
80200d3e: a021         	j	0x80200d46 <.Lpcrel_hi9+0xd6>
; /Users/lewis/.rustup/toolchains/stable-aarch64-apple-darwin/lib/rustlib/src/rust/library/core/src/option.rs:1247
80200d40: 650e         	ld	a0, 0xc0(sp)
80200d42: c919         	beqz	a0, 0x80200d58 <.Lpcrel_hi9+0xe8>
80200d44: a829         	j	0x80200d5e <.Lpcrel_hi9+0xee>
; /Users/lewis/.rustup/toolchains/stable-aarch64-apple-darwin/lib/rustlib/src/rust/library/core/src/ptr/non_null.rs:201
80200d46: 656a         	ld	a0, 0x98(sp)
; /Users/lewis/.rustup/toolchains/stable-aarch64-apple-darwin/lib/rustlib/src/rust/library/core/src/ub_checks.rs:77
80200d48: fffff097     	auipc	ra, 0xfffff
80200d4c: 660080e7     	jalr	0x660(ra) <free_mem_start+0xff5f73a8>
; /Users/lewis/.rustup/toolchains/stable-aarch64-apple-darwin/lib/rustlib/src/rust/library/core/src/ub_checks.rs:76
80200d50: a009         	j	0x80200d52 <.Lpcrel_hi9+0xe2>
; /Users/lewis/.rustup/toolchains/stable-aarch64-apple-darwin/lib/rustlib/src/rust/library/core/src/ptr/non_null.rs:203
80200d52: 6572         	ld	a0, 0x118(sp)
; /Users/lewis/.rustup/toolchains/stable-aarch64-apple-darwin/lib/rustlib/src/rust/library/core/src/ptr/non_null.rs:227
80200d54: e1aa         	sd	a0, 0xc0(sp)
; /Users/lewis/.rustup/toolchains/stable-aarch64-apple-darwin/lib/rustlib/src/rust/library/core/src/ptr/non_null.rs:225
80200d56: b7ed         	j	0x80200d40 <.Lpcrel_hi9+0xd0>
80200d58: 4501         	li	a0, 0x0
; /Users/lewis/.rustup/toolchains/stable-aarch64-apple-darwin/lib/rustlib/src/rust/library/core/src/option.rs:1249
80200d5a: fd2a         	sd	a0, 0xb8(sp)
80200d5c: a031         	j	0x80200d68 <.Lpcrel_hi9+0xf8>
; /Users/lewis/.rustup/toolchains/stable-aarch64-apple-darwin/lib/rustlib/src/rust/library/core/src/option.rs:1248
80200d5e: 650e         	ld	a0, 0xc0(sp)
80200d60: 26a13423     	sd	a0, 0x268(sp)
80200d64: fd2a         	sd	a0, 0xb8(sp)
; /Users/lewis/.rustup/toolchains/stable-aarch64-apple-darwin/lib/rustlib/src/rust/library/core/src/option.rs:1251
80200d66: a009         	j	0x80200d68 <.Lpcrel_hi9+0xf8>
; /Users/lewis/.rustup/toolchains/stable-aarch64-apple-darwin/lib/rustlib/src/rust/library/core/src/result.rs:1997
80200d68: 756a         	ld	a0, 0xb8(sp)
80200d6a: cd11         	beqz	a0, 0x80200d86 <.Lpcrel_hi10>
80200d6c: a009         	j	0x80200d6e <.Lpcrel_hi9+0xfe>
80200d6e: 6566         	ld	a0, 0x58(sp)
; /Users/lewis/.rustup/toolchains/stable-aarch64-apple-darwin/lib/rustlib/src/rust/library/core/src/result.rs:1998
80200d70: 75ea         	ld	a1, 0xb8(sp)
80200d72: 26b13823     	sd	a1, 0x270(sp)
80200d76: f92e         	sd	a1, 0xb0(sp)
; /Users/lewis/.rustup/toolchains/stable-aarch64-apple-darwin/lib/rustlib/src/rust/library/alloc/src/alloc.rs:226
80200d78: 75ca         	ld	a1, 0xb0(sp)
80200d7a: e82e         	sd	a1, 0x10(sp)
80200d7c: 26b13c23     	sd	a1, 0x278(sp)
; /Users/lewis/.rustup/toolchains/stable-aarch64-apple-darwin/lib/rustlib/src/rust/library/alloc/src/alloc.rs:227
80200d80: 8905         	andi	a0, a0, 0x1
80200d82: e515         	bnez	a0, 0x80200dae <.Lpcrel_hi10+0x28>
80200d84: a811         	j	0x80200d98 <.Lpcrel_hi10+0x12>

0000000080200d86 <.Lpcrel_hi10>:
; .Lpcrel_hi10():
; /Users/lewis/.rustup/toolchains/stable-aarch64-apple-darwin/lib/rustlib/src/rust/library/core/src/result.rs:2010
80200d86: 00005517     	auipc	a0, 0x5
80200d8a: 41a50513     	addi	a0, a0, 0x41a
80200d8e: 610c         	ld	a1, 0x0(a0)
80200d90: 6508         	ld	a0, 0x8(a0)
80200d92: e12e         	sd	a1, 0x80(sp)
80200d94: e52a         	sd	a0, 0x88(sp)
80200d96: b5b1         	j	0x80200be2 <.Lpcrel_hi7+0x60>
80200d98: 7522         	ld	a0, 0x28(sp)
80200d9a: 65c2         	ld	a1, 0x10(sp)
; /Users/lewis/.rustup/toolchains/stable-aarch64-apple-darwin/lib/rustlib/src/rust/library/alloc/src/alloc.rs:230
80200d9c: e5ae         	sd	a1, 0xc8(sp)
80200d9e: e9aa         	sd	a0, 0xd0(sp)
; /Users/lewis/.rustup/toolchains/stable-aarch64-apple-darwin/lib/rustlib/src/rust/library/core/src/ptr/non_null.rs:329
80200da0: fe2e         	sd	a1, 0x138(sp)
80200da2: 75f2         	ld	a1, 0x138(sp)
80200da4: fa2e         	sd	a1, 0x130(sp)
; /Users/lewis/.rustup/toolchains/stable-aarch64-apple-darwin/lib/rustlib/src/rust/library/core/src/ptr/metadata.rs:129
80200da6: 75d2         	ld	a1, 0x130(sp)
80200da8: f22e         	sd	a1, 0x120(sp)
80200daa: f62a         	sd	a0, 0x128(sp)
; /Users/lewis/.rustup/toolchains/stable-aarch64-apple-darwin/lib/rustlib/src/rust/library/core/src/ub_checks.rs:76
80200dac: a889         	j	0x80200dfe <.Lpcrel_hi10+0x78>
80200dae: 7522         	ld	a0, 0x28(sp)
; /Users/lewis/.rustup/toolchains/stable-aarch64-apple-darwin/lib/rustlib/src/rust/library/alloc/src/alloc.rs:228
80200db0: 65ea         	ld	a1, 0x98(sp)
80200db2: 28b13023     	sd	a1, 0x280(sp)
; /Users/lewis/.rustup/toolchains/stable-aarch64-apple-darwin/lib/rustlib/src/rust/library/core/src/ptr/mut_ptr.rs:1005
80200db6: 65ea         	ld	a1, 0x98(sp)
80200db8: 664a         	ld	a2, 0x90(sp)
80200dba: 95b2         	add	a1, a1, a2
80200dbc: e02e         	sd	a1, 0x0(sp)
80200dbe: 28b13423     	sd	a1, 0x288(sp)
; /Users/lewis/.rustup/toolchains/stable-aarch64-apple-darwin/lib/rustlib/src/rust/library/alloc/src/alloc.rs:228
80200dc2: 65ca         	ld	a1, 0x90(sp)
80200dc4: 8d0d         	sub	a0, a0, a1
80200dc6: e42a         	sd	a0, 0x8(sp)
80200dc8: 28a13823     	sd	a0, 0x290(sp)
; /Users/lewis/.rustup/toolchains/stable-aarch64-apple-darwin/lib/rustlib/src/rust/library/core/src/ub_checks.rs:76
80200dcc: a009         	j	0x80200dce <.Lpcrel_hi10+0x48>
80200dce: 6502         	ld	a0, 0x0(sp)
80200dd0: 4585         	li	a1, 0x1
; /Users/lewis/.rustup/toolchains/stable-aarch64-apple-darwin/lib/rustlib/src/rust/library/core/src/ub_checks.rs:77
80200dd2: 00000097     	auipc	ra, 0x0
80200dd6: 0c2080e7     	jalr	0xc2(ra) <core::intrinsics::write_bytes::precondition_check::h3fa72849a3691a59>
80200dda: 6502         	ld	a0, 0x0(sp)
80200ddc: 6622         	ld	a2, 0x8(sp)
80200dde: 4581         	li	a1, 0x0
; /Users/lewis/.rustup/toolchains/stable-aarch64-apple-darwin/lib/rustlib/src/rust/library/core/src/intrinsics.rs:3549
80200de0: 00004097     	auipc	ra, 0x4
80200de4: 7d0080e7     	jalr	0x7d0(ra) <memset>
80200de8: 65c2         	ld	a1, 0x10(sp)
80200dea: 7522         	ld	a0, 0x28(sp)
; /Users/lewis/.rustup/toolchains/stable-aarch64-apple-darwin/lib/rustlib/src/rust/library/alloc/src/alloc.rs:230
80200dec: e5ae         	sd	a1, 0xc8(sp)
80200dee: e9aa         	sd	a0, 0xd0(sp)
; /Users/lewis/.rustup/toolchains/stable-aarch64-apple-darwin/lib/rustlib/src/rust/library/core/src/ptr/non_null.rs:329
80200df0: fe2e         	sd	a1, 0x138(sp)
80200df2: 75f2         	ld	a1, 0x138(sp)
80200df4: fa2e         	sd	a1, 0x130(sp)
; /Users/lewis/.rustup/toolchains/stable-aarch64-apple-darwin/lib/rustlib/src/rust/library/core/src/ptr/metadata.rs:129
80200df6: 75d2         	ld	a1, 0x130(sp)
80200df8: f22e         	sd	a1, 0x120(sp)
80200dfa: f62a         	sd	a0, 0x128(sp)
; /Users/lewis/.rustup/toolchains/stable-aarch64-apple-darwin/lib/rustlib/src/rust/library/core/src/ub_checks.rs:76
80200dfc: a009         	j	0x80200dfe <.Lpcrel_hi10+0x78>
; /Users/lewis/.rustup/toolchains/stable-aarch64-apple-darwin/lib/rustlib/src/rust/library/core/src/ptr/non_null.rs:201
80200dfe: 7572         	ld	a0, 0x138(sp)
; /Users/lewis/.rustup/toolchains/stable-aarch64-apple-darwin/lib/rustlib/src/rust/library/core/src/ub_checks.rs:77
80200e00: fffff097     	auipc	ra, 0xfffff
80200e04: 5a8080e7     	jalr	0x5a8(ra) <free_mem_start+0xff5f73a8>
; /Users/lewis/.rustup/toolchains/stable-aarch64-apple-darwin/lib/rustlib/src/rust/library/core/src/ub_checks.rs:76
80200e08: a009         	j	0x80200e0a <.Lpcrel_hi10+0x84>
; /Users/lewis/.rustup/toolchains/stable-aarch64-apple-darwin/lib/rustlib/src/rust/library/core/src/ptr/non_null.rs:203
80200e0a: 7592         	ld	a1, 0x120(sp)
80200e0c: 7532         	ld	a0, 0x128(sp)
; /Users/lewis/.rustup/toolchains/stable-aarch64-apple-darwin/lib/rustlib/src/rust/library/alloc/src/alloc.rs:230
80200e0e: e12e         	sd	a1, 0x80(sp)
80200e10: e52a         	sd	a0, 0x88(sp)
; /Users/lewis/.rustup/toolchains/stable-aarch64-apple-darwin/lib/rustlib/src/rust/library/alloc/src/alloc.rs:231
80200e12: bbc1         	j	0x80200be2 <.Lpcrel_hi7+0x60>

0000000080200e14 <_$LT$alloc..alloc..Global$u20$as$u20$core..alloc..Allocator$GT$::deallocate::hb6791aad8c36e085>:
; _$LT$alloc..alloc..Global$u20$as$u20$core..alloc..Allocator$GT$::deallocate::hb6791aad8c36e085():
; /Users/lewis/.rustup/toolchains/stable-aarch64-apple-darwin/lib/rustlib/src/rust/library/alloc/src/alloc.rs:265
80200e14: 7119         	addi	sp, sp, -0x80
80200e16: fc86         	sd	ra, 0x78(sp)
80200e18: e42e         	sd	a1, 0x8(sp)
80200e1a: ec32         	sd	a2, 0x18(sp)
80200e1c: f036         	sd	a3, 0x20(sp)
80200e1e: e0aa         	sd	a0, 0x40(sp)
80200e20: e4ae         	sd	a1, 0x48(sp)
80200e22: 0828         	addi	a0, sp, 0x18
; /Users/lewis/.rustup/toolchains/stable-aarch64-apple-darwin/lib/rustlib/src/rust/library/alloc/src/alloc.rs:266
80200e24: e8aa         	sd	a0, 0x50(sp)
; /Users/lewis/.rustup/toolchains/stable-aarch64-apple-darwin/lib/rustlib/src/rust/library/core/src/alloc/layout.rs:151
80200e26: 7502         	ld	a0, 0x20(sp)
80200e28: e82a         	sd	a0, 0x10(sp)
; /Users/lewis/.rustup/toolchains/stable-aarch64-apple-darwin/lib/rustlib/src/rust/library/alloc/src/alloc.rs:266
80200e2a: e509         	bnez	a0, 0x80200e34 <_$LT$alloc..alloc..Global$u20$as$u20$core..alloc..Allocator$GT$::deallocate::hb6791aad8c36e085+0x20>
80200e2c: a009         	j	0x80200e2e <_$LT$alloc..alloc..Global$u20$as$u20$core..alloc..Allocator$GT$::deallocate::hb6791aad8c36e085+0x1a>
80200e2e: 70e6         	ld	ra, 0x78(sp)
; /Users/lewis/.rustup/toolchains/stable-aarch64-apple-darwin/lib/rustlib/src/rust/library/alloc/src/alloc.rs:271
80200e30: 6109         	addi	sp, sp, 0x80
80200e32: 8082         	ret
80200e34: 65c2         	ld	a1, 0x10(sp)
80200e36: 6522         	ld	a0, 0x8(sp)
; /Users/lewis/.rustup/toolchains/stable-aarch64-apple-darwin/lib/rustlib/src/rust/library/core/src/ptr/non_null.rs:329
80200e38: ecaa         	sd	a0, 0x58(sp)
; /Users/lewis/.rustup/toolchains/stable-aarch64-apple-darwin/lib/rustlib/src/rust/library/alloc/src/alloc.rs:269
80200e3a: 66e2         	ld	a3, 0x18(sp)
80200e3c: 7602         	ld	a2, 0x20(sp)
80200e3e: f436         	sd	a3, 0x28(sp)
80200e40: f832         	sd	a2, 0x30(sp)
80200e42: 1030         	addi	a2, sp, 0x28
; /Users/lewis/.rustup/toolchains/stable-aarch64-apple-darwin/lib/rustlib/src/rust/library/alloc/src/alloc.rs:119
80200e44: f0b2         	sd	a2, 0x60(sp)
80200e46: f4b2         	sd	a2, 0x68(sp)
; /Users/lewis/.rustup/toolchains/stable-aarch64-apple-darwin/lib/rustlib/src/rust/library/core/src/alloc/layout.rs:164
80200e48: 6662         	ld	a2, 0x18(sp)
80200e4a: f8b2         	sd	a2, 0x70(sp)
; /Users/lewis/.rustup/toolchains/stable-aarch64-apple-darwin/lib/rustlib/src/rust/library/core/src/ptr/alignment.rs:95
80200e4c: fc32         	sd	a2, 0x38(sp)
80200e4e: 7662         	ld	a2, 0x38(sp)
; /Users/lewis/.rustup/toolchains/stable-aarch64-apple-darwin/lib/rustlib/src/rust/library/alloc/src/alloc.rs:119
80200e50: 00000097     	auipc	ra, 0x0
80200e54: 9ec080e7     	jalr	-0x614(ra) <__rust_dealloc>
; /Users/lewis/.rustup/toolchains/stable-aarch64-apple-darwin/lib/rustlib/src/rust/library/alloc/src/alloc.rs:266
80200e58: bfd9         	j	0x80200e2e <_$LT$alloc..alloc..Global$u20$as$u20$core..alloc..Allocator$GT$::deallocate::hb6791aad8c36e085+0x1a>

0000000080200e5a <_$LT$alloc..alloc..Global$u20$as$u20$core..alloc..Allocator$GT$::grow::h5adddc9bf2781f51>:
; _$LT$alloc..alloc..Global$u20$as$u20$core..alloc..Allocator$GT$::grow::h5adddc9bf2781f51():
; /Users/lewis/.rustup/toolchains/stable-aarch64-apple-darwin/lib/rustlib/src/rust/library/alloc/src/alloc.rs:275
80200e5a: 7139         	addi	sp, sp, -0x40
80200e5c: fc06         	sd	ra, 0x38(sp)
80200e5e: e42a         	sd	a0, 0x8(sp)
80200e60: e82e         	sd	a1, 0x10(sp)
80200e62: ec32         	sd	a2, 0x18(sp)
80200e64: f036         	sd	a3, 0x20(sp)
80200e66: f43a         	sd	a4, 0x28(sp)
80200e68: f83e         	sd	a5, 0x30(sp)
80200e6a: 4801         	li	a6, 0x0
; /Users/lewis/.rustup/toolchains/stable-aarch64-apple-darwin/lib/rustlib/src/rust/library/alloc/src/alloc.rs:282
80200e6c: 00000097     	auipc	ra, 0x0
80200e70: cf6080e7     	jalr	-0x30a(ra) <alloc::alloc::Global::grow_impl::h27be49d41481273f>
80200e74: 70e2         	ld	ra, 0x38(sp)
; /Users/lewis/.rustup/toolchains/stable-aarch64-apple-darwin/lib/rustlib/src/rust/library/alloc/src/alloc.rs:283
80200e76: 6121         	addi	sp, sp, 0x40
80200e78: 8082         	ret

0000000080200e7a <_$LT$alloc..alloc..Global$u20$as$u20$core..alloc..Allocator$GT$::allocate::h75b5c48a301b2c0f>:
; _$LT$alloc..alloc..Global$u20$as$u20$core..alloc..Allocator$GT$::allocate::h75b5c48a301b2c0f():
; /Users/lewis/.rustup/toolchains/stable-aarch64-apple-darwin/lib/rustlib/src/rust/library/alloc/src/alloc.rs:253
80200e7a: 1101         	addi	sp, sp, -0x20
80200e7c: ec06         	sd	ra, 0x18(sp)
80200e7e: e02a         	sd	a0, 0x0(sp)
80200e80: e42e         	sd	a1, 0x8(sp)
80200e82: e832         	sd	a2, 0x10(sp)
80200e84: 4681         	li	a3, 0x0
; /Users/lewis/.rustup/toolchains/stable-aarch64-apple-darwin/lib/rustlib/src/rust/library/alloc/src/alloc.rs:254
80200e86: 00000097     	auipc	ra, 0x0
80200e8a: bd8080e7     	jalr	-0x428(ra) <alloc::alloc::Global::alloc_impl::h85b1ea9827698f0b>
80200e8e: 60e2         	ld	ra, 0x18(sp)
; /Users/lewis/.rustup/toolchains/stable-aarch64-apple-darwin/lib/rustlib/src/rust/library/alloc/src/alloc.rs:255
80200e90: 6105         	addi	sp, sp, 0x20
80200e92: 8082         	ret

0000000080200e94 <core::intrinsics::write_bytes::precondition_check::h3fa72849a3691a59>:
; core::intrinsics::write_bytes::precondition_check::h3fa72849a3691a59():
; /Users/lewis/.rustup/toolchains/stable-aarch64-apple-darwin/lib/rustlib/src/rust/library/core/src/ub_checks.rs:68
80200e94: 7159         	addi	sp, sp, -0x70
80200e96: e42e         	sd	a1, 0x8(sp)
80200e98: e4aa         	sd	a0, 0x48(sp)
80200e9a: e8ae         	sd	a1, 0x50(sp)

0000000080200e9c <.Lpcrel_hi0>:
; .Lpcrel_hi0():
; /Users/lewis/.rustup/toolchains/stable-aarch64-apple-darwin/lib/rustlib/src/rust/library/core/src/fmt/mod.rs:337
80200e9c: 00005597     	auipc	a1, 0x5
80200ea0: 71c58593     	addi	a1, a1, 0x71c
80200ea4: ecae         	sd	a1, 0x58(sp)
; /Users/lewis/.rustup/toolchains/stable-aarch64-apple-darwin/lib/rustlib/src/rust/library/core/src/ptr/const_ptr.rs:54
80200ea6: f0aa         	sd	a0, 0x60(sp)
; /Users/lewis/.rustup/toolchains/stable-aarch64-apple-darwin/lib/rustlib/src/rust/library/core/src/ptr/const_ptr.rs:147
80200ea8: 85aa         	mv	a1, a0
80200eaa: e82e         	sd	a1, 0x10(sp)
; /Users/lewis/.rustup/toolchains/stable-aarch64-apple-darwin/lib/rustlib/src/rust/library/core/src/ub_checks.rs:120
80200eac: e119         	bnez	a0, 0x80200eb2 <.Lpcrel_hi0+0x16>
80200eae: a009         	j	0x80200eb0 <.Lpcrel_hi0+0x14>
; /Users/lewis/.rustup/toolchains/stable-aarch64-apple-darwin/lib/rustlib/src/rust/library/core/src/intrinsics.rs:3547
80200eb0: a0ad         	j	0x80200f1a <.Lpcrel_hi1>
80200eb2: 6522         	ld	a0, 0x8(sp)
; /Users/lewis/.rustup/toolchains/stable-aarch64-apple-darwin/lib/rustlib/src/rust/library/core/src/num/uint_macros.rs:85
80200eb4: 00155593     	srli	a1, a0, 0x1
80200eb8: 55555637     	lui	a2, 0x55555
80200ebc: 5556061b     	addiw	a2, a2, 0x555
80200ec0: 02061693     	slli	a3, a2, 0x20
80200ec4: 9636         	add	a2, a2, a3
80200ec6: 8df1         	and	a1, a1, a2
80200ec8: 40b505b3     	sub	a1, a0, a1
80200ecc: 33333537     	lui	a0, 0x33333
80200ed0: 3335051b     	addiw	a0, a0, 0x333
80200ed4: 02051613     	slli	a2, a0, 0x20
80200ed8: 962a         	add	a2, a2, a0
80200eda: 00c5f533     	and	a0, a1, a2
80200ede: 8189         	srli	a1, a1, 0x2
80200ee0: 8df1         	and	a1, a1, a2
80200ee2: 952e         	add	a0, a0, a1
80200ee4: 00455593     	srli	a1, a0, 0x4
80200ee8: 952e         	add	a0, a0, a1
80200eea: 0f0f15b7     	lui	a1, 0xf0f1
80200eee: f0f5859b     	addiw	a1, a1, -0xf1
80200ef2: 02059613     	slli	a2, a1, 0x20
80200ef6: 95b2         	add	a1, a1, a2
80200ef8: 8d6d         	and	a0, a0, a1
80200efa: 010105b7     	lui	a1, 0x1010
80200efe: 1015859b     	addiw	a1, a1, 0x101
80200f02: 02059613     	slli	a2, a1, 0x20
80200f06: 95b2         	add	a1, a1, a2
80200f08: 02b50533     	mul	a0, a0, a1
80200f0c: 9161         	srli	a0, a0, 0x38
80200f0e: d6aa         	sw	a0, 0x6c(sp)
80200f10: 5536         	lw	a0, 0x6c(sp)
80200f12: 4585         	li	a1, 0x1
; /Users/lewis/.rustup/toolchains/stable-aarch64-apple-darwin/lib/rustlib/src/rust/library/core/src/ptr/const_ptr.rs:1602
80200f14: 00b50d63     	beq	a0, a1, 0x80200f2e <.Lpcrel_hi1+0x14>
80200f18: a00d         	j	0x80200f3a <.Lpcrel_hi2>

0000000080200f1a <.Lpcrel_hi1>:
; .Lpcrel_hi1():
; /Users/lewis/.rustup/toolchains/stable-aarch64-apple-darwin/lib/rustlib/src/rust/library/core/src/ub_checks.rs:70
80200f1a: 00005517     	auipc	a0, 0x5
80200f1e: 6ae50513     	addi	a0, a0, 0x6ae
80200f22: 06f00593     	li	a1, 0x6f
80200f26: 00003097     	auipc	ra, 0x3
80200f2a: 478080e7     	jalr	0x478(ra) <core::panicking::panic_nounwind::h92acbb232d24bc37>
80200f2e: 6542         	ld	a0, 0x10(sp)
80200f30: 65a2         	ld	a1, 0x8(sp)
; /Users/lewis/.rustup/toolchains/stable-aarch64-apple-darwin/lib/rustlib/src/rust/library/core/src/ptr/const_ptr.rs:1608
80200f32: 15fd         	addi	a1, a1, -0x1
80200f34: 8d6d         	and	a0, a0, a1
; /Users/lewis/.rustup/toolchains/stable-aarch64-apple-darwin/lib/rustlib/src/rust/library/core/src/intrinsics.rs:3547
80200f36: cd15         	beqz	a0, 0x80200f72 <.Lpcrel_hi4+0x12>
80200f38: b7cd         	j	0x80200f1a <.Lpcrel_hi1>

0000000080200f3a <.Lpcrel_hi2>:
; .Lpcrel_hi2():
; /Users/lewis/.rustup/toolchains/stable-aarch64-apple-darwin/lib/rustlib/src/rust/library/core/src/fmt/mod.rs:339
80200f3a: 00005517     	auipc	a0, 0x5
80200f3e: 67e50513     	addi	a0, a0, 0x67e
80200f42: ec2a         	sd	a0, 0x18(sp)
80200f44: 4505         	li	a0, 0x1
80200f46: f02a         	sd	a0, 0x20(sp)

0000000080200f48 <.Lpcrel_hi3>:
; .Lpcrel_hi3():
; /Users/lewis/.rustup/toolchains/stable-aarch64-apple-darwin/lib/rustlib/src/rust/library/core/src/fmt/mod.rs:339
80200f48: 00005517     	auipc	a0, 0x5
80200f4c: 25850513     	addi	a0, a0, 0x258
80200f50: 610c         	ld	a1, 0x0(a0)
80200f52: 6508         	ld	a0, 0x8(a0)
80200f54: fc2e         	sd	a1, 0x38(sp)
80200f56: e0aa         	sd	a0, 0x40(sp)
80200f58: 4521         	li	a0, 0x8
80200f5a: f42a         	sd	a0, 0x28(sp)
80200f5c: 4501         	li	a0, 0x0
80200f5e: f82a         	sd	a0, 0x30(sp)

0000000080200f60 <.Lpcrel_hi4>:
; .Lpcrel_hi4():
; /Users/lewis/.rustup/toolchains/stable-aarch64-apple-darwin/lib/rustlib/src/rust/library/core/src/ptr/const_ptr.rs:1603
80200f60: 00005517     	auipc	a0, 0x5
80200f64: 75050593     	addi	a1, a0, 0x750
80200f68: 0828         	addi	a0, sp, 0x18
80200f6a: 00003097     	auipc	ra, 0x3
80200f6e: 38c080e7     	jalr	0x38c(ra) <core::panicking::panic_fmt::hd74e2a0fb7381b7e>
; /Users/lewis/.rustup/toolchains/stable-aarch64-apple-darwin/lib/rustlib/src/rust/library/core/src/ub_checks.rs:74
80200f72: 6165         	addi	sp, sp, 0x70
80200f74: 8082         	ret

0000000080200f76 <core::intrinsics::copy_nonoverlapping::precondition_check::h6f1ba6038eff809a>:
; core::intrinsics::copy_nonoverlapping::precondition_check::h6f1ba6038eff809a():
; /Users/lewis/.rustup/toolchains/stable-aarch64-apple-darwin/lib/rustlib/src/rust/library/core/src/ub_checks.rs:68
80200f76: 7111         	addi	sp, sp, -0x100
80200f78: fd86         	sd	ra, 0xf8(sp)
80200f7a: e43a         	sd	a4, 0x8(sp)
80200f7c: e836         	sd	a3, 0x10(sp)
80200f7e: ec32         	sd	a2, 0x18(sp)
80200f80: f02e         	sd	a1, 0x20(sp)
80200f82: f42a         	sd	a0, 0x28(sp)
80200f84: ed2a         	sd	a0, 0x98(sp)
80200f86: f12e         	sd	a1, 0xa0(sp)
80200f88: f532         	sd	a2, 0xa8(sp)
80200f8a: f936         	sd	a3, 0xb0(sp)
80200f8c: fd3a         	sd	a4, 0xb8(sp)

0000000080200f8e <.Lpcrel_hi5>:
; .Lpcrel_hi5():
; /Users/lewis/.rustup/toolchains/stable-aarch64-apple-darwin/lib/rustlib/src/rust/library/core/src/fmt/mod.rs:337
80200f8e: 00005597     	auipc	a1, 0x5
80200f92: 62a58593     	addi	a1, a1, 0x62a
80200f96: e1ae         	sd	a1, 0xc0(sp)
80200f98: e5ae         	sd	a1, 0xc8(sp)
; /Users/lewis/.rustup/toolchains/stable-aarch64-apple-darwin/lib/rustlib/src/rust/library/core/src/ptr/const_ptr.rs:54
80200f9a: e9aa         	sd	a0, 0xd0(sp)
; /Users/lewis/.rustup/toolchains/stable-aarch64-apple-darwin/lib/rustlib/src/rust/library/core/src/ptr/const_ptr.rs:147
80200f9c: 85aa         	mv	a1, a0
80200f9e: f82e         	sd	a1, 0x30(sp)
; /Users/lewis/.rustup/toolchains/stable-aarch64-apple-darwin/lib/rustlib/src/rust/library/core/src/ub_checks.rs:120
80200fa0: e119         	bnez	a0, 0x80200fa6 <.Lpcrel_hi5+0x18>
80200fa2: a009         	j	0x80200fa4 <.Lpcrel_hi5+0x16>
; /Users/lewis/.rustup/toolchains/stable-aarch64-apple-darwin/lib/rustlib/src/rust/library/core/src/intrinsics.rs:3368
80200fa4: a0ad         	j	0x8020100e <.Lpcrel_hi5+0x80>
80200fa6: 6542         	ld	a0, 0x10(sp)
; /Users/lewis/.rustup/toolchains/stable-aarch64-apple-darwin/lib/rustlib/src/rust/library/core/src/num/uint_macros.rs:85
80200fa8: 00155593     	srli	a1, a0, 0x1
80200fac: 55555637     	lui	a2, 0x55555
80200fb0: 5556061b     	addiw	a2, a2, 0x555
80200fb4: 02061693     	slli	a3, a2, 0x20
80200fb8: 9636         	add	a2, a2, a3
80200fba: 8df1         	and	a1, a1, a2
80200fbc: 40b505b3     	sub	a1, a0, a1
80200fc0: 33333537     	lui	a0, 0x33333
80200fc4: 3335051b     	addiw	a0, a0, 0x333
80200fc8: 02051613     	slli	a2, a0, 0x20
80200fcc: 962a         	add	a2, a2, a0
80200fce: 00c5f533     	and	a0, a1, a2
80200fd2: 8189         	srli	a1, a1, 0x2
80200fd4: 8df1         	and	a1, a1, a2
80200fd6: 952e         	add	a0, a0, a1
80200fd8: 00455593     	srli	a1, a0, 0x4
80200fdc: 952e         	add	a0, a0, a1
80200fde: 0f0f15b7     	lui	a1, 0xf0f1
80200fe2: f0f5859b     	addiw	a1, a1, -0xf1
80200fe6: 02059613     	slli	a2, a1, 0x20
80200fea: 95b2         	add	a1, a1, a2
80200fec: 8d6d         	and	a0, a0, a1
80200fee: 010105b7     	lui	a1, 0x1010
80200ff2: 1015859b     	addiw	a1, a1, 0x101
80200ff6: 02059613     	slli	a2, a1, 0x20
80200ffa: 95b2         	add	a1, a1, a2
80200ffc: 02b50533     	mul	a0, a0, a1
80201000: 9161         	srli	a0, a0, 0x38
80201002: cfaa         	sw	a0, 0xdc(sp)
80201004: 457e         	lw	a0, 0xdc(sp)
80201006: 4585         	li	a1, 0x1
; /Users/lewis/.rustup/toolchains/stable-aarch64-apple-darwin/lib/rustlib/src/rust/library/core/src/ptr/const_ptr.rs:1602
80201008: 00b50463     	beq	a0, a1, 0x80201010 <.Lpcrel_hi5+0x82>
8020100c: a801         	j	0x8020101c <.Lpcrel_hi6>
8020100e: a891         	j	0x80201062 <.Lpcrel_hi9>
80201010: 7542         	ld	a0, 0x30(sp)
80201012: 65c2         	ld	a1, 0x10(sp)
; /Users/lewis/.rustup/toolchains/stable-aarch64-apple-darwin/lib/rustlib/src/rust/library/core/src/ptr/const_ptr.rs:1608
80201014: 15fd         	addi	a1, a1, -0x1
80201016: 8d6d         	and	a0, a0, a1
; /Users/lewis/.rustup/toolchains/stable-aarch64-apple-darwin/lib/rustlib/src/rust/library/core/src/intrinsics.rs:3368
80201018: cd15         	beqz	a0, 0x80201054 <.Lpcrel_hi8+0x12>
8020101a: bfd5         	j	0x8020100e <.Lpcrel_hi5+0x80>

000000008020101c <.Lpcrel_hi6>:
; .Lpcrel_hi6():
; /Users/lewis/.rustup/toolchains/stable-aarch64-apple-darwin/lib/rustlib/src/rust/library/core/src/fmt/mod.rs:339
8020101c: 00005517     	auipc	a0, 0x5
80201020: 59c50513     	addi	a0, a0, 0x59c
80201024: fc2a         	sd	a0, 0x38(sp)
80201026: 4505         	li	a0, 0x1
80201028: e0aa         	sd	a0, 0x40(sp)

000000008020102a <.Lpcrel_hi7>:
; .Lpcrel_hi7():
; /Users/lewis/.rustup/toolchains/stable-aarch64-apple-darwin/lib/rustlib/src/rust/library/core/src/fmt/mod.rs:339
8020102a: 00005517     	auipc	a0, 0x5
8020102e: 17650513     	addi	a0, a0, 0x176
80201032: 610c         	ld	a1, 0x0(a0)
80201034: 6508         	ld	a0, 0x8(a0)
80201036: ecae         	sd	a1, 0x58(sp)
80201038: f0aa         	sd	a0, 0x60(sp)
8020103a: 4521         	li	a0, 0x8
8020103c: e4aa         	sd	a0, 0x48(sp)
8020103e: 4501         	li	a0, 0x0
80201040: e8aa         	sd	a0, 0x50(sp)

0000000080201042 <.Lpcrel_hi8>:
; .Lpcrel_hi8():
; /Users/lewis/.rustup/toolchains/stable-aarch64-apple-darwin/lib/rustlib/src/rust/library/core/src/ptr/const_ptr.rs:1603
80201042: 00005517     	auipc	a0, 0x5
80201046: 66e50593     	addi	a1, a0, 0x66e
8020104a: 1828         	addi	a0, sp, 0x38
8020104c: 00003097     	auipc	ra, 0x3
80201050: 2aa080e7     	jalr	0x2aa(ra) <core::panicking::panic_fmt::hd74e2a0fb7381b7e>
80201054: 7502         	ld	a0, 0x20(sp)
; /Users/lewis/.rustup/toolchains/stable-aarch64-apple-darwin/lib/rustlib/src/rust/library/core/src/intrinsics.rs:3369
80201056: f1aa         	sd	a0, 0xe0(sp)
; /Users/lewis/.rustup/toolchains/stable-aarch64-apple-darwin/lib/rustlib/src/rust/library/core/src/ptr/const_ptr.rs:54
80201058: f5aa         	sd	a0, 0xe8(sp)
; /Users/lewis/.rustup/toolchains/stable-aarch64-apple-darwin/lib/rustlib/src/rust/library/core/src/ptr/const_ptr.rs:147
8020105a: 85aa         	mv	a1, a0
8020105c: e02e         	sd	a1, 0x0(sp)
; /Users/lewis/.rustup/toolchains/stable-aarch64-apple-darwin/lib/rustlib/src/rust/library/core/src/ub_checks.rs:120
8020105e: cd01         	beqz	a0, 0x80201076 <.Lpcrel_hi9+0x14>
80201060: a821         	j	0x80201078 <.Lpcrel_hi9+0x16>

0000000080201062 <.Lpcrel_hi9>:
; .Lpcrel_hi9():
; /Users/lewis/.rustup/toolchains/stable-aarch64-apple-darwin/lib/rustlib/src/rust/library/core/src/ub_checks.rs:70
80201062: 00005517     	auipc	a0, 0x5
80201066: 66650513     	addi	a0, a0, 0x666
8020106a: 0a600593     	li	a1, 0xa6
8020106e: 00003097     	auipc	ra, 0x3
80201072: 330080e7     	jalr	0x330(ra) <core::panicking::panic_nounwind::h92acbb232d24bc37>
; /Users/lewis/.rustup/toolchains/stable-aarch64-apple-darwin/lib/rustlib/src/rust/library/core/src/intrinsics.rs:3369
80201076: a0ad         	j	0x802010e0 <.Lpcrel_hi9+0x7e>
80201078: 6542         	ld	a0, 0x10(sp)
; /Users/lewis/.rustup/toolchains/stable-aarch64-apple-darwin/lib/rustlib/src/rust/library/core/src/num/uint_macros.rs:85
8020107a: 00155593     	srli	a1, a0, 0x1
8020107e: 55555637     	lui	a2, 0x55555
80201082: 5556061b     	addiw	a2, a2, 0x555
80201086: 02061693     	slli	a3, a2, 0x20
8020108a: 9636         	add	a2, a2, a3
8020108c: 8df1         	and	a1, a1, a2
8020108e: 40b505b3     	sub	a1, a0, a1
80201092: 33333537     	lui	a0, 0x33333
80201096: 3335051b     	addiw	a0, a0, 0x333
8020109a: 02051613     	slli	a2, a0, 0x20
8020109e: 962a         	add	a2, a2, a0
802010a0: 00c5f533     	and	a0, a1, a2
802010a4: 8189         	srli	a1, a1, 0x2
802010a6: 8df1         	and	a1, a1, a2
802010a8: 952e         	add	a0, a0, a1
802010aa: 00455593     	srli	a1, a0, 0x4
802010ae: 952e         	add	a0, a0, a1
802010b0: 0f0f15b7     	lui	a1, 0xf0f1
802010b4: f0f5859b     	addiw	a1, a1, -0xf1
802010b8: 02059613     	slli	a2, a1, 0x20
802010bc: 95b2         	add	a1, a1, a2
802010be: 8d6d         	and	a0, a0, a1
802010c0: 010105b7     	lui	a1, 0x1010
802010c4: 1015859b     	addiw	a1, a1, 0x101
802010c8: 02059613     	slli	a2, a1, 0x20
802010cc: 95b2         	add	a1, a1, a2
802010ce: 02b50533     	mul	a0, a0, a1
802010d2: 9161         	srli	a0, a0, 0x38
802010d4: dbaa         	sw	a0, 0xf4(sp)
802010d6: 555e         	lw	a0, 0xf4(sp)
802010d8: 4585         	li	a1, 0x1
; /Users/lewis/.rustup/toolchains/stable-aarch64-apple-darwin/lib/rustlib/src/rust/library/core/src/ptr/const_ptr.rs:1602
802010da: 00b50463     	beq	a0, a1, 0x802010e2 <.Lpcrel_hi9+0x80>
802010de: a801         	j	0x802010ee <.Lpcrel_hi10>
802010e0: b749         	j	0x80201062 <.Lpcrel_hi9>
802010e2: 6502         	ld	a0, 0x0(sp)
802010e4: 65c2         	ld	a1, 0x10(sp)
; /Users/lewis/.rustup/toolchains/stable-aarch64-apple-darwin/lib/rustlib/src/rust/library/core/src/ptr/const_ptr.rs:1608
802010e6: 15fd         	addi	a1, a1, -0x1
802010e8: 8d6d         	and	a0, a0, a1
; /Users/lewis/.rustup/toolchains/stable-aarch64-apple-darwin/lib/rustlib/src/rust/library/core/src/intrinsics.rs:3369
802010ea: cd15         	beqz	a0, 0x80201126 <.Lpcrel_hi12+0x12>
802010ec: bfd5         	j	0x802010e0 <.Lpcrel_hi9+0x7e>

00000000802010ee <.Lpcrel_hi10>:
; .Lpcrel_hi10():
; /Users/lewis/.rustup/toolchains/stable-aarch64-apple-darwin/lib/rustlib/src/rust/library/core/src/fmt/mod.rs:339
802010ee: 00005517     	auipc	a0, 0x5
802010f2: 4ca50513     	addi	a0, a0, 0x4ca
802010f6: f4aa         	sd	a0, 0x68(sp)
802010f8: 4505         	li	a0, 0x1
802010fa: f8aa         	sd	a0, 0x70(sp)

00000000802010fc <.Lpcrel_hi11>:
; .Lpcrel_hi11():
; /Users/lewis/.rustup/toolchains/stable-aarch64-apple-darwin/lib/rustlib/src/rust/library/core/src/fmt/mod.rs:339
802010fc: 00005517     	auipc	a0, 0x5
80201100: 0a450513     	addi	a0, a0, 0xa4
80201104: 610c         	ld	a1, 0x0(a0)
80201106: 6508         	ld	a0, 0x8(a0)
80201108: e52e         	sd	a1, 0x88(sp)
8020110a: e92a         	sd	a0, 0x90(sp)
8020110c: 4521         	li	a0, 0x8
8020110e: fcaa         	sd	a0, 0x78(sp)
80201110: 4501         	li	a0, 0x0
80201112: e12a         	sd	a0, 0x80(sp)

0000000080201114 <.Lpcrel_hi12>:
; .Lpcrel_hi12():
; /Users/lewis/.rustup/toolchains/stable-aarch64-apple-darwin/lib/rustlib/src/rust/library/core/src/ptr/const_ptr.rs:1603
80201114: 00005517     	auipc	a0, 0x5
80201118: 59c50593     	addi	a1, a0, 0x59c
8020111c: 10a8         	addi	a0, sp, 0x68
8020111e: 00003097     	auipc	ra, 0x3
80201122: 1d8080e7     	jalr	0x1d8(ra) <core::panicking::panic_fmt::hd74e2a0fb7381b7e>
80201126: 66a2         	ld	a3, 0x8(sp)
80201128: 6662         	ld	a2, 0x18(sp)
8020112a: 7582         	ld	a1, 0x20(sp)
8020112c: 7522         	ld	a0, 0x28(sp)
; /Users/lewis/.rustup/toolchains/stable-aarch64-apple-darwin/lib/rustlib/src/rust/library/core/src/ub_checks.rs:162
8020112e: 00001097     	auipc	ra, 0x1
80201132: e8a080e7     	jalr	-0x176(ra) <core::ub_checks::is_nonoverlapping::runtime::hdcf29726cb95fd6c>
; /Users/lewis/.rustup/toolchains/stable-aarch64-apple-darwin/lib/rustlib/src/rust/library/core/src/intrinsics.rs:3370
80201136: e119         	bnez	a0, 0x8020113c <.Lpcrel_hi12+0x28>
80201138: a009         	j	0x8020113a <.Lpcrel_hi12+0x26>
8020113a: b725         	j	0x80201062 <.Lpcrel_hi9>
8020113c: 70ee         	ld	ra, 0xf8(sp)
; /Users/lewis/.rustup/toolchains/stable-aarch64-apple-darwin/lib/rustlib/src/rust/library/core/src/ub_checks.rs:74
8020113e: 6111         	addi	sp, sp, 0x100
80201140: 8082         	ret

0000000080201142 <core::panic::panic_info::PanicInfo::message::he406f02aa9496620>:
; core::panic::panic_info::PanicInfo::message::he406f02aa9496620():
; /Users/lewis/.rustup/toolchains/stable-aarch64-apple-darwin/lib/rustlib/src/rust/library/core/src/panic/panic_info.rs:61
80201142: 1141         	addi	sp, sp, -0x10
80201144: e42a         	sd	a0, 0x8(sp)
; /Users/lewis/.rustup/toolchains/stable-aarch64-apple-darwin/lib/rustlib/src/rust/library/core/src/panic/panic_info.rs:62
80201146: 6108         	ld	a0, 0x0(a0)
; /Users/lewis/.rustup/toolchains/stable-aarch64-apple-darwin/lib/rustlib/src/rust/library/core/src/panic/panic_info.rs:63
80201148: 0141         	addi	sp, sp, 0x10
8020114a: 8082         	ret

000000008020114c <core::panic::panic_info::PanicInfo::location::h91c400acb4df1053>:
; core::panic::panic_info::PanicInfo::location::h91c400acb4df1053():
; /Users/lewis/.rustup/toolchains/stable-aarch64-apple-darwin/lib/rustlib/src/rust/library/core/src/panic/panic_info.rs:91
8020114c: 1141         	addi	sp, sp, -0x10
8020114e: e42a         	sd	a0, 0x8(sp)
; /Users/lewis/.rustup/toolchains/stable-aarch64-apple-darwin/lib/rustlib/src/rust/library/core/src/panic/panic_info.rs:94
80201150: 6508         	ld	a0, 0x8(a0)
80201152: e02a         	sd	a0, 0x0(sp)
; /Users/lewis/.rustup/toolchains/stable-aarch64-apple-darwin/lib/rustlib/src/rust/library/core/src/panic/panic_info.rs:95
80201154: 6502         	ld	a0, 0x0(sp)
80201156: 0141         	addi	sp, sp, 0x10
80201158: 8082         	ret

000000008020115a <_$LT$core..panic..panic_info..PanicMessage$u20$as$u20$core..fmt..Display$GT$::fmt::h988da3c4a6b0b5f3>:
; _$LT$core..panic..panic_info..PanicMessage$u20$as$u20$core..fmt..Display$GT$::fmt::h988da3c4a6b0b5f3():
; /Users/lewis/.rustup/toolchains/stable-aarch64-apple-darwin/lib/rustlib/src/rust/library/core/src/panic/panic_info.rs:179
8020115a: 715d         	addi	sp, sp, -0x50
8020115c: e486         	sd	ra, 0x48(sp)
8020115e: e02e         	sd	a1, 0x0(sp)
80201160: 85aa         	mv	a1, a0
80201162: 6502         	ld	a0, 0x0(sp)
80201164: fc2e         	sd	a1, 0x38(sp)
80201166: e0aa         	sd	a0, 0x40(sp)
; /Users/lewis/.rustup/toolchains/stable-aarch64-apple-darwin/lib/rustlib/src/rust/library/core/src/panic/panic_info.rs:180
80201168: 618c         	ld	a1, 0x0(a1)
8020116a: 7590         	ld	a2, 0x28(a1)
8020116c: f832         	sd	a2, 0x30(sp)
8020116e: 7190         	ld	a2, 0x20(a1)
80201170: f432         	sd	a2, 0x28(sp)
80201172: 6d90         	ld	a2, 0x18(a1)
80201174: f032         	sd	a2, 0x20(sp)
80201176: 6990         	ld	a2, 0x10(a1)
80201178: ec32         	sd	a2, 0x18(sp)
8020117a: 6590         	ld	a2, 0x8(a1)
8020117c: e832         	sd	a2, 0x10(sp)
8020117e: 618c         	ld	a1, 0x0(a1)
80201180: e42e         	sd	a1, 0x8(sp)
80201182: 002c         	addi	a1, sp, 0x8
80201184: 00002097     	auipc	ra, 0x2
80201188: 246080e7     	jalr	0x246(ra) <core::fmt::Formatter::write_fmt::h345ead9e7357cf79>
8020118c: 60a6         	ld	ra, 0x48(sp)
; /Users/lewis/.rustup/toolchains/stable-aarch64-apple-darwin/lib/rustlib/src/rust/library/core/src/panic/panic_info.rs:181
8020118e: 6161         	addi	sp, sp, 0x50
80201190: 8082         	ret

0000000080201192 <sbi_rt::dbcn::console_write::h5f5c7795607bc46b>:
; sbi_rt::dbcn::console_write::h5f5c7795607bc46b():
; /Users/lewis/.cargo/registry/src/rsproxy.cn-0dccff568467c15b/sbi-rt-0.0.3/src/dbcn.rs:34
80201192: 711d         	addi	sp, sp, -0x60
80201194: ec86         	sd	ra, 0x58(sp)
80201196: e42a         	sd	a0, 0x8(sp)
; /Users/lewis/.cargo/registry/src/rsproxy.cn-0dccff568467c15b/sbi-rt-0.0.3/src/dbcn.rs:38
80201198: fffff097     	auipc	ra, 0xfffff
8020119c: 774080e7     	jalr	0x774(ra) <free_mem_start+0xff5f790c>
802011a0: 85aa         	mv	a1, a0
802011a2: 6522         	ld	a0, 0x8(sp)
802011a4: ec2e         	sd	a1, 0x18(sp)
; /Users/lewis/.cargo/registry/src/rsproxy.cn-0dccff568467c15b/sbi-rt-0.0.3/src/dbcn.rs:39
802011a6: fffff097     	auipc	ra, 0xfffff
802011aa: 74a080e7     	jalr	0x74a(ra) <free_mem_start+0xff5f78f0>
802011ae: 85aa         	mv	a1, a0
802011b0: 6522         	ld	a0, 0x8(sp)
802011b2: e82e         	sd	a1, 0x10(sp)
; /Users/lewis/.cargo/registry/src/rsproxy.cn-0dccff568467c15b/sbi-rt-0.0.3/src/dbcn.rs:40
802011b4: fffff097     	auipc	ra, 0xfffff
802011b8: 732080e7     	jalr	0x732(ra) <free_mem_start+0xff5f78e6>
802011bc: 65c2         	ld	a1, 0x10(sp)
802011be: 862a         	mv	a2, a0
802011c0: 6562         	ld	a0, 0x18(sp)
802011c2: 444246b7     	lui	a3, 0x44424
802011c6: 34e6889b     	addiw	a7, a3, 0x34e
802011ca: f846         	sd	a7, 0x30(sp)
802011cc: 4801         	li	a6, 0x0
802011ce: fc42         	sd	a6, 0x38(sp)
802011d0: e0aa         	sd	a0, 0x40(sp)
802011d2: e4ae         	sd	a1, 0x48(sp)
802011d4: e8b2         	sd	a2, 0x50(sp)
; /Users/lewis/.cargo/registry/src/rsproxy.cn-0dccff568467c15b/sbi-rt-0.0.3/src/binary.rs:54
802011d6: 00000073     	ecall
802011da: f02a         	sd	a0, 0x20(sp)
802011dc: f42e         	sd	a1, 0x28(sp)
; /Users/lewis/.cargo/registry/src/rsproxy.cn-0dccff568467c15b/sbi-rt-0.0.3/src/binary.rs:63
802011de: 7502         	ld	a0, 0x20(sp)
802011e0: 75a2         	ld	a1, 0x28(sp)
802011e2: 60e6         	ld	ra, 0x58(sp)
; /Users/lewis/.cargo/registry/src/rsproxy.cn-0dccff568467c15b/sbi-rt-0.0.3/src/dbcn.rs:42
802011e4: 6125         	addi	sp, sp, 0x60
802011e6: 8082         	ret

00000000802011e8 <core::iter::range::_$LT$impl$u20$core..iter..traits..iterator..Iterator$u20$for$u20$core..ops..range..Range$LT$A$GT$$GT$::next::h699376679b793822>:
; core::iter::range::_$LT$impl$u20$core..iter..traits..iterator..Iterator$u20$for$u20$core..ops..range..Range$LT$A$GT$$GT$::next::h699376679b793822():
; /Users/lewis/.rustup/toolchains/stable-aarch64-apple-darwin/lib/rustlib/src/rust/library/core/src/iter/range.rs:842
802011e8: 1141         	addi	sp, sp, -0x10
802011ea: e406         	sd	ra, 0x8(sp)
802011ec: e02a         	sd	a0, 0x0(sp)
; /Users/lewis/.rustup/toolchains/stable-aarch64-apple-darwin/lib/rustlib/src/rust/library/core/src/iter/range.rs:843
802011ee: 00000097     	auipc	ra, 0x0
802011f2: 0f0080e7     	jalr	0xf0(ra) <_$LT$core..ops..range..Range$LT$T$GT$$u20$as$u20$core..iter..range..RangeIteratorImpl$GT$::spec_next::h86c24901f38f9bdd>
802011f6: 60a2         	ld	ra, 0x8(sp)
; /Users/lewis/.rustup/toolchains/stable-aarch64-apple-darwin/lib/rustlib/src/rust/library/core/src/iter/range.rs:844
802011f8: 0141         	addi	sp, sp, 0x10
802011fa: 8082         	ret

00000000802011fc <core::iter::range::_$LT$impl$u20$core..iter..traits..iterator..Iterator$u20$for$u20$core..ops..range..Range$LT$A$GT$$GT$::next::h7a9ebaf306039811>:
; core::iter::range::_$LT$impl$u20$core..iter..traits..iterator..Iterator$u20$for$u20$core..ops..range..Range$LT$A$GT$$GT$::next::h7a9ebaf306039811():
; /Users/lewis/.rustup/toolchains/stable-aarch64-apple-darwin/lib/rustlib/src/rust/library/core/src/iter/range.rs:842
802011fc: 1141         	addi	sp, sp, -0x10
802011fe: e406         	sd	ra, 0x8(sp)
80201200: e02a         	sd	a0, 0x0(sp)
; /Users/lewis/.rustup/toolchains/stable-aarch64-apple-darwin/lib/rustlib/src/rust/library/core/src/iter/range.rs:843
80201202: 00000097     	auipc	ra, 0x0
80201206: 12c080e7     	jalr	0x12c(ra) <_$LT$core..ops..range..Range$LT$T$GT$$u20$as$u20$core..iter..range..RangeIteratorImpl$GT$::spec_next::hba565c424aeaf588>
8020120a: 60a2         	ld	ra, 0x8(sp)
; /Users/lewis/.rustup/toolchains/stable-aarch64-apple-darwin/lib/rustlib/src/rust/library/core/src/iter/range.rs:844
8020120c: 0141         	addi	sp, sp, 0x10
8020120e: 8082         	ret

0000000080201210 <core::iter::range::_$LT$impl$u20$core..iter..traits..double_ended..DoubleEndedIterator$u20$for$u20$core..ops..range..Range$LT$A$GT$$GT$::next_back::h2e47441cd0e8034d>:
; core::iter::range::_$LT$impl$u20$core..iter..traits..double_ended..DoubleEndedIterator$u20$for$u20$core..ops..range..Range$LT$A$GT$$GT$::next_back::h2e47441cd0e8034d():
; /Users/lewis/.rustup/toolchains/stable-aarch64-apple-darwin/lib/rustlib/src/rust/library/core/src/iter/range.rs:965
80201210: 1141         	addi	sp, sp, -0x10
80201212: e406         	sd	ra, 0x8(sp)
80201214: e02a         	sd	a0, 0x0(sp)
; /Users/lewis/.rustup/toolchains/stable-aarch64-apple-darwin/lib/rustlib/src/rust/library/core/src/iter/range.rs:966
80201216: 00000097     	auipc	ra, 0x0
8020121a: 07c080e7     	jalr	0x7c(ra) <_$LT$core..ops..range..Range$LT$T$GT$$u20$as$u20$core..iter..range..RangeIteratorImpl$GT$::spec_next_back::h2d91a9dc8632ebe7>
8020121e: 60a2         	ld	ra, 0x8(sp)
; /Users/lewis/.rustup/toolchains/stable-aarch64-apple-darwin/lib/rustlib/src/rust/library/core/src/iter/range.rs:967
80201220: 0141         	addi	sp, sp, 0x10
80201222: 8082         	ret

0000000080201224 <core::iter::traits::iterator::Iterator::rev::h64ab2d97b93b448f>:
; core::iter::traits::iterator::Iterator::rev::h64ab2d97b93b448f():
; /Users/lewis/.rustup/toolchains/stable-aarch64-apple-darwin/lib/rustlib/src/rust/library/core/src/iter/traits/iterator.rs:3348
80201224: 1141         	addi	sp, sp, -0x10
80201226: e02a         	sd	a0, 0x0(sp)
80201228: e42e         	sd	a1, 0x8(sp)
; /Users/lewis/.rustup/toolchains/stable-aarch64-apple-darwin/lib/rustlib/src/rust/library/core/src/iter/traits/iterator.rs:3353
8020122a: 0141         	addi	sp, sp, 0x10
8020122c: 8082         	ret

000000008020122e <core::iter::traits::iterator::Iterator::fold::h8772d137de9f8f68>:
; core::iter::traits::iterator::Iterator::fold::h8772d137de9f8f68():
; /Users/lewis/.rustup/toolchains/stable-aarch64-apple-darwin/lib/rustlib/src/rust/library/core/src/iter/traits/iterator.rs:2577
8020122e: 7139         	addi	sp, sp, -0x40
80201230: fc06         	sd	ra, 0x38(sp)
80201232: e02a         	sd	a0, 0x0(sp)
80201234: e42e         	sd	a1, 0x8(sp)
; /Users/lewis/.rustup/toolchains/stable-aarch64-apple-darwin/lib/rustlib/src/rust/library/core/src/iter/traits/iterator.rs:2583
80201236: a009         	j	0x80201238 <core::iter::traits::iterator::Iterator::fold::h8772d137de9f8f68+0xa>
80201238: 850a         	mv	a0, sp
; /Users/lewis/.rustup/toolchains/stable-aarch64-apple-darwin/lib/rustlib/src/rust/library/core/src/iter/traits/iterator.rs:2583
8020123a: 00000097     	auipc	ra, 0x0
8020123e: fc2080e7     	jalr	-0x3e(ra) <core::iter::range::_$LT$impl$u20$core..iter..traits..iterator..Iterator$u20$for$u20$core..ops..range..Range$LT$A$GT$$GT$::next::h7a9ebaf306039811>
80201242: ec2a         	sd	a0, 0x18(sp)
80201244: f02e         	sd	a1, 0x20(sp)
80201246: 6562         	ld	a0, 0x18(sp)
80201248: 4585         	li	a1, 0x1
8020124a: 00b51c63     	bne	a0, a1, 0x80201262 <core::iter::traits::iterator::Iterator::fold::h8772d137de9f8f68+0x34>
8020124e: a009         	j	0x80201250 <core::iter::traits::iterator::Iterator::fold::h8772d137de9f8f68+0x22>
80201250: 7582         	ld	a1, 0x20(sp)
80201252: f82e         	sd	a1, 0x30(sp)
80201254: 01710513     	addi	a0, sp, 0x17
; /Users/lewis/.rustup/toolchains/stable-aarch64-apple-darwin/lib/rustlib/src/rust/library/core/src/iter/traits/iterator.rs:2584
80201258: 00002097     	auipc	ra, 0x2
8020125c: c7a080e7     	jalr	-0x386(ra) <core::iter::traits::iterator::Iterator::for_each::call::_$u7b$$u7b$closure$u7d$$u7d$::h20db0023471b6656>
; /Users/lewis/.rustup/toolchains/stable-aarch64-apple-darwin/lib/rustlib/src/rust/library/core/src/iter/traits/iterator.rs:2583
80201260: bfe1         	j	0x80201238 <core::iter::traits::iterator::Iterator::fold::h8772d137de9f8f68+0xa>
80201262: 70e2         	ld	ra, 0x38(sp)
; /Users/lewis/.rustup/toolchains/stable-aarch64-apple-darwin/lib/rustlib/src/rust/library/core/src/iter/traits/iterator.rs:2587
80201264: 6121         	addi	sp, sp, 0x40
80201266: 8082         	ret

0000000080201268 <core::iter::traits::iterator::Iterator::for_each::h3ae889e37687f162>:
; core::iter::traits::iterator::Iterator::for_each::h3ae889e37687f162():
; /Users/lewis/.rustup/toolchains/stable-aarch64-apple-darwin/lib/rustlib/src/rust/library/core/src/iter/traits/iterator.rs:803
80201268: 1101         	addi	sp, sp, -0x20
8020126a: ec06         	sd	ra, 0x18(sp)
8020126c: e02a         	sd	a0, 0x0(sp)
8020126e: e42e         	sd	a1, 0x8(sp)
; /Users/lewis/.rustup/toolchains/stable-aarch64-apple-darwin/lib/rustlib/src/rust/library/core/src/iter/traits/iterator.rs:813
80201270: 00000097     	auipc	ra, 0x0
80201274: fbe080e7     	jalr	-0x42(ra) <core::iter::traits::iterator::Iterator::fold::h8772d137de9f8f68>
80201278: 60e2         	ld	ra, 0x18(sp)
; /Users/lewis/.rustup/toolchains/stable-aarch64-apple-darwin/lib/rustlib/src/rust/library/core/src/iter/traits/iterator.rs:814
8020127a: 6105         	addi	sp, sp, 0x20
8020127c: 8082         	ret

000000008020127e <_$LT$I$u20$as$u20$core..iter..traits..collect..IntoIterator$GT$::into_iter::h3bed3cee3382c0ac>:
; _$LT$I$u20$as$u20$core..iter..traits..collect..IntoIterator$GT$::into_iter::h3bed3cee3382c0ac():
; /Users/lewis/.rustup/toolchains/stable-aarch64-apple-darwin/lib/rustlib/src/rust/library/core/src/iter/traits/collect.rs:356
8020127e: 1141         	addi	sp, sp, -0x10
80201280: c42a         	sw	a0, 0x8(sp)
80201282: c62e         	sw	a1, 0xc(sp)
; /Users/lewis/.rustup/toolchains/stable-aarch64-apple-darwin/lib/rustlib/src/rust/library/core/src/iter/traits/collect.rs:358
80201284: 0141         	addi	sp, sp, 0x10
80201286: 8082         	ret

0000000080201288 <_$LT$I$u20$as$u20$core..iter..traits..collect..IntoIterator$GT$::into_iter::ha7503eb17e0e571b>:
; _$LT$I$u20$as$u20$core..iter..traits..collect..IntoIterator$GT$::into_iter::ha7503eb17e0e571b():
; /Users/lewis/.rustup/toolchains/stable-aarch64-apple-darwin/lib/rustlib/src/rust/library/core/src/iter/traits/collect.rs:356
80201288: 1141         	addi	sp, sp, -0x10
8020128a: e02a         	sd	a0, 0x0(sp)
8020128c: e42e         	sd	a1, 0x8(sp)
; /Users/lewis/.rustup/toolchains/stable-aarch64-apple-darwin/lib/rustlib/src/rust/library/core/src/iter/traits/collect.rs:358
8020128e: 0141         	addi	sp, sp, 0x10
80201290: 8082         	ret

0000000080201292 <_$LT$core..ops..range..Range$LT$T$GT$$u20$as$u20$core..iter..range..RangeIteratorImpl$GT$::spec_next_back::h2d91a9dc8632ebe7>:
; _$LT$core..ops..range..Range$LT$T$GT$$u20$as$u20$core..iter..range..RangeIteratorImpl$GT$::spec_next_back::h2d91a9dc8632ebe7():
; /Users/lewis/.rustup/toolchains/stable-aarch64-apple-darwin/lib/rustlib/src/rust/library/core/src/iter/range.rs:796
80201292: 7139         	addi	sp, sp, -0x40
80201294: fc06         	sd	ra, 0x38(sp)
80201296: 85aa         	mv	a1, a0
80201298: e42e         	sd	a1, 0x8(sp)
8020129a: f02e         	sd	a1, 0x20(sp)
; /Users/lewis/.rustup/toolchains/stable-aarch64-apple-darwin/lib/rustlib/src/rust/library/core/src/iter/range.rs:797
8020129c: 00858513     	addi	a0, a1, 0x8
802012a0: f42e         	sd	a1, 0x28(sp)
802012a2: f82a         	sd	a0, 0x30(sp)
; /Users/lewis/.rustup/toolchains/stable-aarch64-apple-darwin/lib/rustlib/src/rust/library/core/src/cmp.rs:1720
802012a4: 6188         	ld	a0, 0x0(a1)
802012a6: 658c         	ld	a1, 0x8(a1)
; /Users/lewis/.rustup/toolchains/stable-aarch64-apple-darwin/lib/rustlib/src/rust/library/core/src/iter/range.rs:797
802012a8: 00b56663     	bltu	a0, a1, 0x802012b4 <_$LT$core..ops..range..Range$LT$T$GT$$u20$as$u20$core..iter..range..RangeIteratorImpl$GT$::spec_next_back::h2d91a9dc8632ebe7+0x22>
802012ac: a009         	j	0x802012ae <_$LT$core..ops..range..Range$LT$T$GT$$u20$as$u20$core..iter..range..RangeIteratorImpl$GT$::spec_next_back::h2d91a9dc8632ebe7+0x1c>
802012ae: 4501         	li	a0, 0x0
; /Users/lewis/.rustup/toolchains/stable-aarch64-apple-darwin/lib/rustlib/src/rust/library/core/src/iter/range.rs:802
802012b0: e82a         	sd	a0, 0x10(sp)
; /Users/lewis/.rustup/toolchains/stable-aarch64-apple-darwin/lib/rustlib/src/rust/library/core/src/iter/range.rs:797
802012b2: a00d         	j	0x802012d4 <_$LT$core..ops..range..Range$LT$T$GT$$u20$as$u20$core..iter..range..RangeIteratorImpl$GT$::spec_next_back::h2d91a9dc8632ebe7+0x42>
802012b4: 6522         	ld	a0, 0x8(sp)
; /Users/lewis/.rustup/toolchains/stable-aarch64-apple-darwin/lib/rustlib/src/rust/library/core/src/iter/range.rs:799
802012b6: 6508         	ld	a0, 0x8(a0)
802012b8: 4585         	li	a1, 0x1
802012ba: e02e         	sd	a1, 0x0(sp)
802012bc: 00002097     	auipc	ra, 0x2
802012c0: 2b6080e7     	jalr	0x2b6(ra) <_$LT$usize$u20$as$u20$core..iter..range..Step$GT$::backward_unchecked::h698616470b33bf99>
802012c4: 65a2         	ld	a1, 0x8(sp)
802012c6: 862a         	mv	a2, a0
802012c8: 6502         	ld	a0, 0x0(sp)
802012ca: e590         	sd	a2, 0x8(a1)
; /Users/lewis/.rustup/toolchains/stable-aarch64-apple-darwin/lib/rustlib/src/rust/library/core/src/iter/range.rs:800
802012cc: 658c         	ld	a1, 0x8(a1)
802012ce: ec2e         	sd	a1, 0x18(sp)
802012d0: e82a         	sd	a0, 0x10(sp)
; /Users/lewis/.rustup/toolchains/stable-aarch64-apple-darwin/lib/rustlib/src/rust/library/core/src/iter/range.rs:797
802012d2: a009         	j	0x802012d4 <_$LT$core..ops..range..Range$LT$T$GT$$u20$as$u20$core..iter..range..RangeIteratorImpl$GT$::spec_next_back::h2d91a9dc8632ebe7+0x42>
; /Users/lewis/.rustup/toolchains/stable-aarch64-apple-darwin/lib/rustlib/src/rust/library/core/src/iter/range.rs:804
802012d4: 6542         	ld	a0, 0x10(sp)
802012d6: 65e2         	ld	a1, 0x18(sp)
802012d8: 70e2         	ld	ra, 0x38(sp)
802012da: 6121         	addi	sp, sp, 0x40
802012dc: 8082         	ret

00000000802012de <_$LT$core..ops..range..Range$LT$T$GT$$u20$as$u20$core..iter..range..RangeIteratorImpl$GT$::spec_next::h86c24901f38f9bdd>:
; _$LT$core..ops..range..Range$LT$T$GT$$u20$as$u20$core..iter..range..RangeIteratorImpl$GT$::spec_next::h86c24901f38f9bdd():
; /Users/lewis/.rustup/toolchains/stable-aarch64-apple-darwin/lib/rustlib/src/rust/library/core/src/iter/range.rs:751
802012de: 715d         	addi	sp, sp, -0x50
802012e0: e486         	sd	ra, 0x48(sp)
802012e2: 85aa         	mv	a1, a0
802012e4: ec2e         	sd	a1, 0x18(sp)
802012e6: f42e         	sd	a1, 0x28(sp)
; /Users/lewis/.rustup/toolchains/stable-aarch64-apple-darwin/lib/rustlib/src/rust/library/core/src/iter/range.rs:752
802012e8: 00458513     	addi	a0, a1, 0x4
802012ec: fc2e         	sd	a1, 0x38(sp)
802012ee: e0aa         	sd	a0, 0x40(sp)
; /Users/lewis/.rustup/toolchains/stable-aarch64-apple-darwin/lib/rustlib/src/rust/library/core/src/cmp.rs:1720
802012f0: 4188         	lw	a0, 0x0(a1)
802012f2: 41cc         	lw	a1, 0x4(a1)
; /Users/lewis/.rustup/toolchains/stable-aarch64-apple-darwin/lib/rustlib/src/rust/library/core/src/iter/range.rs:752
802012f4: 00b54663     	blt	a0, a1, 0x80201300 <_$LT$core..ops..range..Range$LT$T$GT$$u20$as$u20$core..iter..range..RangeIteratorImpl$GT$::spec_next::h86c24901f38f9bdd+0x22>
802012f8: a009         	j	0x802012fa <_$LT$core..ops..range..Range$LT$T$GT$$u20$as$u20$core..iter..range..RangeIteratorImpl$GT$::spec_next::h86c24901f38f9bdd+0x1c>
802012fa: 4501         	li	a0, 0x0
; /Users/lewis/.rustup/toolchains/stable-aarch64-apple-darwin/lib/rustlib/src/rust/library/core/src/iter/range.rs:758
802012fc: d02a         	sw	a0, 0x20(sp)
; /Users/lewis/.rustup/toolchains/stable-aarch64-apple-darwin/lib/rustlib/src/rust/library/core/src/iter/range.rs:752
802012fe: a01d         	j	0x80201324 <_$LT$core..ops..range..Range$LT$T$GT$$u20$as$u20$core..iter..range..RangeIteratorImpl$GT$::spec_next::h86c24901f38f9bdd+0x46>
80201300: 6562         	ld	a0, 0x18(sp)
; /Users/lewis/.rustup/toolchains/stable-aarch64-apple-darwin/lib/rustlib/src/rust/library/core/src/iter/range.rs:755
80201302: 4108         	lw	a0, 0x0(a0)
80201304: e42a         	sd	a0, 0x8(sp)
; /Users/lewis/.rustup/toolchains/stable-aarch64-apple-darwin/lib/rustlib/src/rust/library/core/src/iter/range.rs:753
80201306: da2a         	sw	a0, 0x34(sp)
80201308: 4585         	li	a1, 0x1
8020130a: e82e         	sd	a1, 0x10(sp)
; /Users/lewis/.rustup/toolchains/stable-aarch64-apple-darwin/lib/rustlib/src/rust/library/core/src/iter/range.rs:755
8020130c: 00002097     	auipc	ra, 0x2
80201310: 1ce080e7     	jalr	0x1ce(ra) <_$LT$i32$u20$as$u20$core..iter..range..Step$GT$::forward_unchecked::h273c2180868752b8>
80201314: 66e2         	ld	a3, 0x18(sp)
80201316: 65a2         	ld	a1, 0x8(sp)
80201318: 862a         	mv	a2, a0
8020131a: 6542         	ld	a0, 0x10(sp)
8020131c: c290         	sw	a2, 0x0(a3)
; /Users/lewis/.rustup/toolchains/stable-aarch64-apple-darwin/lib/rustlib/src/rust/library/core/src/iter/range.rs:756
8020131e: d22e         	sw	a1, 0x24(sp)
80201320: d02a         	sw	a0, 0x20(sp)
; /Users/lewis/.rustup/toolchains/stable-aarch64-apple-darwin/lib/rustlib/src/rust/library/core/src/iter/range.rs:752
80201322: a009         	j	0x80201324 <_$LT$core..ops..range..Range$LT$T$GT$$u20$as$u20$core..iter..range..RangeIteratorImpl$GT$::spec_next::h86c24901f38f9bdd+0x46>
; /Users/lewis/.rustup/toolchains/stable-aarch64-apple-darwin/lib/rustlib/src/rust/library/core/src/iter/range.rs:760
80201324: 5502         	lw	a0, 0x20(sp)
80201326: 5592         	lw	a1, 0x24(sp)
80201328: 60a6         	ld	ra, 0x48(sp)
8020132a: 6161         	addi	sp, sp, 0x50
8020132c: 8082         	ret

000000008020132e <_$LT$core..ops..range..Range$LT$T$GT$$u20$as$u20$core..iter..range..RangeIteratorImpl$GT$::spec_next::hba565c424aeaf588>:
; _$LT$core..ops..range..Range$LT$T$GT$$u20$as$u20$core..iter..range..RangeIteratorImpl$GT$::spec_next::hba565c424aeaf588():
; /Users/lewis/.rustup/toolchains/stable-aarch64-apple-darwin/lib/rustlib/src/rust/library/core/src/iter/range.rs:751
8020132e: 715d         	addi	sp, sp, -0x50
80201330: e486         	sd	ra, 0x48(sp)
80201332: 85aa         	mv	a1, a0
80201334: e82e         	sd	a1, 0x10(sp)
80201336: f42e         	sd	a1, 0x28(sp)
; /Users/lewis/.rustup/toolchains/stable-aarch64-apple-darwin/lib/rustlib/src/rust/library/core/src/iter/range.rs:752
80201338: 00858513     	addi	a0, a1, 0x8
8020133c: fc2e         	sd	a1, 0x38(sp)
8020133e: e0aa         	sd	a0, 0x40(sp)
; /Users/lewis/.rustup/toolchains/stable-aarch64-apple-darwin/lib/rustlib/src/rust/library/core/src/cmp.rs:1720
80201340: 6188         	ld	a0, 0x0(a1)
80201342: 658c         	ld	a1, 0x8(a1)
; /Users/lewis/.rustup/toolchains/stable-aarch64-apple-darwin/lib/rustlib/src/rust/library/core/src/iter/range.rs:752
80201344: 00b56663     	bltu	a0, a1, 0x80201350 <_$LT$core..ops..range..Range$LT$T$GT$$u20$as$u20$core..iter..range..RangeIteratorImpl$GT$::spec_next::hba565c424aeaf588+0x22>
80201348: a009         	j	0x8020134a <_$LT$core..ops..range..Range$LT$T$GT$$u20$as$u20$core..iter..range..RangeIteratorImpl$GT$::spec_next::hba565c424aeaf588+0x1c>
8020134a: 4501         	li	a0, 0x0
; /Users/lewis/.rustup/toolchains/stable-aarch64-apple-darwin/lib/rustlib/src/rust/library/core/src/iter/range.rs:758
8020134c: ec2a         	sd	a0, 0x18(sp)
; /Users/lewis/.rustup/toolchains/stable-aarch64-apple-darwin/lib/rustlib/src/rust/library/core/src/iter/range.rs:752
8020134e: a01d         	j	0x80201374 <_$LT$core..ops..range..Range$LT$T$GT$$u20$as$u20$core..iter..range..RangeIteratorImpl$GT$::spec_next::hba565c424aeaf588+0x46>
80201350: 6542         	ld	a0, 0x10(sp)
; /Users/lewis/.rustup/toolchains/stable-aarch64-apple-darwin/lib/rustlib/src/rust/library/core/src/iter/range.rs:753
80201352: 6108         	ld	a0, 0x0(a0)
80201354: e02a         	sd	a0, 0x0(sp)
80201356: f82a         	sd	a0, 0x30(sp)
80201358: 4585         	li	a1, 0x1
8020135a: e42e         	sd	a1, 0x8(sp)
; /Users/lewis/.rustup/toolchains/stable-aarch64-apple-darwin/lib/rustlib/src/rust/library/core/src/iter/range.rs:755
8020135c: 00002097     	auipc	ra, 0x2
80201360: 1ee080e7     	jalr	0x1ee(ra) <_$LT$usize$u20$as$u20$core..iter..range..Step$GT$::forward_unchecked::h0cfad653b2428a4e>
80201364: 66c2         	ld	a3, 0x10(sp)
80201366: 6582         	ld	a1, 0x0(sp)
80201368: 862a         	mv	a2, a0
8020136a: 6522         	ld	a0, 0x8(sp)
8020136c: e290         	sd	a2, 0x0(a3)
; /Users/lewis/.rustup/toolchains/stable-aarch64-apple-darwin/lib/rustlib/src/rust/library/core/src/iter/range.rs:756
8020136e: f02e         	sd	a1, 0x20(sp)
80201370: ec2a         	sd	a0, 0x18(sp)
; /Users/lewis/.rustup/toolchains/stable-aarch64-apple-darwin/lib/rustlib/src/rust/library/core/src/iter/range.rs:752
80201372: a009         	j	0x80201374 <_$LT$core..ops..range..Range$LT$T$GT$$u20$as$u20$core..iter..range..RangeIteratorImpl$GT$::spec_next::hba565c424aeaf588+0x46>
; /Users/lewis/.rustup/toolchains/stable-aarch64-apple-darwin/lib/rustlib/src/rust/library/core/src/iter/range.rs:760
80201374: 6562         	ld	a0, 0x18(sp)
80201376: 7582         	ld	a1, 0x20(sp)
80201378: 60a6         	ld	ra, 0x48(sp)
8020137a: 6161         	addi	sp, sp, 0x50
8020137c: 8082         	ret

000000008020137e <core::fmt::num::_$LT$impl$u20$core..fmt..Debug$u20$for$u20$i32$GT$::fmt::h77540387aa995ad4>:
; core::fmt::num::_$LT$impl$u20$core..fmt..Debug$u20$for$u20$i32$GT$::fmt::h77540387aa995ad4():
; /Users/lewis/.rustup/toolchains/stable-aarch64-apple-darwin/lib/rustlib/src/rust/library/core/src/fmt/num.rs:186
8020137e: 7179         	addi	sp, sp, -0x30
80201380: f406         	sd	ra, 0x28(sp)
80201382: e02e         	sd	a1, 0x0(sp)
80201384: e42a         	sd	a0, 0x8(sp)
80201386: ec2a         	sd	a0, 0x18(sp)
80201388: f02e         	sd	a1, 0x20(sp)
; /Users/lewis/.rustup/toolchains/stable-aarch64-apple-darwin/lib/rustlib/src/rust/library/core/src/fmt/num.rs:187
8020138a: 0345c503     	lbu	a0, 0x34(a1)
8020138e: 8941         	andi	a0, a0, 0x10
80201390: e909         	bnez	a0, 0x802013a2 <core::fmt::num::_$LT$impl$u20$core..fmt..Debug$u20$for$u20$i32$GT$::fmt::h77540387aa995ad4+0x24>
80201392: a009         	j	0x80201394 <core::fmt::num::_$LT$impl$u20$core..fmt..Debug$u20$for$u20$i32$GT$::fmt::h77540387aa995ad4+0x16>
80201394: 6502         	ld	a0, 0x0(sp)
; /Users/lewis/.rustup/toolchains/stable-aarch64-apple-darwin/lib/rustlib/src/rust/library/core/src/fmt/num.rs:189
80201396: 03454503     	lbu	a0, 0x34(a0)
8020139a: 02057513     	andi	a0, a0, 0x20
8020139e: c919         	beqz	a0, 0x802013b4 <core::fmt::num::_$LT$impl$u20$core..fmt..Debug$u20$for$u20$i32$GT$::fmt::h77540387aa995ad4+0x36>
802013a0: a01d         	j	0x802013c6 <core::fmt::num::_$LT$impl$u20$core..fmt..Debug$u20$for$u20$i32$GT$::fmt::h77540387aa995ad4+0x48>
802013a2: 6582         	ld	a1, 0x0(sp)
802013a4: 6522         	ld	a0, 0x8(sp)
; /Users/lewis/.rustup/toolchains/stable-aarch64-apple-darwin/lib/rustlib/src/rust/library/core/src/fmt/num.rs:188
802013a6: 00004097     	auipc	ra, 0x4
802013aa: b9a080e7     	jalr	-0x466(ra) <core::fmt::num::_$LT$impl$u20$core..fmt..LowerHex$u20$for$u20$u32$GT$::fmt::h3cb3f6a742a684eb>
802013ae: 00a10ba3     	sb	a0, 0x17(sp)
802013b2: a025         	j	0x802013da <core::fmt::num::_$LT$impl$u20$core..fmt..Debug$u20$for$u20$i32$GT$::fmt::h77540387aa995ad4+0x5c>
802013b4: 6582         	ld	a1, 0x0(sp)
802013b6: 6522         	ld	a0, 0x8(sp)
; /Users/lewis/.rustup/toolchains/stable-aarch64-apple-darwin/lib/rustlib/src/rust/library/core/src/fmt/num.rs:192
802013b8: 00004097     	auipc	ra, 0x4
802013bc: d64080e7     	jalr	-0x29c(ra) <core::fmt::num::imp::_$LT$impl$u20$core..fmt..Display$u20$for$u20$i32$GT$::fmt::h3cb9ff617446a8a2>
802013c0: 00a10ba3     	sb	a0, 0x17(sp)
802013c4: a811         	j	0x802013d8 <core::fmt::num::_$LT$impl$u20$core..fmt..Debug$u20$for$u20$i32$GT$::fmt::h77540387aa995ad4+0x5a>
802013c6: 6582         	ld	a1, 0x0(sp)
802013c8: 6522         	ld	a0, 0x8(sp)
; /Users/lewis/.rustup/toolchains/stable-aarch64-apple-darwin/lib/rustlib/src/rust/library/core/src/fmt/num.rs:190
802013ca: 00004097     	auipc	ra, 0x4
802013ce: bee080e7     	jalr	-0x412(ra) <core::fmt::num::_$LT$impl$u20$core..fmt..UpperHex$u20$for$u20$u32$GT$::fmt::h0ed1430112dfdf77>
802013d2: 00a10ba3     	sb	a0, 0x17(sp)
802013d6: a009         	j	0x802013d8 <core::fmt::num::_$LT$impl$u20$core..fmt..Debug$u20$for$u20$i32$GT$::fmt::h77540387aa995ad4+0x5a>
; /Users/lewis/.rustup/toolchains/stable-aarch64-apple-darwin/lib/rustlib/src/rust/library/core/src/fmt/num.rs:187
802013d8: a009         	j	0x802013da <core::fmt::num::_$LT$impl$u20$core..fmt..Debug$u20$for$u20$i32$GT$::fmt::h77540387aa995ad4+0x5c>
; /Users/lewis/.rustup/toolchains/stable-aarch64-apple-darwin/lib/rustlib/src/rust/library/core/src/fmt/num.rs:194
802013da: 01714503     	lbu	a0, 0x17(sp)
802013de: 8905         	andi	a0, a0, 0x1
802013e0: 70a2         	ld	ra, 0x28(sp)
802013e2: 6145         	addi	sp, sp, 0x30
802013e4: 8082         	ret

00000000802013e6 <core::fmt::num::_$LT$impl$u20$core..fmt..Debug$u20$for$u20$usize$GT$::fmt::hb9d87622cbfb39a3>:
; core::fmt::num::_$LT$impl$u20$core..fmt..Debug$u20$for$u20$usize$GT$::fmt::hb9d87622cbfb39a3():
; /Users/lewis/.rustup/toolchains/stable-aarch64-apple-darwin/lib/rustlib/src/rust/library/core/src/fmt/num.rs:186
802013e6: 7179         	addi	sp, sp, -0x30
802013e8: f406         	sd	ra, 0x28(sp)
802013ea: e02e         	sd	a1, 0x0(sp)
802013ec: e42a         	sd	a0, 0x8(sp)
802013ee: ec2a         	sd	a0, 0x18(sp)
802013f0: f02e         	sd	a1, 0x20(sp)
; /Users/lewis/.rustup/toolchains/stable-aarch64-apple-darwin/lib/rustlib/src/rust/library/core/src/fmt/num.rs:187
802013f2: 0345c503     	lbu	a0, 0x34(a1)
802013f6: 8941         	andi	a0, a0, 0x10
802013f8: e909         	bnez	a0, 0x8020140a <core::fmt::num::_$LT$impl$u20$core..fmt..Debug$u20$for$u20$usize$GT$::fmt::hb9d87622cbfb39a3+0x24>
802013fa: a009         	j	0x802013fc <core::fmt::num::_$LT$impl$u20$core..fmt..Debug$u20$for$u20$usize$GT$::fmt::hb9d87622cbfb39a3+0x16>
802013fc: 6502         	ld	a0, 0x0(sp)
; /Users/lewis/.rustup/toolchains/stable-aarch64-apple-darwin/lib/rustlib/src/rust/library/core/src/fmt/num.rs:189
802013fe: 03454503     	lbu	a0, 0x34(a0)
80201402: 02057513     	andi	a0, a0, 0x20
80201406: c919         	beqz	a0, 0x8020141c <core::fmt::num::_$LT$impl$u20$core..fmt..Debug$u20$for$u20$usize$GT$::fmt::hb9d87622cbfb39a3+0x36>
80201408: a01d         	j	0x8020142e <core::fmt::num::_$LT$impl$u20$core..fmt..Debug$u20$for$u20$usize$GT$::fmt::hb9d87622cbfb39a3+0x48>
8020140a: 6582         	ld	a1, 0x0(sp)
8020140c: 6522         	ld	a0, 0x8(sp)
; /Users/lewis/.rustup/toolchains/stable-aarch64-apple-darwin/lib/rustlib/src/rust/library/core/src/fmt/num.rs:188
8020140e: 00004097     	auipc	ra, 0x4
80201412: c22080e7     	jalr	-0x3de(ra) <core::fmt::num::_$LT$impl$u20$core..fmt..LowerHex$u20$for$u20$usize$GT$::fmt::hc4c08e143af832aa>
80201416: 00a10ba3     	sb	a0, 0x17(sp)
8020141a: a025         	j	0x80201442 <core::fmt::num::_$LT$impl$u20$core..fmt..Debug$u20$for$u20$usize$GT$::fmt::hb9d87622cbfb39a3+0x5c>
8020141c: 6582         	ld	a1, 0x0(sp)
8020141e: 6522         	ld	a0, 0x8(sp)
; /Users/lewis/.rustup/toolchains/stable-aarch64-apple-darwin/lib/rustlib/src/rust/library/core/src/fmt/num.rs:192
80201420: 00004097     	auipc	ra, 0x4
80201424: fe2080e7     	jalr	-0x1e(ra) <core::fmt::num::imp::_$LT$impl$u20$core..fmt..Display$u20$for$u20$usize$GT$::fmt::he8f7951851a21d3a>
80201428: 00a10ba3     	sb	a0, 0x17(sp)
8020142c: a811         	j	0x80201440 <core::fmt::num::_$LT$impl$u20$core..fmt..Debug$u20$for$u20$usize$GT$::fmt::hb9d87622cbfb39a3+0x5a>
8020142e: 6582         	ld	a1, 0x0(sp)
80201430: 6522         	ld	a0, 0x8(sp)
; /Users/lewis/.rustup/toolchains/stable-aarch64-apple-darwin/lib/rustlib/src/rust/library/core/src/fmt/num.rs:190
80201432: 00004097     	auipc	ra, 0x4
80201436: c74080e7     	jalr	-0x38c(ra) <core::fmt::num::_$LT$impl$u20$core..fmt..UpperHex$u20$for$u20$usize$GT$::fmt::h6b6a69bcc18c465b>
8020143a: 00a10ba3     	sb	a0, 0x17(sp)
8020143e: a009         	j	0x80201440 <core::fmt::num::_$LT$impl$u20$core..fmt..Debug$u20$for$u20$usize$GT$::fmt::hb9d87622cbfb39a3+0x5a>
; /Users/lewis/.rustup/toolchains/stable-aarch64-apple-darwin/lib/rustlib/src/rust/library/core/src/fmt/num.rs:187
80201440: a009         	j	0x80201442 <core::fmt::num::_$LT$impl$u20$core..fmt..Debug$u20$for$u20$usize$GT$::fmt::hb9d87622cbfb39a3+0x5c>
; /Users/lewis/.rustup/toolchains/stable-aarch64-apple-darwin/lib/rustlib/src/rust/library/core/src/fmt/num.rs:194
80201442: 01714503     	lbu	a0, 0x17(sp)
80201446: 8905         	andi	a0, a0, 0x1
80201448: 70a2         	ld	ra, 0x28(sp)
8020144a: 6145         	addi	sp, sp, 0x30
8020144c: 8082         	ret

000000008020144e <core::ptr::non_null::NonNull$LT$T$GT$::new_unchecked::h38d29ab659a563d3>:
; core::ptr::non_null::NonNull$LT$T$GT$::new_unchecked::h38d29ab659a563d3():
; /Users/lewis/.rustup/toolchains/stable-aarch64-apple-darwin/lib/rustlib/src/rust/library/core/src/ptr/non_null.rs:195
8020144e: 1101         	addi	sp, sp, -0x20
80201450: ec06         	sd	ra, 0x18(sp)
80201452: e42a         	sd	a0, 0x8(sp)
80201454: e82a         	sd	a0, 0x10(sp)
; /Users/lewis/.rustup/toolchains/stable-aarch64-apple-darwin/lib/rustlib/src/rust/library/core/src/ub_checks.rs:76
80201456: a009         	j	0x80201458 <core::ptr::non_null::NonNull$LT$T$GT$::new_unchecked::h38d29ab659a563d3+0xa>
80201458: 6522         	ld	a0, 0x8(sp)
; /Users/lewis/.rustup/toolchains/stable-aarch64-apple-darwin/lib/rustlib/src/rust/library/core/src/ub_checks.rs:77
8020145a: fffff097     	auipc	ra, 0xfffff
8020145e: f4e080e7     	jalr	-0xb2(ra) <free_mem_start+0xff5f73a8>
; /Users/lewis/.rustup/toolchains/stable-aarch64-apple-darwin/lib/rustlib/src/rust/library/core/src/ub_checks.rs:76
80201462: a009         	j	0x80201464 <core::ptr::non_null::NonNull$LT$T$GT$::new_unchecked::h38d29ab659a563d3+0x16>
80201464: 6522         	ld	a0, 0x8(sp)
80201466: 60e2         	ld	ra, 0x18(sp)
; /Users/lewis/.rustup/toolchains/stable-aarch64-apple-darwin/lib/rustlib/src/rust/library/core/src/ptr/non_null.rs:205
80201468: 6105         	addi	sp, sp, 0x20
8020146a: 8082         	ret

000000008020146c <core::ptr::non_null::NonNull$LT$T$GT$::new::ha2eaaaf040476a01>:
; core::ptr::non_null::NonNull$LT$T$GT$::new::ha2eaaaf040476a01():
; /Users/lewis/.rustup/toolchains/stable-aarch64-apple-darwin/lib/rustlib/src/rust/library/core/src/ptr/non_null.rs:224
8020146c: 7179         	addi	sp, sp, -0x30
8020146e: f406         	sd	ra, 0x28(sp)
80201470: e02a         	sd	a0, 0x0(sp)
80201472: e82a         	sd	a0, 0x10(sp)
; /Users/lewis/.rustup/toolchains/stable-aarch64-apple-darwin/lib/rustlib/src/rust/library/core/src/ptr/mut_ptr.rs:102
80201474: ec2a         	sd	a0, 0x18(sp)
; /Users/lewis/.rustup/toolchains/stable-aarch64-apple-darwin/lib/rustlib/src/rust/library/core/src/ptr/const_ptr.rs:54
80201476: f02a         	sd	a0, 0x20(sp)
; /Users/lewis/.rustup/toolchains/stable-aarch64-apple-darwin/lib/rustlib/src/rust/library/core/src/ptr/non_null.rs:225
80201478: e509         	bnez	a0, 0x80201482 <core::ptr::non_null::NonNull$LT$T$GT$::new::ha2eaaaf040476a01+0x16>
8020147a: a009         	j	0x8020147c <core::ptr::non_null::NonNull$LT$T$GT$::new::ha2eaaaf040476a01+0x10>
8020147c: 4501         	li	a0, 0x0
; /Users/lewis/.rustup/toolchains/stable-aarch64-apple-darwin/lib/rustlib/src/rust/library/core/src/ptr/non_null.rs:229
8020147e: e42a         	sd	a0, 0x8(sp)
; /Users/lewis/.rustup/toolchains/stable-aarch64-apple-darwin/lib/rustlib/src/rust/library/core/src/ptr/non_null.rs:225
80201480: a011         	j	0x80201484 <core::ptr::non_null::NonNull$LT$T$GT$::new::ha2eaaaf040476a01+0x18>
; /Users/lewis/.rustup/toolchains/stable-aarch64-apple-darwin/lib/rustlib/src/rust/library/core/src/ub_checks.rs:76
80201482: a029         	j	0x8020148c <core::ptr::non_null::NonNull$LT$T$GT$::new::ha2eaaaf040476a01+0x20>
; /Users/lewis/.rustup/toolchains/stable-aarch64-apple-darwin/lib/rustlib/src/rust/library/core/src/ptr/non_null.rs:231
80201484: 6522         	ld	a0, 0x8(sp)
80201486: 70a2         	ld	ra, 0x28(sp)
80201488: 6145         	addi	sp, sp, 0x30
8020148a: 8082         	ret
8020148c: 6502         	ld	a0, 0x0(sp)
; /Users/lewis/.rustup/toolchains/stable-aarch64-apple-darwin/lib/rustlib/src/rust/library/core/src/ub_checks.rs:77
8020148e: fffff097     	auipc	ra, 0xfffff
80201492: f1a080e7     	jalr	-0xe6(ra) <free_mem_start+0xff5f73a8>
; /Users/lewis/.rustup/toolchains/stable-aarch64-apple-darwin/lib/rustlib/src/rust/library/core/src/ub_checks.rs:76
80201496: a009         	j	0x80201498 <core::ptr::non_null::NonNull$LT$T$GT$::new::ha2eaaaf040476a01+0x2c>
80201498: 6502         	ld	a0, 0x0(sp)
; /Users/lewis/.rustup/toolchains/stable-aarch64-apple-darwin/lib/rustlib/src/rust/library/core/src/ptr/non_null.rs:227
8020149a: e42a         	sd	a0, 0x8(sp)
; /Users/lewis/.rustup/toolchains/stable-aarch64-apple-darwin/lib/rustlib/src/rust/library/core/src/ptr/non_null.rs:225
8020149c: b7e5         	j	0x80201484 <core::ptr::non_null::NonNull$LT$T$GT$::new::ha2eaaaf040476a01+0x18>

000000008020149e <rust_begin_unwind>:
; rust_begin_unwind():
; /Users/lewis/Github/rust-to-riscv-asm/src/lang_items.rs:6
8020149e: 7141         	addi	sp, sp, -0x1f0
802014a0: f786         	sd	ra, 0x1e8(sp)
802014a2: f02a         	sd	a0, 0x20(sp)
802014a4: fe2a         	sd	a0, 0x138(sp)
; /Users/lewis/Github/rust-to-riscv-asm/src/lang_items.rs:7
802014a6: 00000097     	auipc	ra, 0x0
802014aa: ca6080e7     	jalr	-0x35a(ra) <core::panic::panic_info::PanicInfo::location::h91c400acb4df1053>
802014ae: f42a         	sd	a0, 0x28(sp)
802014b0: 7522         	ld	a0, 0x28(sp)
802014b2: c161         	beqz	a0, 0x80201572 <.Lpcrel_hi3+0x22>
802014b4: a009         	j	0x802014b6 <rust_begin_unwind+0x18>
802014b6: 7522         	ld	a0, 0x28(sp)
802014b8: e82a         	sd	a0, 0x10(sp)
802014ba: e2aa         	sd	a0, 0x140(sp)
; /Users/lewis/Github/rust-to-riscv-asm/src/lang_items.rs:10
802014bc: fffff097     	auipc	ra, 0xfffff
802014c0: dc8080e7     	jalr	-0x238(ra) <free_mem_start+0xff5f7284>
802014c4: 862a         	mv	a2, a0
802014c6: 6542         	ld	a0, 0x10(sp)
802014c8: f132         	sd	a2, 0xa0(sp)
802014ca: f52e         	sd	a1, 0xa8(sp)
802014cc: 1110         	addi	a2, sp, 0xa0
802014ce: f732         	sd	a2, 0x1a8(sp)

00000000802014d0 <.Lpcrel_hi0>:
; .Lpcrel_hi0():
; /Users/lewis/.rustup/toolchains/stable-aarch64-apple-darwin/lib/rustlib/src/rust/library/core/src/fmt/rt.rs:114
802014d0: 00000597     	auipc	a1, 0x0
802014d4: 7ae58593     	addi	a1, a1, 0x7ae
802014d8: fb2e         	sd	a1, 0x1b0(sp)
; /Users/lewis/.rustup/toolchains/stable-aarch64-apple-darwin/lib/rustlib/src/rust/library/core/src/ptr/non_null.rs:1767
802014da: ff32         	sd	a2, 0x1b8(sp)
; /Users/lewis/.rustup/toolchains/stable-aarch64-apple-darwin/lib/rustlib/src/rust/library/core/src/fmt/rt.rs:103
802014dc: ef32         	sd	a2, 0x198(sp)
802014de: f32e         	sd	a1, 0x1a0(sp)
; /Users/lewis/.rustup/toolchains/stable-aarch64-apple-darwin/lib/rustlib/src/rust/library/core/src/fmt/rt.rs:100
802014e0: 759a         	ld	a1, 0x1a0(sp)
802014e2: ed2e         	sd	a1, 0x98(sp)
802014e4: 65fa         	ld	a1, 0x198(sp)
802014e6: e92e         	sd	a1, 0x90(sp)
; /Users/lewis/Github/rust-to-riscv-asm/src/lang_items.rs:11
802014e8: fffff097     	auipc	ra, 0xfffff
802014ec: daa080e7     	jalr	-0x256(ra) <free_mem_start+0xff5f7292>
802014f0: 85aa         	mv	a1, a0
802014f2: 7502         	ld	a0, 0x20(sp)
802014f4: c3ae         	sw	a1, 0xc4(sp)
802014f6: 01d0         	addi	a2, sp, 0xc4
802014f8: ebb2         	sd	a2, 0x1d0(sp)

00000000802014fa <.Lpcrel_hi1>:
; .Lpcrel_hi1():
; /Users/lewis/.rustup/toolchains/stable-aarch64-apple-darwin/lib/rustlib/src/rust/library/core/src/fmt/rt.rs:114
802014fa: 00004597     	auipc	a1, 0x4
802014fe: d8258593     	addi	a1, a1, -0x27e
80201502: efae         	sd	a1, 0x1d8(sp)
; /Users/lewis/.rustup/toolchains/stable-aarch64-apple-darwin/lib/rustlib/src/rust/library/core/src/ptr/non_null.rs:1767
80201504: f3b2         	sd	a2, 0x1e0(sp)
; /Users/lewis/.rustup/toolchains/stable-aarch64-apple-darwin/lib/rustlib/src/rust/library/core/src/fmt/rt.rs:103
80201506: e3b2         	sd	a2, 0x1c0(sp)
80201508: e7ae         	sd	a1, 0x1c8(sp)
; /Users/lewis/.rustup/toolchains/stable-aarch64-apple-darwin/lib/rustlib/src/rust/library/core/src/fmt/rt.rs:100
8020150a: 65be         	ld	a1, 0x1c8(sp)
8020150c: fd2e         	sd	a1, 0xb8(sp)
8020150e: 659e         	ld	a1, 0x1c0(sp)
80201510: f92e         	sd	a1, 0xb0(sp)
; /Users/lewis/Github/rust-to-riscv-asm/src/lang_items.rs:12
80201512: 00000097     	auipc	ra, 0x0
80201516: c30080e7     	jalr	-0x3d0(ra) <core::panic::panic_info::PanicInfo::message::he406f02aa9496620>
8020151a: edaa         	sd	a0, 0xd8(sp)
8020151c: 09ac         	addi	a1, sp, 0xd8
8020151e: e32e         	sd	a1, 0x180(sp)

0000000080201520 <.Lpcrel_hi2>:
; .Lpcrel_hi2():
; /Users/lewis/.rustup/toolchains/stable-aarch64-apple-darwin/lib/rustlib/src/rust/library/core/src/fmt/rt.rs:114
80201520: 00000517     	auipc	a0, 0x0
80201524: c3a50513     	addi	a0, a0, -0x3c6
80201528: e72a         	sd	a0, 0x188(sp)
; /Users/lewis/.rustup/toolchains/stable-aarch64-apple-darwin/lib/rustlib/src/rust/library/core/src/ptr/non_null.rs:1767
8020152a: eb2e         	sd	a1, 0x190(sp)
; /Users/lewis/.rustup/toolchains/stable-aarch64-apple-darwin/lib/rustlib/src/rust/library/core/src/fmt/rt.rs:103
8020152c: faae         	sd	a1, 0x170(sp)
8020152e: feaa         	sd	a0, 0x178(sp)
; /Users/lewis/.rustup/toolchains/stable-aarch64-apple-darwin/lib/rustlib/src/rust/library/core/src/fmt/rt.rs:100
80201530: 7576         	ld	a0, 0x178(sp)
80201532: e9aa         	sd	a0, 0xd0(sp)
80201534: 7556         	ld	a0, 0x170(sp)
80201536: e5aa         	sd	a0, 0xc8(sp)
; /Users/lewis/Github/rust-to-riscv-asm/src/console.rs:26
80201538: 656a         	ld	a0, 0x98(sp)
8020153a: f4aa         	sd	a0, 0x68(sp)
8020153c: 654a         	ld	a0, 0x90(sp)
8020153e: f0aa         	sd	a0, 0x60(sp)
80201540: 756a         	ld	a0, 0xb8(sp)
80201542: fcaa         	sd	a0, 0x78(sp)
80201544: 754a         	ld	a0, 0xb0(sp)
80201546: f8aa         	sd	a0, 0x70(sp)
80201548: 654e         	ld	a0, 0xd0(sp)
8020154a: e52a         	sd	a0, 0x88(sp)
8020154c: 652e         	ld	a0, 0xc8(sp)
8020154e: e12a         	sd	a0, 0x80(sp)

0000000080201550 <.Lpcrel_hi3>:
; .Lpcrel_hi3():
; /Users/lewis/Github/rust-to-riscv-asm/src/console.rs:26
80201550: 00005517     	auipc	a0, 0x5
80201554: 23850593     	addi	a1, a0, 0x238
80201558: 1808         	addi	a0, sp, 0x30
8020155a: ec2a         	sd	a0, 0x18(sp)
8020155c: 1090         	addi	a2, sp, 0x60
8020155e: 00000097     	auipc	ra, 0x0
80201562: 73e080e7     	jalr	0x73e(ra) <core::fmt::Arguments::new_v1::h0a252c0bbe9fc041>
80201566: 6562         	ld	a0, 0x18(sp)
80201568: fffff097     	auipc	ra, 0xfffff
8020156c: d8e080e7     	jalr	-0x272(ra) <free_mem_start+0xff5f72f6>
80201570: a891         	j	0x802015c4 <.Lpcrel_hi5+0x22>
80201572: 7502         	ld	a0, 0x20(sp)
; /Users/lewis/Github/rust-to-riscv-asm/src/lang_items.rs:15
80201574: 00000097     	auipc	ra, 0x0
80201578: bce080e7     	jalr	-0x432(ra) <core::panic::panic_info::PanicInfo::message::he406f02aa9496620>
8020157c: fa2a         	sd	a0, 0x130(sp)
8020157e: 1a0c         	addi	a1, sp, 0x130
80201580: eeae         	sd	a1, 0x158(sp)

0000000080201582 <.Lpcrel_hi4>:
; .Lpcrel_hi4():
; /Users/lewis/.rustup/toolchains/stable-aarch64-apple-darwin/lib/rustlib/src/rust/library/core/src/fmt/rt.rs:114
80201582: 00000517     	auipc	a0, 0x0
80201586: bd850513     	addi	a0, a0, -0x428
8020158a: f2aa         	sd	a0, 0x160(sp)
; /Users/lewis/.rustup/toolchains/stable-aarch64-apple-darwin/lib/rustlib/src/rust/library/core/src/ptr/non_null.rs:1767
8020158c: f6ae         	sd	a1, 0x168(sp)
; /Users/lewis/.rustup/toolchains/stable-aarch64-apple-darwin/lib/rustlib/src/rust/library/core/src/fmt/rt.rs:103
8020158e: e6ae         	sd	a1, 0x148(sp)
80201590: eaaa         	sd	a0, 0x150(sp)
; /Users/lewis/.rustup/toolchains/stable-aarch64-apple-darwin/lib/rustlib/src/rust/library/core/src/fmt/rt.rs:100
80201592: 6556         	ld	a0, 0x150(sp)
80201594: f62a         	sd	a0, 0x128(sp)
80201596: 6536         	ld	a0, 0x148(sp)
80201598: f22a         	sd	a0, 0x120(sp)
; /Users/lewis/Github/rust-to-riscv-asm/src/console.rs:26
8020159a: 7532         	ld	a0, 0x128(sp)
8020159c: ee2a         	sd	a0, 0x118(sp)
8020159e: 7512         	ld	a0, 0x120(sp)
802015a0: ea2a         	sd	a0, 0x110(sp)

00000000802015a2 <.Lpcrel_hi5>:
; .Lpcrel_hi5():
; /Users/lewis/Github/rust-to-riscv-asm/src/console.rs:26
802015a2: 00005517     	auipc	a0, 0x5
802015a6: 23e50593     	addi	a1, a0, 0x23e
802015aa: 1188         	addi	a0, sp, 0xe0
802015ac: e42a         	sd	a0, 0x8(sp)
802015ae: 0a10         	addi	a2, sp, 0x110
802015b0: 00000097     	auipc	ra, 0x0
802015b4: 718080e7     	jalr	0x718(ra) <core::fmt::Arguments::new_v1::hb3fa1a40140b1da9>
802015b8: 6522         	ld	a0, 0x8(sp)
802015ba: fffff097     	auipc	ra, 0xfffff
802015be: d3c080e7     	jalr	-0x2c4(ra) <free_mem_start+0xff5f72f6>
802015c2: a009         	j	0x802015c4 <.Lpcrel_hi5+0x22>
; /Users/lewis/Github/rust-to-riscv-asm/src/lang_items.rs:17
802015c4: fffff097     	auipc	ra, 0xfffff
802015c8: 352080e7     	jalr	0x352(ra) <free_mem_start+0xff5f7916>

00000000802015cc <.Lpcrel_hi6>:
; .Lpcrel_hi6():
; /Users/lewis/Github/rust-to-riscv-asm/src/lang_items.rs:18
802015cc: 00005517     	auipc	a0, 0x5
802015d0: 23450513     	addi	a0, a0, 0x234

00000000802015d4 <.Lpcrel_hi7>:
; .Lpcrel_hi7():
; /Users/lewis/Github/rust-to-riscv-asm/src/lang_items.rs:18
802015d4: 00005597     	auipc	a1, 0x5
802015d8: 26c58613     	addi	a2, a1, 0x26c
802015dc: 02800593     	li	a1, 0x28
802015e0: 00003097     	auipc	ra, 0x3
802015e4: d84080e7     	jalr	-0x27c(ra) <core::panicking::panic::h06ccfc350ab1daef>

00000000802015e8 <core::option::Option$LT$T$GT$::expect::h967cfff1512c4fc5>:
; core::option::Option$LT$T$GT$::expect::h967cfff1512c4fc5():
; /Users/lewis/.rustup/toolchains/stable-aarch64-apple-darwin/lib/rustlib/src/rust/library/core/src/option.rs:930
802015e8: 7139         	addi	sp, sp, -0x40
802015ea: e03a         	sd	a4, 0x0(sp)
802015ec: e436         	sd	a3, 0x8(sp)
802015ee: e832         	sd	a2, 0x10(sp)
802015f0: ec2a         	sd	a0, 0x18(sp)
802015f2: f02e         	sd	a1, 0x20(sp)
802015f4: f432         	sd	a2, 0x28(sp)
802015f6: f836         	sd	a3, 0x30(sp)
; /Users/lewis/.rustup/toolchains/stable-aarch64-apple-darwin/lib/rustlib/src/rust/library/core/src/option.rs:931
802015f8: 6562         	ld	a0, 0x18(sp)
802015fa: e909         	bnez	a0, 0x8020160c <core::option::Option$LT$T$GT$::expect::h967cfff1512c4fc5+0x24>
802015fc: a009         	j	0x802015fe <core::option::Option$LT$T$GT$::expect::h967cfff1512c4fc5+0x16>
802015fe: 6602         	ld	a2, 0x0(sp)
80201600: 65a2         	ld	a1, 0x8(sp)
80201602: 6542         	ld	a0, 0x10(sp)
; /Users/lewis/.rustup/toolchains/stable-aarch64-apple-darwin/lib/rustlib/src/rust/library/core/src/option.rs:933
80201604: 00003097     	auipc	ra, 0x3
80201608: c9e080e7     	jalr	-0x362(ra) <core::option::expect_failed::h101be3311630821f>
; /Users/lewis/.rustup/toolchains/stable-aarch64-apple-darwin/lib/rustlib/src/rust/library/core/src/option.rs:932
8020160c: 7502         	ld	a0, 0x20(sp)
8020160e: fc2a         	sd	a0, 0x38(sp)
; /Users/lewis/.rustup/toolchains/stable-aarch64-apple-darwin/lib/rustlib/src/rust/library/core/src/option.rs:935
80201610: 6121         	addi	sp, sp, 0x40
80201612: 8082         	ret

0000000080201614 <core::option::Option$LT$T$GT$::map_or::h6b7dbfcab682116d>:
; core::option::Option$LT$T$GT$::map_or::h6b7dbfcab682116d():
; /Users/lewis/.rustup/toolchains/stable-aarch64-apple-darwin/lib/rustlib/src/rust/library/core/src/option.rs:1167
80201614: 7139         	addi	sp, sp, -0x40
80201616: fc06         	sd	ra, 0x38(sp)
80201618: e42e         	sd	a1, 0x8(sp)
8020161a: e82a         	sd	a0, 0x10(sp)
8020161c: f02e         	sd	a1, 0x20(sp)
; /Users/lewis/.rustup/toolchains/stable-aarch64-apple-darwin/lib/rustlib/src/rust/library/core/src/option.rs:1171
8020161e: 6542         	ld	a0, 0x10(sp)
80201620: e509         	bnez	a0, 0x8020162a <core::option::Option$LT$T$GT$::map_or::h6b7dbfcab682116d+0x16>
80201622: a009         	j	0x80201624 <core::option::Option$LT$T$GT$::map_or::h6b7dbfcab682116d+0x10>
80201624: 6522         	ld	a0, 0x8(sp)
; /Users/lewis/.rustup/toolchains/stable-aarch64-apple-darwin/lib/rustlib/src/rust/library/core/src/option.rs:1173
80201626: ec2a         	sd	a0, 0x18(sp)
; /Users/lewis/.rustup/toolchains/stable-aarch64-apple-darwin/lib/rustlib/src/rust/library/core/src/option.rs:1175
80201628: a809         	j	0x8020163a <core::option::Option$LT$T$GT$::map_or::h6b7dbfcab682116d+0x26>
; /Users/lewis/.rustup/toolchains/stable-aarch64-apple-darwin/lib/rustlib/src/rust/library/core/src/option.rs:1172
8020162a: 6542         	ld	a0, 0x10(sp)
8020162c: f82a         	sd	a0, 0x30(sp)
8020162e: 00001097     	auipc	ra, 0x1
80201632: 60a080e7     	jalr	0x60a(ra) <_$LT$buddy_system_allocator..LockedHeap$LT$_$GT$$u20$as$u20$core..alloc..global..GlobalAlloc$GT$::alloc::_$u7b$$u7b$closure$u7d$$u7d$::h702806824928a3ac>
80201636: ec2a         	sd	a0, 0x18(sp)
; /Users/lewis/.rustup/toolchains/stable-aarch64-apple-darwin/lib/rustlib/src/rust/library/core/src/option.rs:1175
80201638: a029         	j	0x80201642 <core::option::Option$LT$T$GT$::map_or::h6b7dbfcab682116d+0x2e>
8020163a: 6562         	ld	a0, 0x18(sp)
8020163c: 70e2         	ld	ra, 0x38(sp)
8020163e: 6121         	addi	sp, sp, 0x40
80201640: 8082         	ret
80201642: bfe5         	j	0x8020163a <core::option::Option$LT$T$GT$::map_or::h6b7dbfcab682116d+0x26>

0000000080201644 <core::sync::atomic::AtomicBool::compare_exchange::h319c4589c1e24610>:
; core::sync::atomic::AtomicBool::compare_exchange::h319c4589c1e24610():
; /Users/lewis/.rustup/toolchains/stable-aarch64-apple-darwin/lib/rustlib/src/rust/library/core/src/sync/atomic.rs:792
80201644: 7115         	addi	sp, sp, -0xe0
80201646: ed86         	sd	ra, 0xd8(sp)
80201648: e42a         	sd	a0, 0x8(sp)
8020164a: 87b2         	mv	a5, a2
8020164c: e83e         	sd	a5, 0x10(sp)
8020164e: 87ae         	mv	a5, a1
80201650: ec3e         	sd	a5, 0x18(sp)
80201652: 02d105a3     	sb	a3, 0x2b(sp)
80201656: 02e10623     	sb	a4, 0x2c(sp)
8020165a: f92a         	sd	a0, 0xb0(sp)
8020165c: 0ab10f23     	sb	a1, 0xbe(sp)
80201660: 0ac10fa3     	sb	a2, 0xbf(sp)

0000000080201664 <.Lpcrel_hi0>:
; .Lpcrel_hi0():
; /Users/lewis/.rustup/toolchains/stable-aarch64-apple-darwin/lib/rustlib/src/rust/library/core/src/fmt/mod.rs:337
80201664: 00005517     	auipc	a0, 0x5
80201668: 27c50513     	addi	a0, a0, 0x27c
8020166c: e1aa         	sd	a0, 0xc0(sp)

000000008020166e <.Lpcrel_hi1>:
; .Lpcrel_hi1():
; /Users/lewis/.rustup/toolchains/stable-aarch64-apple-darwin/lib/rustlib/src/rust/library/core/src/fmt/mod.rs:337
8020166e: 00005517     	auipc	a0, 0x5
80201672: 2c250513     	addi	a0, a0, 0x2c2
80201676: e5aa         	sd	a0, 0xc8(sp)
80201678: 4501         	li	a0, 0x0
; /Users/lewis/.rustup/toolchains/stable-aarch64-apple-darwin/lib/rustlib/src/rust/library/core/src/sync/atomic.rs:1024
8020167a: 0ca10b23     	sb	a0, 0xd6(sp)
; /Users/lewis/.rustup/toolchains/stable-aarch64-apple-darwin/lib/rustlib/src/rust/library/core/src/sync/atomic.rs:3493
8020167e: 0ca10ba3     	sb	a0, 0xd7(sp)
; /Users/lewis/.rustup/toolchains/stable-aarch64-apple-darwin/lib/rustlib/src/rust/library/core/src/sync/atomic.rs:801
80201682: 02b14503     	lbu	a0, 0x2b(sp)
80201686: f02a         	sd	a0, 0x20(sp)
80201688: 4591         	li	a1, 0x4
8020168a: 02b51363     	bne	a0, a1, 0x802016b0 <.Lpcrel_hi1+0x42>
8020168e: a009         	j	0x80201690 <.Lpcrel_hi1+0x22>
80201690: 6562         	ld	a0, 0x18(sp)
80201692: 65c2         	ld	a1, 0x10(sp)
80201694: 4611         	li	a2, 0x4
; /Users/lewis/.rustup/toolchains/stable-aarch64-apple-darwin/lib/rustlib/src/rust/library/core/src/sync/atomic.rs:802
80201696: 02c107a3     	sb	a2, 0x2f(sp)
; /Users/lewis/.rustup/toolchains/stable-aarch64-apple-darwin/lib/rustlib/src/rust/library/core/src/sync/atomic.rs:815
8020169a: 8d2d         	xor	a0, a0, a1
8020169c: fff54513     	not	a0, a0
802016a0: 8905         	andi	a0, a0, 0x1
802016a2: 08a10aa3     	sb	a0, 0x95(sp)
802016a6: 09514503     	lbu	a0, 0x95(sp)
802016aa: 8905         	andi	a0, a0, 0x1
802016ac: e50d         	bnez	a0, 0x802016d6 <.Lpcrel_hi1+0x68>
802016ae: a801         	j	0x802016be <.Lpcrel_hi1+0x50>
; /Users/lewis/.rustup/toolchains/stable-aarch64-apple-darwin/lib/rustlib/src/rust/library/core/src/sync/atomic.rs:801
802016b0: 02c14503     	lbu	a0, 0x2c(sp)
802016b4: e02a         	sd	a0, 0x0(sp)
802016b6: 4591         	li	a1, 0x4
802016b8: 04b50663     	beq	a0, a1, 0x80201704 <.Lpcrel_hi1+0x96>
802016bc: a0a5         	j	0x80201724 <.Lpcrel_hi1+0xb6>
802016be: 6522         	ld	a0, 0x8(sp)
802016c0: 65c2         	ld	a1, 0x10(sp)
; /Users/lewis/.rustup/toolchains/stable-aarch64-apple-darwin/lib/rustlib/src/rust/library/core/src/sync/atomic.rs:821
802016c2: 02f14603     	lbu	a2, 0x2f(sp)
802016c6: 8985         	andi	a1, a1, 0x1
802016c8: 00000097     	auipc	ra, 0x0
802016cc: 360080e7     	jalr	0x360(ra) <core::sync::atomic::AtomicBool::swap::h48972e36830aca60>
802016d0: 08a10a23     	sb	a0, 0x94(sp)
; /Users/lewis/.rustup/toolchains/stable-aarch64-apple-darwin/lib/rustlib/src/rust/library/core/src/sync/atomic.rs:815
802016d4: a4f1         	j	0x802019a0 <.Lpcrel_hi7+0xde>
802016d6: 6522         	ld	a0, 0x8(sp)
; /Users/lewis/.rustup/toolchains/stable-aarch64-apple-darwin/lib/rustlib/src/rust/library/core/src/sync/atomic.rs:818
802016d8: 02f14583     	lbu	a1, 0x2f(sp)
802016dc: 08b10b23     	sb	a1, 0x96(sp)
; /Users/lewis/.rustup/toolchains/stable-aarch64-apple-darwin/lib/rustlib/src/rust/library/core/src/sync/atomic.rs:1026
802016e0: f12a         	sd	a0, 0xa0(sp)
; /Users/lewis/.rustup/toolchains/stable-aarch64-apple-darwin/lib/rustlib/src/rust/library/core/src/cell.rs:2164
802016e2: f52a         	sd	a0, 0xa8(sp)
802016e4: 752a         	ld	a0, 0xa8(sp)
802016e6: ed2a         	sd	a0, 0x98(sp)
; /Users/lewis/.rustup/toolchains/stable-aarch64-apple-darwin/lib/rustlib/src/rust/library/core/src/sync/atomic.rs:3496
802016e8: a009         	j	0x802016ea <.Lpcrel_hi1+0x7c>
; /Users/lewis/.rustup/toolchains/stable-aarch64-apple-darwin/lib/rustlib/src/rust/library/core/src/sync/atomic.rs:3497
802016ea: 65ea         	ld	a1, 0x98(sp)
802016ec: ffc5f513     	andi	a0, a1, -0x4
802016f0: 0035959b     	slliw	a1, a1, 0x3
802016f4: 4601         	li	a2, 0x0
802016f6: 46c5252f     	amoor.w.aqrl	a0, a2, (a0)
802016fa: 00b5553b     	srlw	a0, a0, a1
802016fe: 08a10ba3     	sb	a0, 0x97(sp)
80201702: a081         	j	0x80201742 <.Lpcrel_hi1+0xd4>
80201704: 6562         	ld	a0, 0x18(sp)
80201706: 65c2         	ld	a1, 0x10(sp)
80201708: 4611         	li	a2, 0x4
; /Users/lewis/.rustup/toolchains/stable-aarch64-apple-darwin/lib/rustlib/src/rust/library/core/src/sync/atomic.rs:803
8020170a: 02c107a3     	sb	a2, 0x2f(sp)
; /Users/lewis/.rustup/toolchains/stable-aarch64-apple-darwin/lib/rustlib/src/rust/library/core/src/sync/atomic.rs:815
8020170e: 8d2d         	xor	a0, a0, a1
80201710: fff54513     	not	a0, a0
80201714: 8905         	andi	a0, a0, 0x1
80201716: 08a10aa3     	sb	a0, 0x95(sp)
8020171a: 09514503     	lbu	a0, 0x95(sp)
8020171e: 8905         	andi	a0, a0, 0x1
80201720: e519         	bnez	a0, 0x8020172e <.Lpcrel_hi1+0xc0>
80201722: bf71         	j	0x802016be <.Lpcrel_hi1+0x50>
80201724: 7502         	ld	a0, 0x20(sp)
80201726: 458d         	li	a1, 0x3
; /Users/lewis/.rustup/toolchains/stable-aarch64-apple-darwin/lib/rustlib/src/rust/library/core/src/sync/atomic.rs:801
80201728: 02b50463     	beq	a0, a1, 0x80201750 <.Lpcrel_hi1+0xe2>
8020172c: a091         	j	0x80201770 <.Lpcrel_hi1+0x102>
8020172e: 6522         	ld	a0, 0x8(sp)
; /Users/lewis/.rustup/toolchains/stable-aarch64-apple-darwin/lib/rustlib/src/rust/library/core/src/sync/atomic.rs:818
80201730: 02f14583     	lbu	a1, 0x2f(sp)
80201734: 08b10b23     	sb	a1, 0x96(sp)
; /Users/lewis/.rustup/toolchains/stable-aarch64-apple-darwin/lib/rustlib/src/rust/library/core/src/sync/atomic.rs:1026
80201738: f12a         	sd	a0, 0xa0(sp)
; /Users/lewis/.rustup/toolchains/stable-aarch64-apple-darwin/lib/rustlib/src/rust/library/core/src/cell.rs:2164
8020173a: f52a         	sd	a0, 0xa8(sp)
8020173c: 752a         	ld	a0, 0xa8(sp)
8020173e: ed2a         	sd	a0, 0x98(sp)
; /Users/lewis/.rustup/toolchains/stable-aarch64-apple-darwin/lib/rustlib/src/rust/library/core/src/sync/atomic.rs:3496
80201740: b76d         	j	0x802016ea <.Lpcrel_hi1+0x7c>
; /Users/lewis/.rustup/toolchains/stable-aarch64-apple-darwin/lib/rustlib/src/rust/library/core/src/sync/atomic.rs:1026
80201742: 09714503     	lbu	a0, 0x97(sp)
80201746: 00a03533     	snez	a0, a0
8020174a: 08a10a23     	sb	a0, 0x94(sp)
; /Users/lewis/.rustup/toolchains/stable-aarch64-apple-darwin/lib/rustlib/src/rust/library/core/src/sync/atomic.rs:815
8020174e: ac89         	j	0x802019a0 <.Lpcrel_hi7+0xde>
80201750: 6562         	ld	a0, 0x18(sp)
80201752: 65c2         	ld	a1, 0x10(sp)
80201754: 460d         	li	a2, 0x3
; /Users/lewis/.rustup/toolchains/stable-aarch64-apple-darwin/lib/rustlib/src/rust/library/core/src/sync/atomic.rs:804
80201756: 02c107a3     	sb	a2, 0x2f(sp)
; /Users/lewis/.rustup/toolchains/stable-aarch64-apple-darwin/lib/rustlib/src/rust/library/core/src/sync/atomic.rs:815
8020175a: 8d2d         	xor	a0, a0, a1
8020175c: fff54513     	not	a0, a0
80201760: 8905         	andi	a0, a0, 0x1
80201762: 08a10aa3     	sb	a0, 0x95(sp)
80201766: 09514503     	lbu	a0, 0x95(sp)
8020176a: 8905         	andi	a0, a0, 0x1
8020176c: ed01         	bnez	a0, 0x80201784 <.Lpcrel_hi1+0x116>
8020176e: bf81         	j	0x802016be <.Lpcrel_hi1+0x50>
80201770: 6502         	ld	a0, 0x0(sp)
80201772: 4589         	li	a1, 0x2
; /Users/lewis/.rustup/toolchains/stable-aarch64-apple-darwin/lib/rustlib/src/rust/library/core/src/sync/atomic.rs:801
80201774: 04b50463     	beq	a0, a1, 0x802017bc <.Lpcrel_hi1+0x14e>
80201778: a009         	j	0x8020177a <.Lpcrel_hi1+0x10c>
8020177a: 6502         	ld	a0, 0x0(sp)
8020177c: 458d         	li	a1, 0x3
; /Users/lewis/.rustup/toolchains/stable-aarch64-apple-darwin/lib/rustlib/src/rust/library/core/src/sync/atomic.rs:801
8020177e: 04b50463     	beq	a0, a1, 0x802017c6 <.Lpcrel_hi2>
80201782: a805         	j	0x802017b2 <.Lpcrel_hi1+0x144>
80201784: 6522         	ld	a0, 0x8(sp)
; /Users/lewis/.rustup/toolchains/stable-aarch64-apple-darwin/lib/rustlib/src/rust/library/core/src/sync/atomic.rs:818
80201786: 02f14583     	lbu	a1, 0x2f(sp)
8020178a: 08b10b23     	sb	a1, 0x96(sp)
; /Users/lewis/.rustup/toolchains/stable-aarch64-apple-darwin/lib/rustlib/src/rust/library/core/src/sync/atomic.rs:1026
8020178e: f12a         	sd	a0, 0xa0(sp)
; /Users/lewis/.rustup/toolchains/stable-aarch64-apple-darwin/lib/rustlib/src/rust/library/core/src/cell.rs:2164
80201790: f52a         	sd	a0, 0xa8(sp)
80201792: 752a         	ld	a0, 0xa8(sp)
80201794: ed2a         	sd	a0, 0x98(sp)
; /Users/lewis/.rustup/toolchains/stable-aarch64-apple-darwin/lib/rustlib/src/rust/library/core/src/sync/atomic.rs:3496
80201796: a009         	j	0x80201798 <.Lpcrel_hi1+0x12a>
; /Users/lewis/.rustup/toolchains/stable-aarch64-apple-darwin/lib/rustlib/src/rust/library/core/src/sync/atomic.rs:3500
80201798: 65ea         	ld	a1, 0x98(sp)
8020179a: ffc5f513     	andi	a0, a1, -0x4
8020179e: 0035959b     	slliw	a1, a1, 0x3
802017a2: 4601         	li	a2, 0x0
802017a4: 46c5252f     	amoor.w.aqrl	a0, a2, (a0)
802017a8: 00b5553b     	srlw	a0, a0, a1
802017ac: 08a10ba3     	sb	a0, 0x97(sp)
802017b0: bf49         	j	0x80201742 <.Lpcrel_hi1+0xd4>
802017b2: 7502         	ld	a0, 0x20(sp)
802017b4: 4589         	li	a1, 0x2
; /Users/lewis/.rustup/toolchains/stable-aarch64-apple-darwin/lib/rustlib/src/rust/library/core/src/sync/atomic.rs:801
802017b6: 06b50f63     	beq	a0, a1, 0x80201834 <.Lpcrel_hi4+0x48>
802017ba: a869         	j	0x80201854 <.Lpcrel_hi4+0x68>
802017bc: 7502         	ld	a0, 0x20(sp)
802017be: 4585         	li	a1, 0x1
; /Users/lewis/.rustup/toolchains/stable-aarch64-apple-darwin/lib/rustlib/src/rust/library/core/src/sync/atomic.rs:801
802017c0: 02b50f63     	beq	a0, a1, 0x802017fe <.Lpcrel_hi4+0x12>
802017c4: b7fd         	j	0x802017b2 <.Lpcrel_hi1+0x144>

00000000802017c6 <.Lpcrel_hi2>:
; .Lpcrel_hi2():
; /Users/lewis/.rustup/toolchains/stable-aarch64-apple-darwin/lib/rustlib/src/rust/library/core/src/fmt/mod.rs:339
802017c6: 00005517     	auipc	a0, 0x5
802017ca: 16a50513     	addi	a0, a0, 0x16a
802017ce: f82a         	sd	a0, 0x30(sp)
802017d0: 4505         	li	a0, 0x1
802017d2: fc2a         	sd	a0, 0x38(sp)

00000000802017d4 <.Lpcrel_hi3>:
; .Lpcrel_hi3():
; /Users/lewis/.rustup/toolchains/stable-aarch64-apple-darwin/lib/rustlib/src/rust/library/core/src/fmt/mod.rs:339
802017d4: 00005517     	auipc	a0, 0x5
802017d8: 9cc50513     	addi	a0, a0, -0x634
802017dc: 610c         	ld	a1, 0x0(a0)
802017de: 6508         	ld	a0, 0x8(a0)
802017e0: e8ae         	sd	a1, 0x50(sp)
802017e2: ecaa         	sd	a0, 0x58(sp)
802017e4: 4521         	li	a0, 0x8
802017e6: e0aa         	sd	a0, 0x40(sp)
802017e8: 4501         	li	a0, 0x0
802017ea: e4aa         	sd	a0, 0x48(sp)

00000000802017ec <.Lpcrel_hi4>:
; .Lpcrel_hi4():
; /Users/lewis/.rustup/toolchains/stable-aarch64-apple-darwin/lib/rustlib/src/rust/library/core/src/sync/atomic.rs:806
802017ec: 00005517     	auipc	a0, 0x5
802017f0: 1c450593     	addi	a1, a0, 0x1c4
802017f4: 1808         	addi	a0, sp, 0x30
802017f6: 00003097     	auipc	ra, 0x3
802017fa: b00080e7     	jalr	-0x500(ra) <core::panicking::panic_fmt::hd74e2a0fb7381b7e>
802017fe: 6562         	ld	a0, 0x18(sp)
80201800: 65c2         	ld	a1, 0x10(sp)
80201802: 460d         	li	a2, 0x3
; /Users/lewis/.rustup/toolchains/stable-aarch64-apple-darwin/lib/rustlib/src/rust/library/core/src/sync/atomic.rs:808
80201804: 02c107a3     	sb	a2, 0x2f(sp)
; /Users/lewis/.rustup/toolchains/stable-aarch64-apple-darwin/lib/rustlib/src/rust/library/core/src/sync/atomic.rs:815
80201808: 8d2d         	xor	a0, a0, a1
8020180a: fff54513     	not	a0, a0
8020180e: 8905         	andi	a0, a0, 0x1
80201810: 08a10aa3     	sb	a0, 0x95(sp)
80201814: 09514503     	lbu	a0, 0x95(sp)
80201818: 8905         	andi	a0, a0, 0x1
8020181a: ea0502e3     	beqz	a0, 0x802016be <.Lpcrel_hi1+0x50>
8020181e: a009         	j	0x80201820 <.Lpcrel_hi4+0x34>
80201820: 6522         	ld	a0, 0x8(sp)
; /Users/lewis/.rustup/toolchains/stable-aarch64-apple-darwin/lib/rustlib/src/rust/library/core/src/sync/atomic.rs:818
80201822: 02f14583     	lbu	a1, 0x2f(sp)
80201826: 08b10b23     	sb	a1, 0x96(sp)
; /Users/lewis/.rustup/toolchains/stable-aarch64-apple-darwin/lib/rustlib/src/rust/library/core/src/sync/atomic.rs:1026
8020182a: f12a         	sd	a0, 0xa0(sp)
; /Users/lewis/.rustup/toolchains/stable-aarch64-apple-darwin/lib/rustlib/src/rust/library/core/src/cell.rs:2164
8020182c: f52a         	sd	a0, 0xa8(sp)
8020182e: 752a         	ld	a0, 0xa8(sp)
80201830: ed2a         	sd	a0, 0x98(sp)
; /Users/lewis/.rustup/toolchains/stable-aarch64-apple-darwin/lib/rustlib/src/rust/library/core/src/sync/atomic.rs:3496
80201832: b79d         	j	0x80201798 <.Lpcrel_hi1+0x12a>
80201834: 6562         	ld	a0, 0x18(sp)
80201836: 65c2         	ld	a1, 0x10(sp)
80201838: 4609         	li	a2, 0x2
; /Users/lewis/.rustup/toolchains/stable-aarch64-apple-darwin/lib/rustlib/src/rust/library/core/src/sync/atomic.rs:809
8020183a: 02c107a3     	sb	a2, 0x2f(sp)
; /Users/lewis/.rustup/toolchains/stable-aarch64-apple-darwin/lib/rustlib/src/rust/library/core/src/sync/atomic.rs:815
8020183e: 8d2d         	xor	a0, a0, a1
80201840: fff54513     	not	a0, a0
80201844: 8905         	andi	a0, a0, 0x1
80201846: 08a10aa3     	sb	a0, 0x95(sp)
8020184a: 09514503     	lbu	a0, 0x95(sp)
8020184e: 8905         	andi	a0, a0, 0x1
80201850: e919         	bnez	a0, 0x80201866 <.Lpcrel_hi4+0x7a>
80201852: b5b5         	j	0x802016be <.Lpcrel_hi1+0x50>
80201854: 6502         	ld	a0, 0x0(sp)
; /Users/lewis/.rustup/toolchains/stable-aarch64-apple-darwin/lib/rustlib/src/rust/library/core/src/sync/atomic.rs:801
80201856: c121         	beqz	a0, 0x80201896 <.Lpcrel_hi4+0xaa>
80201858: a009         	j	0x8020185a <.Lpcrel_hi4+0x6e>
8020185a: 6502         	ld	a0, 0x0(sp)
8020185c: 4585         	li	a1, 0x1
; /Users/lewis/.rustup/toolchains/stable-aarch64-apple-darwin/lib/rustlib/src/rust/library/core/src/sync/atomic.rs:801
8020185e: 02b50f63     	beq	a0, a1, 0x8020189c <.Lpcrel_hi5>
80201862: a009         	j	0x80201864 <.Lpcrel_hi4+0x78>
80201864: a885         	j	0x802018d4 <.Lpcrel_hi7+0x12>
80201866: 6522         	ld	a0, 0x8(sp)
; /Users/lewis/.rustup/toolchains/stable-aarch64-apple-darwin/lib/rustlib/src/rust/library/core/src/sync/atomic.rs:818
80201868: 02f14583     	lbu	a1, 0x2f(sp)
8020186c: 08b10b23     	sb	a1, 0x96(sp)
; /Users/lewis/.rustup/toolchains/stable-aarch64-apple-darwin/lib/rustlib/src/rust/library/core/src/sync/atomic.rs:1026
80201870: f12a         	sd	a0, 0xa0(sp)
; /Users/lewis/.rustup/toolchains/stable-aarch64-apple-darwin/lib/rustlib/src/rust/library/core/src/cell.rs:2164
80201872: f52a         	sd	a0, 0xa8(sp)
80201874: 752a         	ld	a0, 0xa8(sp)
80201876: ed2a         	sd	a0, 0x98(sp)
; /Users/lewis/.rustup/toolchains/stable-aarch64-apple-darwin/lib/rustlib/src/rust/library/core/src/sync/atomic.rs:3496
80201878: a009         	j	0x8020187a <.Lpcrel_hi4+0x8e>
; /Users/lewis/.rustup/toolchains/stable-aarch64-apple-darwin/lib/rustlib/src/rust/library/core/src/sync/atomic.rs:3498
8020187a: 65ea         	ld	a1, 0x98(sp)
8020187c: ffc5f513     	andi	a0, a1, -0x4
80201880: 0035959b     	slliw	a1, a1, 0x3
80201884: 4601         	li	a2, 0x0
80201886: 44c5252f     	amoor.w.aq	a0, a2, (a0)
8020188a: 00b5553b     	srlw	a0, a0, a1
8020188e: 08a10ba3     	sb	a0, 0x97(sp)
80201892: bd45         	j	0x80201742 <.Lpcrel_hi1+0xd4>
80201894: 0000         	unimp
80201896: 7502         	ld	a0, 0x20(sp)
; /Users/lewis/.rustup/toolchains/stable-aarch64-apple-darwin/lib/rustlib/src/rust/library/core/src/sync/atomic.rs:801
80201898: cd31         	beqz	a0, 0x802018f4 <.Lpcrel_hi7+0x32>
8020189a: a8ad         	j	0x80201914 <.Lpcrel_hi7+0x52>

000000008020189c <.Lpcrel_hi5>:
; .Lpcrel_hi5():
; /Users/lewis/.rustup/toolchains/stable-aarch64-apple-darwin/lib/rustlib/src/rust/library/core/src/fmt/mod.rs:339
8020189c: 00005517     	auipc	a0, 0x5
802018a0: 04450513     	addi	a0, a0, 0x44
802018a4: f0aa         	sd	a0, 0x60(sp)
802018a6: 4505         	li	a0, 0x1
802018a8: f4aa         	sd	a0, 0x68(sp)

00000000802018aa <.Lpcrel_hi6>:
; .Lpcrel_hi6():
; /Users/lewis/.rustup/toolchains/stable-aarch64-apple-darwin/lib/rustlib/src/rust/library/core/src/fmt/mod.rs:339
802018aa: 00005517     	auipc	a0, 0x5
802018ae: 8f650513     	addi	a0, a0, -0x70a
802018b2: 610c         	ld	a1, 0x0(a0)
802018b4: 6508         	ld	a0, 0x8(a0)
802018b6: e12e         	sd	a1, 0x80(sp)
802018b8: e52a         	sd	a0, 0x88(sp)
802018ba: 4521         	li	a0, 0x8
802018bc: f8aa         	sd	a0, 0x70(sp)
802018be: 4501         	li	a0, 0x0
802018c0: fcaa         	sd	a0, 0x78(sp)

00000000802018c2 <.Lpcrel_hi7>:
; .Lpcrel_hi7():
; /Users/lewis/.rustup/toolchains/stable-aarch64-apple-darwin/lib/rustlib/src/rust/library/core/src/sync/atomic.rs:812
802018c2: 00005517     	auipc	a0, 0x5
802018c6: 10650593     	addi	a1, a0, 0x106
802018ca: 1088         	addi	a0, sp, 0x60
802018cc: 00003097     	auipc	ra, 0x3
802018d0: a2a080e7     	jalr	-0x5d6(ra) <core::panicking::panic_fmt::hd74e2a0fb7381b7e>
802018d4: 6562         	ld	a0, 0x18(sp)
802018d6: 65c2         	ld	a1, 0x10(sp)
802018d8: 4609         	li	a2, 0x2
; /Users/lewis/.rustup/toolchains/stable-aarch64-apple-darwin/lib/rustlib/src/rust/library/core/src/sync/atomic.rs:810
802018da: 02c107a3     	sb	a2, 0x2f(sp)
; /Users/lewis/.rustup/toolchains/stable-aarch64-apple-darwin/lib/rustlib/src/rust/library/core/src/sync/atomic.rs:815
802018de: 8d2d         	xor	a0, a0, a1
802018e0: fff54513     	not	a0, a0
802018e4: 8905         	andi	a0, a0, 0x1
802018e6: 08a10aa3     	sb	a0, 0x95(sp)
802018ea: 09514503     	lbu	a0, 0x95(sp)
802018ee: 8905         	andi	a0, a0, 0x1
802018f0: ed51         	bnez	a0, 0x8020198c <.Lpcrel_hi7+0xca>
802018f2: b3f1         	j	0x802016be <.Lpcrel_hi1+0x50>
802018f4: 6562         	ld	a0, 0x18(sp)
802018f6: 65c2         	ld	a1, 0x10(sp)
802018f8: 4601         	li	a2, 0x0
; /Users/lewis/.rustup/toolchains/stable-aarch64-apple-darwin/lib/rustlib/src/rust/library/core/src/sync/atomic.rs:813
802018fa: 02c107a3     	sb	a2, 0x2f(sp)
; /Users/lewis/.rustup/toolchains/stable-aarch64-apple-darwin/lib/rustlib/src/rust/library/core/src/sync/atomic.rs:815
802018fe: 8d2d         	xor	a0, a0, a1
80201900: fff54513     	not	a0, a0
80201904: 8905         	andi	a0, a0, 0x1
80201906: 08a10aa3     	sb	a0, 0x95(sp)
8020190a: 09514503     	lbu	a0, 0x95(sp)
8020190e: 8905         	andi	a0, a0, 0x1
80201910: e115         	bnez	a0, 0x80201934 <.Lpcrel_hi7+0x72>
80201912: b375         	j	0x802016be <.Lpcrel_hi1+0x50>
80201914: 6562         	ld	a0, 0x18(sp)
80201916: 65c2         	ld	a1, 0x10(sp)
80201918: 4605         	li	a2, 0x1
; /Users/lewis/.rustup/toolchains/stable-aarch64-apple-darwin/lib/rustlib/src/rust/library/core/src/sync/atomic.rs:811
8020191a: 02c107a3     	sb	a2, 0x2f(sp)
; /Users/lewis/.rustup/toolchains/stable-aarch64-apple-darwin/lib/rustlib/src/rust/library/core/src/sync/atomic.rs:815
8020191e: 8d2d         	xor	a0, a0, a1
80201920: fff54513     	not	a0, a0
80201924: 8905         	andi	a0, a0, 0x1
80201926: 08a10aa3     	sb	a0, 0x95(sp)
8020192a: 09514503     	lbu	a0, 0x95(sp)
8020192e: 8905         	andi	a0, a0, 0x1
80201930: e905         	bnez	a0, 0x80201960 <.Lpcrel_hi7+0x9e>
80201932: b371         	j	0x802016be <.Lpcrel_hi1+0x50>
80201934: 6522         	ld	a0, 0x8(sp)
; /Users/lewis/.rustup/toolchains/stable-aarch64-apple-darwin/lib/rustlib/src/rust/library/core/src/sync/atomic.rs:818
80201936: 02f14583     	lbu	a1, 0x2f(sp)
8020193a: 08b10b23     	sb	a1, 0x96(sp)
; /Users/lewis/.rustup/toolchains/stable-aarch64-apple-darwin/lib/rustlib/src/rust/library/core/src/sync/atomic.rs:1026
8020193e: f12a         	sd	a0, 0xa0(sp)
; /Users/lewis/.rustup/toolchains/stable-aarch64-apple-darwin/lib/rustlib/src/rust/library/core/src/cell.rs:2164
80201940: f52a         	sd	a0, 0xa8(sp)
80201942: 752a         	ld	a0, 0xa8(sp)
80201944: ed2a         	sd	a0, 0x98(sp)
; /Users/lewis/.rustup/toolchains/stable-aarch64-apple-darwin/lib/rustlib/src/rust/library/core/src/sync/atomic.rs:3501
80201946: 65ea         	ld	a1, 0x98(sp)
80201948: ffc5f513     	andi	a0, a1, -0x4
8020194c: 0035959b     	slliw	a1, a1, 0x3
80201950: 4601         	li	a2, 0x0
80201952: 40c5252f     	amoor.w	a0, a2, (a0)
80201956: 00b5553b     	srlw	a0, a0, a1
8020195a: 08a10ba3     	sb	a0, 0x97(sp)
8020195e: b3d5         	j	0x80201742 <.Lpcrel_hi1+0xd4>
80201960: 6522         	ld	a0, 0x8(sp)
; /Users/lewis/.rustup/toolchains/stable-aarch64-apple-darwin/lib/rustlib/src/rust/library/core/src/sync/atomic.rs:818
80201962: 02f14583     	lbu	a1, 0x2f(sp)
80201966: 08b10b23     	sb	a1, 0x96(sp)
; /Users/lewis/.rustup/toolchains/stable-aarch64-apple-darwin/lib/rustlib/src/rust/library/core/src/sync/atomic.rs:1026
8020196a: f12a         	sd	a0, 0xa0(sp)
; /Users/lewis/.rustup/toolchains/stable-aarch64-apple-darwin/lib/rustlib/src/rust/library/core/src/cell.rs:2164
8020196c: f52a         	sd	a0, 0xa8(sp)
8020196e: 752a         	ld	a0, 0xa8(sp)
80201970: ed2a         	sd	a0, 0x98(sp)
; /Users/lewis/.rustup/toolchains/stable-aarch64-apple-darwin/lib/rustlib/src/rust/library/core/src/sync/atomic.rs:3499
80201972: 65ea         	ld	a1, 0x98(sp)
80201974: ffc5f513     	andi	a0, a1, -0x4
80201978: 0035959b     	slliw	a1, a1, 0x3
8020197c: 4601         	li	a2, 0x0
8020197e: 42c5252f     	amoor.w.rl	a0, a2, (a0)
80201982: 00b5553b     	srlw	a0, a0, a1
80201986: 08a10ba3     	sb	a0, 0x97(sp)
8020198a: bb65         	j	0x80201742 <.Lpcrel_hi1+0xd4>
8020198c: 6522         	ld	a0, 0x8(sp)
; /Users/lewis/.rustup/toolchains/stable-aarch64-apple-darwin/lib/rustlib/src/rust/library/core/src/sync/atomic.rs:818
8020198e: 02f14583     	lbu	a1, 0x2f(sp)
80201992: 08b10b23     	sb	a1, 0x96(sp)
; /Users/lewis/.rustup/toolchains/stable-aarch64-apple-darwin/lib/rustlib/src/rust/library/core/src/sync/atomic.rs:1026
80201996: f12a         	sd	a0, 0xa0(sp)
; /Users/lewis/.rustup/toolchains/stable-aarch64-apple-darwin/lib/rustlib/src/rust/library/core/src/cell.rs:2164
80201998: f52a         	sd	a0, 0xa8(sp)
8020199a: 752a         	ld	a0, 0xa8(sp)
8020199c: ed2a         	sd	a0, 0x98(sp)
; /Users/lewis/.rustup/toolchains/stable-aarch64-apple-darwin/lib/rustlib/src/rust/library/core/src/sync/atomic.rs:3496
8020199e: bdf1         	j	0x8020187a <.Lpcrel_hi4+0x8e>
802019a0: 65e2         	ld	a1, 0x18(sp)
; /Users/lewis/.rustup/toolchains/stable-aarch64-apple-darwin/lib/rustlib/src/rust/library/core/src/sync/atomic.rs:823
802019a2: 09414503     	lbu	a0, 0x94(sp)
802019a6: 8905         	andi	a0, a0, 0x1
802019a8: 8985         	andi	a1, a1, 0x1
802019aa: 00b50c63     	beq	a0, a1, 0x802019c2 <.Lpcrel_hi7+0x100>
802019ae: a009         	j	0x802019b0 <.Lpcrel_hi7+0xee>
802019b0: 09414503     	lbu	a0, 0x94(sp)
802019b4: 8905         	andi	a0, a0, 0x1
802019b6: 02a10723     	sb	a0, 0x2e(sp)
802019ba: 4505         	li	a0, 0x1
802019bc: 02a106a3     	sb	a0, 0x2d(sp)
802019c0: a811         	j	0x802019d4 <.Lpcrel_hi7+0x112>
802019c2: 09414503     	lbu	a0, 0x94(sp)
802019c6: 8905         	andi	a0, a0, 0x1
802019c8: 02a10723     	sb	a0, 0x2e(sp)
802019cc: 4501         	li	a0, 0x0
802019ce: 02a106a3     	sb	a0, 0x2d(sp)
802019d2: a009         	j	0x802019d4 <.Lpcrel_hi7+0x112>
; /Users/lewis/.rustup/toolchains/stable-aarch64-apple-darwin/lib/rustlib/src/rust/library/core/src/sync/atomic.rs:833
802019d4: 02d14503     	lbu	a0, 0x2d(sp)
802019d8: 02e14583     	lbu	a1, 0x2e(sp)
802019dc: 60ee         	ld	ra, 0xd8(sp)
802019de: 612d         	addi	sp, sp, 0xe0
802019e0: 8082         	ret

00000000802019e2 <core::sync::atomic::AtomicBool::compare_exchange_weak::h1804b97bf0448963>:
; core::sync::atomic::AtomicBool::compare_exchange_weak::h1804b97bf0448963():
; /Users/lewis/.rustup/toolchains/stable-aarch64-apple-darwin/lib/rustlib/src/rust/library/core/src/sync/atomic.rs:874
802019e2: 1101         	addi	sp, sp, -0x20
802019e4: ec06         	sd	ra, 0x18(sp)
802019e6: e42a         	sd	a0, 0x8(sp)
802019e8: 00b10a23     	sb	a1, 0x14(sp)
802019ec: 00c10aa3     	sb	a2, 0x15(sp)
802019f0: 00d10b23     	sb	a3, 0x16(sp)
802019f4: 00e10ba3     	sb	a4, 0x17(sp)
; /Users/lewis/.rustup/toolchains/stable-aarch64-apple-darwin/lib/rustlib/src/rust/library/core/src/sync/atomic.rs:882
802019f8: 00000097     	auipc	ra, 0x0
802019fc: c4c080e7     	jalr	-0x3b4(ra) <core::sync::atomic::AtomicBool::compare_exchange::h319c4589c1e24610>
80201a00: 60e2         	ld	ra, 0x18(sp)
; /Users/lewis/.rustup/toolchains/stable-aarch64-apple-darwin/lib/rustlib/src/rust/library/core/src/sync/atomic.rs:892
80201a02: 6105         	addi	sp, sp, 0x20
80201a04: 8082         	ret

0000000080201a06 <core::sync::atomic::AtomicBool::load::hfd836ec387f875cf>:
; core::sync::atomic::AtomicBool::load::hfd836ec387f875cf():
; /Users/lewis/.rustup/toolchains/stable-aarch64-apple-darwin/lib/rustlib/src/rust/library/core/src/sync/atomic.rs:623
80201a06: 1101         	addi	sp, sp, -0x20
80201a08: ec06         	sd	ra, 0x18(sp)
80201a0a: e02a         	sd	a0, 0x0(sp)
80201a0c: 00b107a3     	sb	a1, 0xf(sp)
; /Users/lewis/.rustup/toolchains/stable-aarch64-apple-darwin/lib/rustlib/src/rust/library/core/src/sync/atomic.rs:626
80201a10: e82a         	sd	a0, 0x10(sp)
80201a12: 00000097     	auipc	ra, 0x0
80201a16: 4c6080e7     	jalr	0x4c6(ra) <core::sync::atomic::atomic_load::hdceb756a03733967>
80201a1a: 0ff57513     	andi	a0, a0, 0xff
80201a1e: 00a03533     	snez	a0, a0
80201a22: 60e2         	ld	ra, 0x18(sp)
; /Users/lewis/.rustup/toolchains/stable-aarch64-apple-darwin/lib/rustlib/src/rust/library/core/src/sync/atomic.rs:627
80201a24: 6105         	addi	sp, sp, 0x20
80201a26: 8082         	ret

0000000080201a28 <core::sync::atomic::AtomicBool::swap::h48972e36830aca60>:
; core::sync::atomic::AtomicBool::swap::h48972e36830aca60():
; /Users/lewis/.rustup/toolchains/stable-aarch64-apple-darwin/lib/rustlib/src/rust/library/core/src/sync/atomic.rs:683
80201a28: 715d         	addi	sp, sp, -0x50
80201a2a: e82a         	sd	a0, 0x10(sp)
80201a2c: 00c10e23     	sb	a2, 0x1c(sp)
80201a30: f02a         	sd	a0, 0x20(sp)
80201a32: 02b105a3     	sb	a1, 0x2b(sp)
80201a36: 4505         	li	a0, 0x1
; /Users/lewis/.rustup/toolchains/stable-aarch64-apple-darwin/lib/rustlib/src/rust/library/core/src/sync/atomic.rs:1024
80201a38: 02a10623     	sb	a0, 0x2c(sp)
; /Users/lewis/.rustup/toolchains/stable-aarch64-apple-darwin/lib/rustlib/src/rust/library/core/src/sync/atomic.rs:3493
80201a3c: 02a106a3     	sb	a0, 0x2d(sp)
80201a40: 4501         	li	a0, 0x0
; /Users/lewis/.rustup/toolchains/stable-aarch64-apple-darwin/lib/rustlib/src/rust/library/core/src/sync/atomic.rs:930
80201a42: 02a10723     	sb	a0, 0x2e(sp)
; /Users/lewis/.rustup/toolchains/stable-aarch64-apple-darwin/lib/rustlib/src/rust/library/core/src/sync/atomic.rs:3461
80201a46: 02a107a3     	sb	a0, 0x2f(sp)
; /Users/lewis/.rustup/toolchains/stable-aarch64-apple-darwin/lib/rustlib/src/rust/library/core/src/sync/atomic.rs:685
80201a4a: e18d         	bnez	a1, 0x80201a6c <.Lpcrel_hi8+0xe>
80201a4c: a009         	j	0x80201a4e <core::sync::atomic::AtomicBool::swap::h48972e36830aca60+0x26>
80201a4e: 6542         	ld	a0, 0x10(sp)
; /Users/lewis/.rustup/toolchains/stable-aarch64-apple-darwin/lib/rustlib/src/rust/library/core/src/sync/atomic.rs:932
80201a50: f82a         	sd	a0, 0x30(sp)
; /Users/lewis/.rustup/toolchains/stable-aarch64-apple-darwin/lib/rustlib/src/rust/library/core/src/cell.rs:2164
80201a52: fc2a         	sd	a0, 0x38(sp)
; /Users/lewis/.rustup/toolchains/stable-aarch64-apple-darwin/lib/rustlib/src/rust/library/core/src/sync/atomic.rs:3464
80201a54: 01c14503     	lbu	a0, 0x1c(sp)
80201a58: e42a         	sd	a0, 0x8(sp)
80201a5a: 6522         	ld	a0, 0x8(sp)
; /Users/lewis/.rustup/toolchains/stable-aarch64-apple-darwin/lib/rustlib/src/rust/library/core/src/sync/atomic.rs:3464
80201a5c: 050e         	slli	a0, a0, 0x3

0000000080201a5e <.Lpcrel_hi8>:
; .Lpcrel_hi8():
; /Users/lewis/.rustup/toolchains/stable-aarch64-apple-darwin/lib/rustlib/src/rust/library/core/src/sync/atomic.rs:3464
80201a5e: 00005597     	auipc	a1, 0x5
80201a62: dfa58593     	addi	a1, a1, -0x206
80201a66: 952e         	add	a0, a0, a1
80201a68: 6108         	ld	a0, 0x0(a0)
80201a6a: 8502         	jr	a0
80201a6c: 6542         	ld	a0, 0x10(sp)
; /Users/lewis/.rustup/toolchains/stable-aarch64-apple-darwin/lib/rustlib/src/rust/library/core/src/sync/atomic.rs:1026
80201a6e: e0aa         	sd	a0, 0x40(sp)
; /Users/lewis/.rustup/toolchains/stable-aarch64-apple-darwin/lib/rustlib/src/rust/library/core/src/cell.rs:2164
80201a70: e4aa         	sd	a0, 0x48(sp)
; /Users/lewis/.rustup/toolchains/stable-aarch64-apple-darwin/lib/rustlib/src/rust/library/core/src/sync/atomic.rs:3496
80201a72: 01c14503     	lbu	a0, 0x1c(sp)
80201a76: e02a         	sd	a0, 0x0(sp)
80201a78: 6502         	ld	a0, 0x0(sp)
; /Users/lewis/.rustup/toolchains/stable-aarch64-apple-darwin/lib/rustlib/src/rust/library/core/src/sync/atomic.rs:3496
80201a7a: 050e         	slli	a0, a0, 0x3

0000000080201a7c <.Lpcrel_hi9>:
; .Lpcrel_hi9():
; /Users/lewis/.rustup/toolchains/stable-aarch64-apple-darwin/lib/rustlib/src/rust/library/core/src/sync/atomic.rs:3496
80201a7c: 00005597     	auipc	a1, 0x5
80201a80: e0458593     	addi	a1, a1, -0x1fc
80201a84: 952e         	add	a0, a0, a1
80201a86: 6108         	ld	a0, 0x0(a0)
80201a88: 8502         	jr	a0
80201a8a: 0000         	unimp
80201a8c: 65c2         	ld	a1, 0x10(sp)
; /Users/lewis/.rustup/toolchains/stable-aarch64-apple-darwin/lib/rustlib/src/rust/library/core/src/sync/atomic.rs:3465
80201a8e: ffc5f513     	andi	a0, a1, -0x4
80201a92: 0035959b     	slliw	a1, a1, 0x3
80201a96: 0ff00613     	li	a2, 0xff
80201a9a: 00b6163b     	sllw	a2, a2, a1
80201a9e: fff64613     	not	a2, a2
80201aa2: 60c5252f     	amoand.w	a0, a2, (a0)
80201aa6: 00b5553b     	srlw	a0, a0, a1
80201aaa: 00a10fa3     	sb	a0, 0x1f(sp)
80201aae: a849         	j	0x80201b40 <.Lpcrel_hi9+0xc4>
80201ab0: 65c2         	ld	a1, 0x10(sp)
; /Users/lewis/.rustup/toolchains/stable-aarch64-apple-darwin/lib/rustlib/src/rust/library/core/src/sync/atomic.rs:3467
80201ab2: ffc5f513     	andi	a0, a1, -0x4
80201ab6: 0035959b     	slliw	a1, a1, 0x3
80201aba: 0ff00613     	li	a2, 0xff
80201abe: 00b6163b     	sllw	a2, a2, a1
80201ac2: fff64613     	not	a2, a2
80201ac6: 62c5252f     	amoand.w.rl	a0, a2, (a0)
80201aca: 00b5553b     	srlw	a0, a0, a1
80201ace: 00a10fa3     	sb	a0, 0x1f(sp)
80201ad2: a0bd         	j	0x80201b40 <.Lpcrel_hi9+0xc4>
80201ad4: 65c2         	ld	a1, 0x10(sp)
; /Users/lewis/.rustup/toolchains/stable-aarch64-apple-darwin/lib/rustlib/src/rust/library/core/src/sync/atomic.rs:3466
80201ad6: ffc5f513     	andi	a0, a1, -0x4
80201ada: 0035959b     	slliw	a1, a1, 0x3
80201ade: 0ff00613     	li	a2, 0xff
80201ae2: 00b6163b     	sllw	a2, a2, a1
80201ae6: fff64613     	not	a2, a2
80201aea: 64c5252f     	amoand.w.aq	a0, a2, (a0)
80201aee: 00b5553b     	srlw	a0, a0, a1
80201af2: 00a10fa3     	sb	a0, 0x1f(sp)
80201af6: a0a9         	j	0x80201b40 <.Lpcrel_hi9+0xc4>
80201af8: 65c2         	ld	a1, 0x10(sp)
; /Users/lewis/.rustup/toolchains/stable-aarch64-apple-darwin/lib/rustlib/src/rust/library/core/src/sync/atomic.rs:3468
80201afa: ffc5f513     	andi	a0, a1, -0x4
80201afe: 0035959b     	slliw	a1, a1, 0x3
80201b02: 0ff00613     	li	a2, 0xff
80201b06: 00b6163b     	sllw	a2, a2, a1
80201b0a: fff64613     	not	a2, a2
80201b0e: 66c5252f     	amoand.w.aqrl	a0, a2, (a0)
80201b12: 00b5553b     	srlw	a0, a0, a1
80201b16: 00a10fa3     	sb	a0, 0x1f(sp)
80201b1a: a01d         	j	0x80201b40 <.Lpcrel_hi9+0xc4>
80201b1c: 65c2         	ld	a1, 0x10(sp)
; /Users/lewis/.rustup/toolchains/stable-aarch64-apple-darwin/lib/rustlib/src/rust/library/core/src/sync/atomic.rs:3469
80201b1e: ffc5f513     	andi	a0, a1, -0x4
80201b22: 0035959b     	slliw	a1, a1, 0x3
80201b26: 0ff00613     	li	a2, 0xff
80201b2a: 00b6163b     	sllw	a2, a2, a1
80201b2e: fff64613     	not	a2, a2
80201b32: 66c5252f     	amoand.w.aqrl	a0, a2, (a0)
80201b36: 00b5553b     	srlw	a0, a0, a1
80201b3a: 00a10fa3     	sb	a0, 0x1f(sp)
80201b3e: a009         	j	0x80201b40 <.Lpcrel_hi9+0xc4>
; /Users/lewis/.rustup/toolchains/stable-aarch64-apple-darwin/lib/rustlib/src/rust/library/core/src/sync/atomic.rs:932
80201b40: 01f14503     	lbu	a0, 0x1f(sp)
80201b44: 00a03533     	snez	a0, a0
80201b48: 00a10ea3     	sb	a0, 0x1d(sp)
; /Users/lewis/.rustup/toolchains/stable-aarch64-apple-darwin/lib/rustlib/src/rust/library/core/src/sync/atomic.rs:685
80201b4c: a009         	j	0x80201b4e <.Lpcrel_hi9+0xd2>
; /Users/lewis/.rustup/toolchains/stable-aarch64-apple-darwin/lib/rustlib/src/rust/library/core/src/sync/atomic.rs:690
80201b4e: 01d14503     	lbu	a0, 0x1d(sp)
80201b52: 8905         	andi	a0, a0, 0x1
80201b54: 6161         	addi	sp, sp, 0x50
80201b56: 8082         	ret
80201b58: 65c2         	ld	a1, 0x10(sp)
; /Users/lewis/.rustup/toolchains/stable-aarch64-apple-darwin/lib/rustlib/src/rust/library/core/src/sync/atomic.rs:3501
80201b5a: ffc5f513     	andi	a0, a1, -0x4
80201b5e: 0035959b     	slliw	a1, a1, 0x3
80201b62: 4605         	li	a2, 0x1
80201b64: 00b6163b     	sllw	a2, a2, a1
80201b68: 40c5252f     	amoor.w	a0, a2, (a0)
80201b6c: 00b5553b     	srlw	a0, a0, a1
80201b70: 00a10f23     	sb	a0, 0x1e(sp)
80201b74: a8ad         	j	0x80201bee <.Lpcrel_hi9+0x172>
80201b76: 65c2         	ld	a1, 0x10(sp)
; /Users/lewis/.rustup/toolchains/stable-aarch64-apple-darwin/lib/rustlib/src/rust/library/core/src/sync/atomic.rs:3499
80201b78: ffc5f513     	andi	a0, a1, -0x4
80201b7c: 0035959b     	slliw	a1, a1, 0x3
80201b80: 4605         	li	a2, 0x1
80201b82: 00b6163b     	sllw	a2, a2, a1
80201b86: 42c5252f     	amoor.w.rl	a0, a2, (a0)
80201b8a: 00b5553b     	srlw	a0, a0, a1
80201b8e: 00a10f23     	sb	a0, 0x1e(sp)
80201b92: a8b1         	j	0x80201bee <.Lpcrel_hi9+0x172>
80201b94: 65c2         	ld	a1, 0x10(sp)
; /Users/lewis/.rustup/toolchains/stable-aarch64-apple-darwin/lib/rustlib/src/rust/library/core/src/sync/atomic.rs:3498
80201b96: ffc5f513     	andi	a0, a1, -0x4
80201b9a: 0035959b     	slliw	a1, a1, 0x3
80201b9e: 4605         	li	a2, 0x1
80201ba0: 00b6163b     	sllw	a2, a2, a1
80201ba4: 44c5252f     	amoor.w.aq	a0, a2, (a0)
80201ba8: 00b5553b     	srlw	a0, a0, a1
80201bac: 00a10f23     	sb	a0, 0x1e(sp)
80201bb0: a83d         	j	0x80201bee <.Lpcrel_hi9+0x172>
80201bb2: 65c2         	ld	a1, 0x10(sp)
; /Users/lewis/.rustup/toolchains/stable-aarch64-apple-darwin/lib/rustlib/src/rust/library/core/src/sync/atomic.rs:3500
80201bb4: ffc5f513     	andi	a0, a1, -0x4
80201bb8: 0035959b     	slliw	a1, a1, 0x3
80201bbc: 4605         	li	a2, 0x1
80201bbe: 00b6163b     	sllw	a2, a2, a1
80201bc2: 46c5252f     	amoor.w.aqrl	a0, a2, (a0)
80201bc6: 00b5553b     	srlw	a0, a0, a1
80201bca: 00a10f23     	sb	a0, 0x1e(sp)
80201bce: a005         	j	0x80201bee <.Lpcrel_hi9+0x172>
80201bd0: 65c2         	ld	a1, 0x10(sp)
; /Users/lewis/.rustup/toolchains/stable-aarch64-apple-darwin/lib/rustlib/src/rust/library/core/src/sync/atomic.rs:3497
80201bd2: ffc5f513     	andi	a0, a1, -0x4
80201bd6: 0035959b     	slliw	a1, a1, 0x3
80201bda: 4605         	li	a2, 0x1
80201bdc: 00b6163b     	sllw	a2, a2, a1
80201be0: 46c5252f     	amoor.w.aqrl	a0, a2, (a0)
80201be4: 00b5553b     	srlw	a0, a0, a1
80201be8: 00a10f23     	sb	a0, 0x1e(sp)
80201bec: a009         	j	0x80201bee <.Lpcrel_hi9+0x172>
; /Users/lewis/.rustup/toolchains/stable-aarch64-apple-darwin/lib/rustlib/src/rust/library/core/src/sync/atomic.rs:1026
80201bee: 01e14503     	lbu	a0, 0x1e(sp)
80201bf2: 00a03533     	snez	a0, a0
80201bf6: 00a10ea3     	sb	a0, 0x1d(sp)
; /Users/lewis/.rustup/toolchains/stable-aarch64-apple-darwin/lib/rustlib/src/rust/library/core/src/sync/atomic.rs:685
80201bfa: bf91         	j	0x80201b4e <.Lpcrel_hi9+0xd2>

0000000080201bfc <core::sync::atomic::AtomicBool::store::h71d9132b17a1f98e>:
; core::sync::atomic::AtomicBool::store::h71d9132b17a1f98e():
; /Users/lewis/.rustup/toolchains/stable-aarch64-apple-darwin/lib/rustlib/src/rust/library/core/src/sync/atomic.rs:651
80201bfc: 1101         	addi	sp, sp, -0x20
80201bfe: ec06         	sd	ra, 0x18(sp)
80201c00: e02a         	sd	a0, 0x0(sp)
80201c02: 00b10723     	sb	a1, 0xe(sp)
80201c06: 00c107a3     	sb	a2, 0xf(sp)
; /Users/lewis/.rustup/toolchains/stable-aarch64-apple-darwin/lib/rustlib/src/rust/library/core/src/sync/atomic.rs:655
80201c0a: e82a         	sd	a0, 0x10(sp)
80201c0c: 00002097     	auipc	ra, 0x2
80201c10: 3cc080e7     	jalr	0x3cc(ra) <core::sync::atomic::atomic_store::h9da352ac0a8a7bae>
80201c14: 60e2         	ld	ra, 0x18(sp)
; /Users/lewis/.rustup/toolchains/stable-aarch64-apple-darwin/lib/rustlib/src/rust/library/core/src/sync/atomic.rs:657
80201c16: 6105         	addi	sp, sp, 0x20
80201c18: 8082         	ret

0000000080201c1a <core::sync::atomic::spin_loop_hint::h6faf56d8b48c19bc>:
; core::sync::atomic::spin_loop_hint::h6faf56d8b48c19bc():
; /Users/lewis/.rustup/toolchains/stable-aarch64-apple-darwin/lib/rustlib/src/rust/library/core/src/../../stdarch/crates/core_arch/src/riscv_shared/mod.rs:47
80201c1a: 0100000f     	fence	w, 0
; /Users/lewis/.rustup/toolchains/stable-aarch64-apple-darwin/lib/rustlib/src/rust/library/core/src/sync/atomic.rs:3798
80201c1e: 8082         	ret

0000000080201c20 <core::str::_$LT$impl$u20$str$GT$::len::h5b82fa9fe3124e7c>:
; core::str::_$LT$impl$u20$str$GT$::len::h5b82fa9fe3124e7c():
; /Users/lewis/.rustup/toolchains/stable-aarch64-apple-darwin/lib/rustlib/src/rust/library/core/src/str/mod.rs:140
80201c20: 1101         	addi	sp, sp, -0x20
80201c22: e42e         	sd	a1, 0x8(sp)
80201c24: 85aa         	mv	a1, a0
80201c26: 6522         	ld	a0, 0x8(sp)
80201c28: e82e         	sd	a1, 0x10(sp)
80201c2a: ec2a         	sd	a0, 0x18(sp)
; /Users/lewis/.rustup/toolchains/stable-aarch64-apple-darwin/lib/rustlib/src/rust/library/core/src/str/mod.rs:142
80201c2c: 6105         	addi	sp, sp, 0x20
80201c2e: 8082         	ret

0000000080201c30 <_$LT$sbi_rt..srst..Shutdown$u20$as$u20$sbi_rt..srst..ResetType$GT$::raw::h67a9fd825b9b1f1f>:
; _$LT$sbi_rt..srst..Shutdown$u20$as$u20$sbi_rt..srst..ResetType$GT$::raw::h67a9fd825b9b1f1f():
; /Users/lewis/.cargo/registry/src/rsproxy.cn-0dccff568467c15b/sbi-rt-0.0.3/src/srst.rs:99
80201c30: 1141         	addi	sp, sp, -0x10
80201c32: e42a         	sd	a0, 0x8(sp)
80201c34: 4501         	li	a0, 0x0
; /Users/lewis/.cargo/registry/src/rsproxy.cn-0dccff568467c15b/sbi-rt-0.0.3/src/srst.rs:101
80201c36: 0141         	addi	sp, sp, 0x10
80201c38: 8082         	ret

0000000080201c3a <_$LT$sbi_rt..srst..NoReason$u20$as$u20$sbi_rt..srst..ResetReason$GT$::raw::h34a366dbec981e2c>:
; _$LT$sbi_rt..srst..NoReason$u20$as$u20$sbi_rt..srst..ResetReason$GT$::raw::h34a366dbec981e2c():
; /Users/lewis/.cargo/registry/src/rsproxy.cn-0dccff568467c15b/sbi-rt-0.0.3/src/srst.rs:99
80201c3a: 1141         	addi	sp, sp, -0x10
80201c3c: e42a         	sd	a0, 0x8(sp)
80201c3e: 4501         	li	a0, 0x0
; /Users/lewis/.cargo/registry/src/rsproxy.cn-0dccff568467c15b/sbi-rt-0.0.3/src/srst.rs:101
80201c40: 0141         	addi	sp, sp, 0x10
80201c42: 8082         	ret

0000000080201c44 <_$LT$sbi_rt..srst..SystemFailure$u20$as$u20$sbi_rt..srst..ResetReason$GT$::raw::hf1b50de91e76b228>:
; _$LT$sbi_rt..srst..SystemFailure$u20$as$u20$sbi_rt..srst..ResetReason$GT$::raw::hf1b50de91e76b228():
; /Users/lewis/.cargo/registry/src/rsproxy.cn-0dccff568467c15b/sbi-rt-0.0.3/src/srst.rs:99
80201c44: 1141         	addi	sp, sp, -0x10
80201c46: e42a         	sd	a0, 0x8(sp)
80201c48: 4505         	li	a0, 0x1
; /Users/lewis/.cargo/registry/src/rsproxy.cn-0dccff568467c15b/sbi-rt-0.0.3/src/srst.rs:101
80201c4a: 0141         	addi	sp, sp, 0x10
80201c4c: 8082         	ret

0000000080201c4e <_$LT$$RF$T$u20$as$u20$core..fmt..Debug$GT$::fmt::h274c4e292fb03518>:
; _$LT$$RF$T$u20$as$u20$core..fmt..Debug$GT$::fmt::h274c4e292fb03518():
; /Users/lewis/.rustup/toolchains/stable-aarch64-apple-darwin/lib/rustlib/src/rust/library/core/src/fmt/mod.rs:2390
80201c4e: 1101         	addi	sp, sp, -0x20
80201c50: ec06         	sd	ra, 0x18(sp)
80201c52: e42a         	sd	a0, 0x8(sp)
80201c54: e82e         	sd	a1, 0x10(sp)
80201c56: 6108         	ld	a0, 0x0(a0)
80201c58: fffff097     	auipc	ra, 0xfffff
80201c5c: 726080e7     	jalr	0x726(ra) <free_mem_start+0xff5f837e>
80201c60: 60e2         	ld	ra, 0x18(sp)
80201c62: 6105         	addi	sp, sp, 0x20
80201c64: 8082         	ret

0000000080201c66 <_$LT$$RF$T$u20$as$u20$core..fmt..Debug$GT$::fmt::h430b0e6fa02cf0ca>:
; _$LT$$RF$T$u20$as$u20$core..fmt..Debug$GT$::fmt::h430b0e6fa02cf0ca():
; /Users/lewis/.rustup/toolchains/stable-aarch64-apple-darwin/lib/rustlib/src/rust/library/core/src/fmt/mod.rs:2390
80201c66: 1101         	addi	sp, sp, -0x20
80201c68: ec06         	sd	ra, 0x18(sp)
80201c6a: e42a         	sd	a0, 0x8(sp)
80201c6c: e82e         	sd	a1, 0x10(sp)
80201c6e: 6108         	ld	a0, 0x0(a0)
80201c70: fffff097     	auipc	ra, 0xfffff
80201c74: 776080e7     	jalr	0x776(ra) <free_mem_start+0xff5f83e6>
80201c78: 60e2         	ld	ra, 0x18(sp)
80201c7a: 6105         	addi	sp, sp, 0x20
80201c7c: 8082         	ret

0000000080201c7e <_$LT$$RF$T$u20$as$u20$core..fmt..Display$GT$::fmt::h64e3f9b131c1acb2>:
; _$LT$$RF$T$u20$as$u20$core..fmt..Display$GT$::fmt::h64e3f9b131c1acb2():
; /Users/lewis/.rustup/toolchains/stable-aarch64-apple-darwin/lib/rustlib/src/rust/library/core/src/fmt/mod.rs:2390
80201c7e: 1101         	addi	sp, sp, -0x20
80201c80: ec06         	sd	ra, 0x18(sp)
80201c82: 862e         	mv	a2, a1
80201c84: 85aa         	mv	a1, a0
80201c86: e42e         	sd	a1, 0x8(sp)
80201c88: e832         	sd	a2, 0x10(sp)
80201c8a: 6188         	ld	a0, 0x0(a1)
80201c8c: 658c         	ld	a1, 0x8(a1)
80201c8e: 00003097     	auipc	ra, 0x3
80201c92: f48080e7     	jalr	-0xb8(ra) <_$LT$str$u20$as$u20$core..fmt..Display$GT$::fmt::habe95f77ff1b76f2>
80201c96: 60e2         	ld	ra, 0x18(sp)
80201c98: 6105         	addi	sp, sp, 0x20
80201c9a: 8082         	ret

0000000080201c9c <core::fmt::Arguments::new_v1::h0a252c0bbe9fc041>:
; core::fmt::Arguments::new_v1::h0a252c0bbe9fc041():
; /Users/lewis/.rustup/toolchains/stable-aarch64-apple-darwin/lib/rustlib/src/rust/library/core/src/fmt/mod.rs:345
80201c9c: 1101         	addi	sp, sp, -0x20
80201c9e: e42e         	sd	a1, 0x8(sp)
80201ca0: 85aa         	mv	a1, a0
80201ca2: 6522         	ld	a0, 0x8(sp)
80201ca4: e82a         	sd	a0, 0x10(sp)
80201ca6: ec32         	sd	a2, 0x18(sp)
; /Users/lewis/.rustup/toolchains/stable-aarch64-apple-darwin/lib/rustlib/src/rust/library/core/src/fmt/mod.rs:350
80201ca8: e188         	sd	a0, 0x0(a1)
80201caa: 4511         	li	a0, 0x4
80201cac: e588         	sd	a0, 0x8(a1)

0000000080201cae <.Lpcrel_hi0>:
; .Lpcrel_hi0():
; /Users/lewis/.rustup/toolchains/stable-aarch64-apple-darwin/lib/rustlib/src/rust/library/core/src/fmt/mod.rs:350
80201cae: 00004517     	auipc	a0, 0x4
80201cb2: 4f250513     	addi	a0, a0, 0x4f2
80201cb6: 6114         	ld	a3, 0x0(a0)
80201cb8: 6508         	ld	a0, 0x8(a0)
80201cba: f194         	sd	a3, 0x20(a1)
80201cbc: f588         	sd	a0, 0x28(a1)
80201cbe: e990         	sd	a2, 0x10(a1)
80201cc0: 450d         	li	a0, 0x3
80201cc2: ed88         	sd	a0, 0x18(a1)
; /Users/lewis/.rustup/toolchains/stable-aarch64-apple-darwin/lib/rustlib/src/rust/library/core/src/fmt/mod.rs:351
80201cc4: 6105         	addi	sp, sp, 0x20
80201cc6: 8082         	ret

0000000080201cc8 <core::fmt::Arguments::new_v1::hb3fa1a40140b1da9>:
; core::fmt::Arguments::new_v1::hb3fa1a40140b1da9():
; /Users/lewis/.rustup/toolchains/stable-aarch64-apple-darwin/lib/rustlib/src/rust/library/core/src/fmt/mod.rs:345
80201cc8: 1101         	addi	sp, sp, -0x20
80201cca: e42e         	sd	a1, 0x8(sp)
80201ccc: 85aa         	mv	a1, a0
80201cce: 6522         	ld	a0, 0x8(sp)
80201cd0: e82a         	sd	a0, 0x10(sp)
80201cd2: ec32         	sd	a2, 0x18(sp)
; /Users/lewis/.rustup/toolchains/stable-aarch64-apple-darwin/lib/rustlib/src/rust/library/core/src/fmt/mod.rs:350
80201cd4: e188         	sd	a0, 0x0(a1)
80201cd6: 4509         	li	a0, 0x2
80201cd8: e588         	sd	a0, 0x8(a1)

0000000080201cda <.Lpcrel_hi1>:
; .Lpcrel_hi1():
; /Users/lewis/.rustup/toolchains/stable-aarch64-apple-darwin/lib/rustlib/src/rust/library/core/src/fmt/mod.rs:350
80201cda: 00004517     	auipc	a0, 0x4
80201cde: 4c650513     	addi	a0, a0, 0x4c6
80201ce2: 6114         	ld	a3, 0x0(a0)
80201ce4: 6508         	ld	a0, 0x8(a0)
80201ce6: f194         	sd	a3, 0x20(a1)
80201ce8: f588         	sd	a0, 0x28(a1)
80201cea: e990         	sd	a2, 0x10(a1)
80201cec: 4505         	li	a0, 0x1
80201cee: ed88         	sd	a0, 0x18(a1)
; /Users/lewis/.rustup/toolchains/stable-aarch64-apple-darwin/lib/rustlib/src/rust/library/core/src/fmt/mod.rs:351
80201cf0: 6105         	addi	sp, sp, 0x20
80201cf2: 8082         	ret

0000000080201cf4 <core::ptr::read_volatile::precondition_check::h15a8d4728ff45ab8>:
; core::ptr::read_volatile::precondition_check::h15a8d4728ff45ab8():
; /Users/lewis/.rustup/toolchains/stable-aarch64-apple-darwin/lib/rustlib/src/rust/library/core/src/ub_checks.rs:68
80201cf4: 7159         	addi	sp, sp, -0x70
80201cf6: e42e         	sd	a1, 0x8(sp)
80201cf8: e4aa         	sd	a0, 0x48(sp)
80201cfa: e8ae         	sd	a1, 0x50(sp)

0000000080201cfc <.Lpcrel_hi0>:
; .Lpcrel_hi0():
; /Users/lewis/.rustup/toolchains/stable-aarch64-apple-darwin/lib/rustlib/src/rust/library/core/src/fmt/mod.rs:337
80201cfc: 00005597     	auipc	a1, 0x5
80201d00: d1458593     	addi	a1, a1, -0x2ec
80201d04: ecae         	sd	a1, 0x58(sp)
; /Users/lewis/.rustup/toolchains/stable-aarch64-apple-darwin/lib/rustlib/src/rust/library/core/src/ptr/const_ptr.rs:54
80201d06: f0aa         	sd	a0, 0x60(sp)
; /Users/lewis/.rustup/toolchains/stable-aarch64-apple-darwin/lib/rustlib/src/rust/library/core/src/ptr/const_ptr.rs:147
80201d08: 85aa         	mv	a1, a0
80201d0a: e82e         	sd	a1, 0x10(sp)
; /Users/lewis/.rustup/toolchains/stable-aarch64-apple-darwin/lib/rustlib/src/rust/library/core/src/ub_checks.rs:120
80201d0c: e119         	bnez	a0, 0x80201d12 <.Lpcrel_hi0+0x16>
80201d0e: a009         	j	0x80201d10 <.Lpcrel_hi0+0x14>
; /Users/lewis/.rustup/toolchains/stable-aarch64-apple-darwin/lib/rustlib/src/rust/library/core/src/ptr/mod.rs:1811
80201d10: a0ad         	j	0x80201d7a <.Lpcrel_hi1>
80201d12: 6522         	ld	a0, 0x8(sp)
; /Users/lewis/.rustup/toolchains/stable-aarch64-apple-darwin/lib/rustlib/src/rust/library/core/src/num/uint_macros.rs:85
80201d14: 00155593     	srli	a1, a0, 0x1
80201d18: 55555637     	lui	a2, 0x55555
80201d1c: 5556061b     	addiw	a2, a2, 0x555
80201d20: 02061693     	slli	a3, a2, 0x20
80201d24: 9636         	add	a2, a2, a3
80201d26: 8df1         	and	a1, a1, a2
80201d28: 40b505b3     	sub	a1, a0, a1
80201d2c: 33333537     	lui	a0, 0x33333
80201d30: 3335051b     	addiw	a0, a0, 0x333
80201d34: 02051613     	slli	a2, a0, 0x20
80201d38: 962a         	add	a2, a2, a0
80201d3a: 00c5f533     	and	a0, a1, a2
80201d3e: 8189         	srli	a1, a1, 0x2
80201d40: 8df1         	and	a1, a1, a2
80201d42: 952e         	add	a0, a0, a1
80201d44: 00455593     	srli	a1, a0, 0x4
80201d48: 952e         	add	a0, a0, a1
80201d4a: 0f0f15b7     	lui	a1, 0xf0f1
80201d4e: f0f5859b     	addiw	a1, a1, -0xf1
80201d52: 02059613     	slli	a2, a1, 0x20
80201d56: 95b2         	add	a1, a1, a2
80201d58: 8d6d         	and	a0, a0, a1
80201d5a: 010105b7     	lui	a1, 0x1010
80201d5e: 1015859b     	addiw	a1, a1, 0x101
80201d62: 02059613     	slli	a2, a1, 0x20
80201d66: 95b2         	add	a1, a1, a2
80201d68: 02b50533     	mul	a0, a0, a1
80201d6c: 9161         	srli	a0, a0, 0x38
80201d6e: d6aa         	sw	a0, 0x6c(sp)
80201d70: 5536         	lw	a0, 0x6c(sp)
80201d72: 4585         	li	a1, 0x1
; /Users/lewis/.rustup/toolchains/stable-aarch64-apple-darwin/lib/rustlib/src/rust/library/core/src/ptr/const_ptr.rs:1602
80201d74: 00b50d63     	beq	a0, a1, 0x80201d8e <.Lpcrel_hi1+0x14>
80201d78: a00d         	j	0x80201d9a <.Lpcrel_hi2>

0000000080201d7a <.Lpcrel_hi1>:
; .Lpcrel_hi1():
; /Users/lewis/.rustup/toolchains/stable-aarch64-apple-darwin/lib/rustlib/src/rust/library/core/src/ub_checks.rs:70
80201d7a: 00005517     	auipc	a0, 0x5
80201d7e: ca650513     	addi	a0, a0, -0x35a
80201d82: 06e00593     	li	a1, 0x6e
80201d86: 00002097     	auipc	ra, 0x2
80201d8a: 618080e7     	jalr	0x618(ra) <core::panicking::panic_nounwind::h92acbb232d24bc37>
80201d8e: 6542         	ld	a0, 0x10(sp)
80201d90: 65a2         	ld	a1, 0x8(sp)
; /Users/lewis/.rustup/toolchains/stable-aarch64-apple-darwin/lib/rustlib/src/rust/library/core/src/ptr/const_ptr.rs:1608
80201d92: 15fd         	addi	a1, a1, -0x1
80201d94: 8d6d         	and	a0, a0, a1
; /Users/lewis/.rustup/toolchains/stable-aarch64-apple-darwin/lib/rustlib/src/rust/library/core/src/ptr/mod.rs:1811
80201d96: cd15         	beqz	a0, 0x80201dd2 <.Lpcrel_hi4+0x12>
80201d98: b7cd         	j	0x80201d7a <.Lpcrel_hi1>

0000000080201d9a <.Lpcrel_hi2>:
; .Lpcrel_hi2():
; /Users/lewis/.rustup/toolchains/stable-aarch64-apple-darwin/lib/rustlib/src/rust/library/core/src/fmt/mod.rs:339
80201d9a: 00005517     	auipc	a0, 0x5
80201d9e: c7650513     	addi	a0, a0, -0x38a
80201da2: ec2a         	sd	a0, 0x18(sp)
80201da4: 4505         	li	a0, 0x1
80201da6: f02a         	sd	a0, 0x20(sp)

0000000080201da8 <.Lpcrel_hi3>:
; .Lpcrel_hi3():
; /Users/lewis/.rustup/toolchains/stable-aarch64-apple-darwin/lib/rustlib/src/rust/library/core/src/fmt/mod.rs:339
80201da8: 00004517     	auipc	a0, 0x4
80201dac: 3f850513     	addi	a0, a0, 0x3f8
80201db0: 610c         	ld	a1, 0x0(a0)
80201db2: 6508         	ld	a0, 0x8(a0)
80201db4: fc2e         	sd	a1, 0x38(sp)
80201db6: e0aa         	sd	a0, 0x40(sp)
80201db8: 4521         	li	a0, 0x8
80201dba: f42a         	sd	a0, 0x28(sp)
80201dbc: 4501         	li	a0, 0x0
80201dbe: f82a         	sd	a0, 0x30(sp)

0000000080201dc0 <.Lpcrel_hi4>:
; .Lpcrel_hi4():
; /Users/lewis/.rustup/toolchains/stable-aarch64-apple-darwin/lib/rustlib/src/rust/library/core/src/ptr/const_ptr.rs:1603
80201dc0: 00005517     	auipc	a0, 0x5
80201dc4: d4050593     	addi	a1, a0, -0x2c0
80201dc8: 0828         	addi	a0, sp, 0x18
80201dca: 00002097     	auipc	ra, 0x2
80201dce: 52c080e7     	jalr	0x52c(ra) <core::panicking::panic_fmt::hd74e2a0fb7381b7e>
; /Users/lewis/.rustup/toolchains/stable-aarch64-apple-darwin/lib/rustlib/src/rust/library/core/src/ub_checks.rs:74
80201dd2: 6165         	addi	sp, sp, 0x70
80201dd4: 8082         	ret

0000000080201dd6 <core::ptr::write_volatile::precondition_check::h3d23e9a5ee098f9b>:
; core::ptr::write_volatile::precondition_check::h3d23e9a5ee098f9b():
; /Users/lewis/.rustup/toolchains/stable-aarch64-apple-darwin/lib/rustlib/src/rust/library/core/src/ub_checks.rs:68
80201dd6: 7159         	addi	sp, sp, -0x70
80201dd8: e02e         	sd	a1, 0x0(sp)
80201dda: e0aa         	sd	a0, 0x40(sp)
80201ddc: e4ae         	sd	a1, 0x48(sp)

0000000080201dde <.Lpcrel_hi5>:
; .Lpcrel_hi5():
; /Users/lewis/.rustup/toolchains/stable-aarch64-apple-darwin/lib/rustlib/src/rust/library/core/src/fmt/mod.rs:337
80201dde: 00005597     	auipc	a1, 0x5
80201de2: c3258593     	addi	a1, a1, -0x3ce
80201de6: e8ae         	sd	a1, 0x50(sp)
; /Users/lewis/.rustup/toolchains/stable-aarch64-apple-darwin/lib/rustlib/src/rust/library/core/src/ptr/mod.rs:1890
80201de8: ecaa         	sd	a0, 0x58(sp)
; /Users/lewis/.rustup/toolchains/stable-aarch64-apple-darwin/lib/rustlib/src/rust/library/core/src/ptr/const_ptr.rs:54
80201dea: f0aa         	sd	a0, 0x60(sp)
; /Users/lewis/.rustup/toolchains/stable-aarch64-apple-darwin/lib/rustlib/src/rust/library/core/src/ptr/const_ptr.rs:147
80201dec: 85aa         	mv	a1, a0
80201dee: e42e         	sd	a1, 0x8(sp)
; /Users/lewis/.rustup/toolchains/stable-aarch64-apple-darwin/lib/rustlib/src/rust/library/core/src/ub_checks.rs:120
80201df0: e119         	bnez	a0, 0x80201df6 <.Lpcrel_hi5+0x18>
80201df2: a009         	j	0x80201df4 <.Lpcrel_hi5+0x16>
; /Users/lewis/.rustup/toolchains/stable-aarch64-apple-darwin/lib/rustlib/src/rust/library/core/src/ptr/mod.rs:1890
80201df4: a0ad         	j	0x80201e5e <.Lpcrel_hi6>
80201df6: 6502         	ld	a0, 0x0(sp)
; /Users/lewis/.rustup/toolchains/stable-aarch64-apple-darwin/lib/rustlib/src/rust/library/core/src/num/uint_macros.rs:85
80201df8: 00155593     	srli	a1, a0, 0x1
80201dfc: 55555637     	lui	a2, 0x55555
80201e00: 5556061b     	addiw	a2, a2, 0x555
80201e04: 02061693     	slli	a3, a2, 0x20
80201e08: 9636         	add	a2, a2, a3
80201e0a: 8df1         	and	a1, a1, a2
80201e0c: 40b505b3     	sub	a1, a0, a1
80201e10: 33333537     	lui	a0, 0x33333
80201e14: 3335051b     	addiw	a0, a0, 0x333
80201e18: 02051613     	slli	a2, a0, 0x20
80201e1c: 962a         	add	a2, a2, a0
80201e1e: 00c5f533     	and	a0, a1, a2
80201e22: 8189         	srli	a1, a1, 0x2
80201e24: 8df1         	and	a1, a1, a2
80201e26: 952e         	add	a0, a0, a1
80201e28: 00455593     	srli	a1, a0, 0x4
80201e2c: 952e         	add	a0, a0, a1
80201e2e: 0f0f15b7     	lui	a1, 0xf0f1
80201e32: f0f5859b     	addiw	a1, a1, -0xf1
80201e36: 02059613     	slli	a2, a1, 0x20
80201e3a: 95b2         	add	a1, a1, a2
80201e3c: 8d6d         	and	a0, a0, a1
80201e3e: 010105b7     	lui	a1, 0x1010
80201e42: 1015859b     	addiw	a1, a1, 0x101
80201e46: 02059613     	slli	a2, a1, 0x20
80201e4a: 95b2         	add	a1, a1, a2
80201e4c: 02b50533     	mul	a0, a0, a1
80201e50: 9161         	srli	a0, a0, 0x38
80201e52: d6aa         	sw	a0, 0x6c(sp)
80201e54: 5536         	lw	a0, 0x6c(sp)
80201e56: 4585         	li	a1, 0x1
; /Users/lewis/.rustup/toolchains/stable-aarch64-apple-darwin/lib/rustlib/src/rust/library/core/src/ptr/const_ptr.rs:1602
80201e58: 00b50d63     	beq	a0, a1, 0x80201e72 <.Lpcrel_hi6+0x14>
80201e5c: a00d         	j	0x80201e7e <.Lpcrel_hi7>

0000000080201e5e <.Lpcrel_hi6>:
; .Lpcrel_hi6():
; /Users/lewis/.rustup/toolchains/stable-aarch64-apple-darwin/lib/rustlib/src/rust/library/core/src/ub_checks.rs:70
80201e5e: 00005517     	auipc	a0, 0x5
80201e62: cba50513     	addi	a0, a0, -0x346
80201e66: 06f00593     	li	a1, 0x6f
80201e6a: 00002097     	auipc	ra, 0x2
80201e6e: 534080e7     	jalr	0x534(ra) <core::panicking::panic_nounwind::h92acbb232d24bc37>
80201e72: 6522         	ld	a0, 0x8(sp)
80201e74: 6582         	ld	a1, 0x0(sp)
; /Users/lewis/.rustup/toolchains/stable-aarch64-apple-darwin/lib/rustlib/src/rust/library/core/src/ptr/const_ptr.rs:1608
80201e76: 15fd         	addi	a1, a1, -0x1
80201e78: 8d6d         	and	a0, a0, a1
; /Users/lewis/.rustup/toolchains/stable-aarch64-apple-darwin/lib/rustlib/src/rust/library/core/src/ptr/mod.rs:1890
80201e7a: cd15         	beqz	a0, 0x80201eb6 <.Lpcrel_hi9+0x12>
80201e7c: b7cd         	j	0x80201e5e <.Lpcrel_hi6>

0000000080201e7e <.Lpcrel_hi7>:
; .Lpcrel_hi7():
; /Users/lewis/.rustup/toolchains/stable-aarch64-apple-darwin/lib/rustlib/src/rust/library/core/src/fmt/mod.rs:339
80201e7e: 00005517     	auipc	a0, 0x5
80201e82: b9250513     	addi	a0, a0, -0x46e
80201e86: e82a         	sd	a0, 0x10(sp)
80201e88: 4505         	li	a0, 0x1
80201e8a: ec2a         	sd	a0, 0x18(sp)

0000000080201e8c <.Lpcrel_hi8>:
; .Lpcrel_hi8():
; /Users/lewis/.rustup/toolchains/stable-aarch64-apple-darwin/lib/rustlib/src/rust/library/core/src/fmt/mod.rs:339
80201e8c: 00004517     	auipc	a0, 0x4
80201e90: 31450513     	addi	a0, a0, 0x314
80201e94: 610c         	ld	a1, 0x0(a0)
80201e96: 6508         	ld	a0, 0x8(a0)
80201e98: f82e         	sd	a1, 0x30(sp)
80201e9a: fc2a         	sd	a0, 0x38(sp)
80201e9c: 4521         	li	a0, 0x8
80201e9e: f02a         	sd	a0, 0x20(sp)
80201ea0: 4501         	li	a0, 0x0
80201ea2: f42a         	sd	a0, 0x28(sp)

0000000080201ea4 <.Lpcrel_hi9>:
; .Lpcrel_hi9():
; /Users/lewis/.rustup/toolchains/stable-aarch64-apple-darwin/lib/rustlib/src/rust/library/core/src/ptr/const_ptr.rs:1603
80201ea4: 00005517     	auipc	a0, 0x5
80201ea8: c5c50593     	addi	a1, a0, -0x3a4
80201eac: 0808         	addi	a0, sp, 0x10
80201eae: 00002097     	auipc	ra, 0x2
80201eb2: 448080e7     	jalr	0x448(ra) <core::panicking::panic_fmt::hd74e2a0fb7381b7e>
; /Users/lewis/.rustup/toolchains/stable-aarch64-apple-darwin/lib/rustlib/src/rust/library/core/src/ub_checks.rs:74
80201eb6: 6165         	addi	sp, sp, 0x70
80201eb8: 8082         	ret

0000000080201eba <_$LT$I$u20$as$u20$core..iter..traits..collect..IntoIterator$GT$::into_iter::h94adfbebe79c2d11>:
; _$LT$I$u20$as$u20$core..iter..traits..collect..IntoIterator$GT$::into_iter::h94adfbebe79c2d11():
; /Users/lewis/.rustup/toolchains/stable-aarch64-apple-darwin/lib/rustlib/src/rust/library/core/src/iter/traits/collect.rs:356
80201eba: 1141         	addi	sp, sp, -0x10
80201ebc: e02a         	sd	a0, 0x0(sp)
80201ebe: e42e         	sd	a1, 0x8(sp)
; /Users/lewis/.rustup/toolchains/stable-aarch64-apple-darwin/lib/rustlib/src/rust/library/core/src/iter/traits/collect.rs:358
80201ec0: 0141         	addi	sp, sp, 0x10
80201ec2: 8082         	ret

0000000080201ec4 <_$LT$core..iter..adapters..rev..Rev$LT$I$GT$$u20$as$u20$core..iter..traits..iterator..Iterator$GT$::next::hb5db5816f87e7ae9>:
; _$LT$core..iter..adapters..rev..Rev$LT$I$GT$$u20$as$u20$core..iter..traits..iterator..Iterator$GT$::next::hb5db5816f87e7ae9():
; /Users/lewis/.rustup/toolchains/stable-aarch64-apple-darwin/lib/rustlib/src/rust/library/core/src/iter/adapters/rev.rs:33
80201ec4: 1141         	addi	sp, sp, -0x10
80201ec6: e406         	sd	ra, 0x8(sp)
80201ec8: e02a         	sd	a0, 0x0(sp)
; /Users/lewis/.rustup/toolchains/stable-aarch64-apple-darwin/lib/rustlib/src/rust/library/core/src/iter/adapters/rev.rs:34
80201eca: fffff097     	auipc	ra, 0xfffff
80201ece: 346080e7     	jalr	0x346(ra) <free_mem_start+0xff5f8210>
80201ed2: 60a2         	ld	ra, 0x8(sp)
; /Users/lewis/.rustup/toolchains/stable-aarch64-apple-darwin/lib/rustlib/src/rust/library/core/src/iter/adapters/rev.rs:35
80201ed4: 0141         	addi	sp, sp, 0x10
80201ed6: 8082         	ret

0000000080201ed8 <core::sync::atomic::atomic_load::hdceb756a03733967>:
; core::sync::atomic::atomic_load::hdceb756a03733967():
; /Users/lewis/.rustup/toolchains/stable-aarch64-apple-darwin/lib/rustlib/src/rust/library/core/src/sync/atomic.rs:3325
80201ed8: 7175         	addi	sp, sp, -0x90
80201eda: e02a         	sd	a0, 0x0(sp)
80201edc: 00b10b23     	sb	a1, 0x16(sp)
80201ee0: fcaa         	sd	a0, 0x78(sp)

0000000080201ee2 <.Lpcrel_hi0>:
; .Lpcrel_hi0():
; /Users/lewis/.rustup/toolchains/stable-aarch64-apple-darwin/lib/rustlib/src/rust/library/core/src/fmt/mod.rs:337
80201ee2: 00005517     	auipc	a0, 0x5
80201ee6: d0650513     	addi	a0, a0, -0x2fa
80201eea: e12a         	sd	a0, 0x80(sp)

0000000080201eec <.Lpcrel_hi1>:
; .Lpcrel_hi1():
; /Users/lewis/.rustup/toolchains/stable-aarch64-apple-darwin/lib/rustlib/src/rust/library/core/src/fmt/mod.rs:337
80201eec: 00005517     	auipc	a0, 0x5
80201ef0: d3450513     	addi	a0, a0, -0x2cc
80201ef4: e52a         	sd	a0, 0x88(sp)
; /Users/lewis/.rustup/toolchains/stable-aarch64-apple-darwin/lib/rustlib/src/rust/library/core/src/sync/atomic.rs:3328
80201ef6: 01614503     	lbu	a0, 0x16(sp)
80201efa: e42a         	sd	a0, 0x8(sp)
80201efc: 6522         	ld	a0, 0x8(sp)
; /Users/lewis/.rustup/toolchains/stable-aarch64-apple-darwin/lib/rustlib/src/rust/library/core/src/sync/atomic.rs:3328
80201efe: 050e         	slli	a0, a0, 0x3

0000000080201f00 <.Lpcrel_hi2>:
; .Lpcrel_hi2():
; /Users/lewis/.rustup/toolchains/stable-aarch64-apple-darwin/lib/rustlib/src/rust/library/core/src/sync/atomic.rs:3328
80201f00: 00005597     	auipc	a1, 0x5
80201f04: c8858593     	addi	a1, a1, -0x378
80201f08: 952e         	add	a0, a0, a1
80201f0a: 6108         	ld	a0, 0x0(a0)
80201f0c: 8502         	jr	a0
80201f0e: 0000         	unimp
80201f10: 6502         	ld	a0, 0x0(sp)
; /Users/lewis/.rustup/toolchains/stable-aarch64-apple-darwin/lib/rustlib/src/rust/library/core/src/sync/atomic.rs:3329
80201f12: 00050503     	lb	a0, 0x0(a0)
80201f16: 00a10ba3     	sb	a0, 0x17(sp)
80201f1a: a859         	j	0x80201fb0 <.Lpcrel_hi8+0x26>

0000000080201f1c <.Lpcrel_hi3>:
; .Lpcrel_hi3():
; /Users/lewis/.rustup/toolchains/stable-aarch64-apple-darwin/lib/rustlib/src/rust/library/core/src/fmt/mod.rs:339
80201f1c: 00005517     	auipc	a0, 0x5
80201f20: d0450513     	addi	a0, a0, -0x2fc
80201f24: ec2a         	sd	a0, 0x18(sp)
80201f26: 4505         	li	a0, 0x1
80201f28: f02a         	sd	a0, 0x20(sp)

0000000080201f2a <.Lpcrel_hi4>:
; .Lpcrel_hi4():
; /Users/lewis/.rustup/toolchains/stable-aarch64-apple-darwin/lib/rustlib/src/rust/library/core/src/fmt/mod.rs:339
80201f2a: 00004517     	auipc	a0, 0x4
80201f2e: 27650513     	addi	a0, a0, 0x276
80201f32: 610c         	ld	a1, 0x0(a0)
80201f34: 6508         	ld	a0, 0x8(a0)
80201f36: fc2e         	sd	a1, 0x38(sp)
80201f38: e0aa         	sd	a0, 0x40(sp)
80201f3a: 4521         	li	a0, 0x8
80201f3c: f42a         	sd	a0, 0x28(sp)
80201f3e: 4501         	li	a0, 0x0
80201f40: f82a         	sd	a0, 0x30(sp)

0000000080201f42 <.Lpcrel_hi5>:
; .Lpcrel_hi5():
; /Users/lewis/.rustup/toolchains/stable-aarch64-apple-darwin/lib/rustlib/src/rust/library/core/src/sync/atomic.rs:3332
80201f42: 00005517     	auipc	a0, 0x5
80201f46: d5e50593     	addi	a1, a0, -0x2a2
80201f4a: 0828         	addi	a0, sp, 0x18
80201f4c: 00002097     	auipc	ra, 0x2
80201f50: 3aa080e7     	jalr	0x3aa(ra) <core::panicking::panic_fmt::hd74e2a0fb7381b7e>
80201f54: 6502         	ld	a0, 0x0(sp)
; /Users/lewis/.rustup/toolchains/stable-aarch64-apple-darwin/lib/rustlib/src/rust/library/core/src/sync/atomic.rs:3330
80201f56: 00050503     	lb	a0, 0x0(a0)
80201f5a: 0230000f     	fence	r, rw
80201f5e: 00a10ba3     	sb	a0, 0x17(sp)
80201f62: a0b9         	j	0x80201fb0 <.Lpcrel_hi8+0x26>

0000000080201f64 <.Lpcrel_hi6>:
; .Lpcrel_hi6():
; /Users/lewis/.rustup/toolchains/stable-aarch64-apple-darwin/lib/rustlib/src/rust/library/core/src/fmt/mod.rs:339
80201f64: 00005517     	auipc	a0, 0x5
80201f68: c8450513     	addi	a0, a0, -0x37c
80201f6c: e4aa         	sd	a0, 0x48(sp)
80201f6e: 4505         	li	a0, 0x1
80201f70: e8aa         	sd	a0, 0x50(sp)

0000000080201f72 <.Lpcrel_hi7>:
; .Lpcrel_hi7():
; /Users/lewis/.rustup/toolchains/stable-aarch64-apple-darwin/lib/rustlib/src/rust/library/core/src/fmt/mod.rs:339
80201f72: 00004517     	auipc	a0, 0x4
80201f76: 22e50513     	addi	a0, a0, 0x22e
80201f7a: 610c         	ld	a1, 0x0(a0)
80201f7c: 6508         	ld	a0, 0x8(a0)
80201f7e: f4ae         	sd	a1, 0x68(sp)
80201f80: f8aa         	sd	a0, 0x70(sp)
80201f82: 4521         	li	a0, 0x8
80201f84: ecaa         	sd	a0, 0x58(sp)
80201f86: 4501         	li	a0, 0x0
80201f88: f0aa         	sd	a0, 0x60(sp)

0000000080201f8a <.Lpcrel_hi8>:
; .Lpcrel_hi8():
; /Users/lewis/.rustup/toolchains/stable-aarch64-apple-darwin/lib/rustlib/src/rust/library/core/src/sync/atomic.rs:3333
80201f8a: 00005517     	auipc	a0, 0x5
80201f8e: d2e50593     	addi	a1, a0, -0x2d2
80201f92: 00a8         	addi	a0, sp, 0x48
80201f94: 00002097     	auipc	ra, 0x2
80201f98: 362080e7     	jalr	0x362(ra) <core::panicking::panic_fmt::hd74e2a0fb7381b7e>
80201f9c: 6502         	ld	a0, 0x0(sp)
; /Users/lewis/.rustup/toolchains/stable-aarch64-apple-darwin/lib/rustlib/src/rust/library/core/src/sync/atomic.rs:3331
80201f9e: 0330000f     	fence	rw, rw
80201fa2: 00050503     	lb	a0, 0x0(a0)
80201fa6: 0230000f     	fence	r, rw
80201faa: 00a10ba3     	sb	a0, 0x17(sp)
80201fae: a009         	j	0x80201fb0 <.Lpcrel_hi8+0x26>
; /Users/lewis/.rustup/toolchains/stable-aarch64-apple-darwin/lib/rustlib/src/rust/library/core/src/sync/atomic.rs:3336
80201fb0: 01714503     	lbu	a0, 0x17(sp)
80201fb4: 6149         	addi	sp, sp, 0x90
80201fb6: 8082         	ret

0000000080201fb8 <core::ub_checks::is_nonoverlapping::runtime::hdcf29726cb95fd6c>:
; core::ub_checks::is_nonoverlapping::runtime::hdcf29726cb95fd6c():
; /Users/lewis/.rustup/toolchains/stable-aarch64-apple-darwin/lib/rustlib/src/rust/library/core/src/ub_checks.rs:142
80201fb8: 7175         	addi	sp, sp, -0x90
80201fba: fc2a         	sd	a0, 0x38(sp)
80201fbc: e0ae         	sd	a1, 0x40(sp)
80201fbe: e4b2         	sd	a2, 0x48(sp)
80201fc0: e8b6         	sd	a3, 0x50(sp)
; /Users/lewis/.rustup/toolchains/stable-aarch64-apple-darwin/lib/rustlib/src/rust/library/core/src/ptr/const_ptr.rs:147
80201fc2: 872a         	mv	a4, a0
80201fc4: e43a         	sd	a4, 0x8(sp)
80201fc6: ecaa         	sd	a0, 0x58(sp)
80201fc8: 852e         	mv	a0, a1
80201fca: e82a         	sd	a0, 0x10(sp)
80201fcc: f0ae         	sd	a1, 0x60(sp)
; /Users/lewis/.rustup/toolchains/stable-aarch64-apple-darwin/lib/rustlib/src/rust/library/core/src/num/uint_macros.rs:2451
80201fce: 02d63533     	mulhu	a0, a2, a3
80201fd2: 00a03533     	snez	a0, a0
80201fd6: 02d605b3     	mul	a1, a2, a3
80201fda: ec2e         	sd	a1, 0x18(sp)
80201fdc: f4ae         	sd	a1, 0x68(sp)
80201fde: 06a10ba3     	sb	a0, 0x77(sp)
; /Users/lewis/.rustup/toolchains/stable-aarch64-apple-darwin/lib/rustlib/src/rust/library/core/src/num/uint_macros.rs:2452
80201fe2: fcae         	sd	a1, 0x78(sp)
; /Users/lewis/.rustup/toolchains/stable-aarch64-apple-darwin/lib/rustlib/src/rust/library/core/src/num/mod.rs:22
80201fe4: 08a103a3     	sb	a0, 0x87(sp)
80201fe8: 08714503     	lbu	a0, 0x87(sp)
80201fec: 8905         	andi	a0, a0, 0x1
80201fee: ed11         	bnez	a0, 0x8020200a <.Lpcrel_hi0>
80201ff0: a009         	j	0x80201ff2 <core::ub_checks::is_nonoverlapping::runtime::hdcf29726cb95fd6c+0x3a>
80201ff2: 6522         	ld	a0, 0x8(sp)
80201ff4: 65c2         	ld	a1, 0x10(sp)
80201ff6: 6662         	ld	a2, 0x18(sp)
; /Users/lewis/.rustup/toolchains/stable-aarch64-apple-darwin/lib/rustlib/src/rust/library/core/src/num/uint_macros.rs:848
80201ff8: f432         	sd	a2, 0x28(sp)
80201ffa: 4605         	li	a2, 0x1
80201ffc: f032         	sd	a2, 0x20(sp)
; /Users/lewis/.rustup/toolchains/stable-aarch64-apple-darwin/lib/rustlib/src/rust/library/core/src/ub_checks.rs:145
80201ffe: 7622         	ld	a2, 0x28(sp)
80202000: e032         	sd	a2, 0x0(sp)
80202002: e532         	sd	a2, 0x88(sp)
; /Users/lewis/.rustup/toolchains/stable-aarch64-apple-darwin/lib/rustlib/src/rust/library/core/src/num/uint_macros.rs:2420
80202004: 02b56263     	bltu	a0, a1, 0x80202028 <.Lpcrel_hi0+0x1e>
80202008: a819         	j	0x8020201e <.Lpcrel_hi0+0x14>

000000008020200a <.Lpcrel_hi0>:
; .Lpcrel_hi0():
; /Users/lewis/.rustup/toolchains/stable-aarch64-apple-darwin/lib/rustlib/src/rust/library/core/src/ub_checks.rs:146
8020200a: 00005517     	auipc	a0, 0x5
8020200e: cc650513     	addi	a0, a0, -0x33a
80202012: 03d00593     	li	a1, 0x3d
80202016: 00002097     	auipc	ra, 0x2
8020201a: 388080e7     	jalr	0x388(ra) <core::panicking::panic_nounwind::h92acbb232d24bc37>
8020201e: 6522         	ld	a0, 0x8(sp)
80202020: 65c2         	ld	a1, 0x10(sp)
; /Users/lewis/.rustup/toolchains/stable-aarch64-apple-darwin/lib/rustlib/src/rust/library/core/src/num/uint_macros.rs:2423
80202022: 8d0d         	sub	a0, a0, a1
80202024: f82a         	sd	a0, 0x30(sp)
; /Users/lewis/.rustup/toolchains/stable-aarch64-apple-darwin/lib/rustlib/src/rust/library/core/src/num/uint_macros.rs:2420
80202026: a031         	j	0x80202032 <.Lpcrel_hi0+0x28>
80202028: 6542         	ld	a0, 0x10(sp)
8020202a: 65a2         	ld	a1, 0x8(sp)
; /Users/lewis/.rustup/toolchains/stable-aarch64-apple-darwin/lib/rustlib/src/rust/library/core/src/num/uint_macros.rs:2421
8020202c: 8d0d         	sub	a0, a0, a1
8020202e: f82a         	sd	a0, 0x30(sp)
; /Users/lewis/.rustup/toolchains/stable-aarch64-apple-darwin/lib/rustlib/src/rust/library/core/src/num/uint_macros.rs:2420
80202030: a009         	j	0x80202032 <.Lpcrel_hi0+0x28>
80202032: 6582         	ld	a1, 0x0(sp)
; /Users/lewis/.rustup/toolchains/stable-aarch64-apple-darwin/lib/rustlib/src/rust/library/core/src/ub_checks.rs:153
80202034: 7542         	ld	a0, 0x30(sp)
80202036: 00b53533     	sltu	a0, a0, a1
8020203a: 00154513     	xori	a0, a0, 0x1
; /Users/lewis/.rustup/toolchains/stable-aarch64-apple-darwin/lib/rustlib/src/rust/library/core/src/ub_checks.rs:154
8020203e: 6149         	addi	sp, sp, 0x90
80202040: 8082         	ret

0000000080202042 <core::cmp::Ord::max::h8bfa36fccff51f9b>:
; core::cmp::Ord::max::h8bfa36fccff51f9b():
; /Users/lewis/.rustup/toolchains/stable-aarch64-apple-darwin/lib/rustlib/src/rust/library/core/src/cmp.rs:980
80202042: 1101         	addi	sp, sp, -0x20
80202044: ec06         	sd	ra, 0x18(sp)
80202046: e42a         	sd	a0, 0x8(sp)
80202048: e82e         	sd	a1, 0x10(sp)
; /Users/lewis/.rustup/toolchains/stable-aarch64-apple-darwin/lib/rustlib/src/rust/library/core/src/cmp.rs:984
8020204a: 00000097     	auipc	ra, 0x0
8020204e: 050080e7     	jalr	0x50(ra) <core::cmp::max_by::h1e766a106e8d0db5>
80202052: 60e2         	ld	ra, 0x18(sp)
; /Users/lewis/.rustup/toolchains/stable-aarch64-apple-darwin/lib/rustlib/src/rust/library/core/src/cmp.rs:985
80202054: 6105         	addi	sp, sp, 0x20
80202056: 8082         	ret

0000000080202058 <core::cmp::Ord::min::h3a14f241679be04f>:
; core::cmp::Ord::min::h3a14f241679be04f():
; /Users/lewis/.rustup/toolchains/stable-aarch64-apple-darwin/lib/rustlib/src/rust/library/core/src/cmp.rs:1001
80202058: 1101         	addi	sp, sp, -0x20
8020205a: ec06         	sd	ra, 0x18(sp)
8020205c: e42a         	sd	a0, 0x8(sp)
8020205e: e82e         	sd	a1, 0x10(sp)
; /Users/lewis/.rustup/toolchains/stable-aarch64-apple-darwin/lib/rustlib/src/rust/library/core/src/cmp.rs:1005
80202060: 00000097     	auipc	ra, 0x0
80202064: 07e080e7     	jalr	0x7e(ra) <core::cmp::min_by::h7549849d9f8a1a3b>
80202068: 60e2         	ld	ra, 0x18(sp)
; /Users/lewis/.rustup/toolchains/stable-aarch64-apple-darwin/lib/rustlib/src/rust/library/core/src/cmp.rs:1006
8020206a: 6105         	addi	sp, sp, 0x20
8020206c: 8082         	ret

000000008020206e <core::cmp::max::h1761d31973be069b>:
; core::cmp::max::h1761d31973be069b():
; /Users/lewis/.rustup/toolchains/stable-aarch64-apple-darwin/lib/rustlib/src/rust/library/core/src/cmp.rs:1490
8020206e: 1101         	addi	sp, sp, -0x20
80202070: ec06         	sd	ra, 0x18(sp)
80202072: e42a         	sd	a0, 0x8(sp)
80202074: e82e         	sd	a1, 0x10(sp)
; /Users/lewis/.rustup/toolchains/stable-aarch64-apple-darwin/lib/rustlib/src/rust/library/core/src/cmp.rs:1491
80202076: 00000097     	auipc	ra, 0x0
8020207a: fcc080e7     	jalr	-0x34(ra) <core::cmp::Ord::max::h8bfa36fccff51f9b>
8020207e: 60e2         	ld	ra, 0x18(sp)
; /Users/lewis/.rustup/toolchains/stable-aarch64-apple-darwin/lib/rustlib/src/rust/library/core/src/cmp.rs:1492
80202080: 6105         	addi	sp, sp, 0x20
80202082: 8082         	ret

0000000080202084 <core::cmp::min::h046cc4b88791bf3b>:
; core::cmp::min::h046cc4b88791bf3b():
; /Users/lewis/.rustup/toolchains/stable-aarch64-apple-darwin/lib/rustlib/src/rust/library/core/src/cmp.rs:1421
80202084: 1101         	addi	sp, sp, -0x20
80202086: ec06         	sd	ra, 0x18(sp)
80202088: e42a         	sd	a0, 0x8(sp)
8020208a: e82e         	sd	a1, 0x10(sp)
; /Users/lewis/.rustup/toolchains/stable-aarch64-apple-darwin/lib/rustlib/src/rust/library/core/src/cmp.rs:1422
8020208c: 00000097     	auipc	ra, 0x0
80202090: fcc080e7     	jalr	-0x34(ra) <core::cmp::Ord::min::h3a14f241679be04f>
80202094: 60e2         	ld	ra, 0x18(sp)
; /Users/lewis/.rustup/toolchains/stable-aarch64-apple-darwin/lib/rustlib/src/rust/library/core/src/cmp.rs:1423
80202096: 6105         	addi	sp, sp, 0x20
80202098: 8082         	ret

000000008020209a <core::cmp::max_by::h1e766a106e8d0db5>:
; core::cmp::max_by::h1e766a106e8d0db5():
; /Users/lewis/.rustup/toolchains/stable-aarch64-apple-darwin/lib/rustlib/src/rust/library/core/src/cmp.rs:1512
8020209a: 7179         	addi	sp, sp, -0x30
8020209c: f406         	sd	ra, 0x28(sp)
8020209e: e42a         	sd	a0, 0x8(sp)
802020a0: e82e         	sd	a1, 0x10(sp)
802020a2: 0028         	addi	a0, sp, 0x8
802020a4: 080c         	addi	a1, sp, 0x10
; /Users/lewis/.rustup/toolchains/stable-aarch64-apple-darwin/lib/rustlib/src/rust/library/core/src/cmp.rs:1513
802020a6: 00001097     	auipc	ra, 0x1
802020aa: f1e080e7     	jalr	-0xe2(ra) <core::ops::function::FnOnce::call_once::h18c4cf063f57deaf>
802020ae: 02a10323     	sb	a0, 0x26(sp)
802020b2: 02614503     	lbu	a0, 0x26(sp)
802020b6: 2505         	addiw	a0, a0, 0x1
802020b8: 0ff57513     	andi	a0, a0, 0xff
802020bc: 4589         	li	a1, 0x2
802020be: 00b56563     	bltu	a0, a1, 0x802020c8 <core::cmp::max_by::h1e766a106e8d0db5+0x2e>
802020c2: a009         	j	0x802020c4 <core::cmp::max_by::h1e766a106e8d0db5+0x2a>
802020c4: a029         	j	0x802020ce <core::cmp::max_by::h1e766a106e8d0db5+0x34>
802020c6: 0000         	unimp
; /Users/lewis/.rustup/toolchains/stable-aarch64-apple-darwin/lib/rustlib/src/rust/library/core/src/cmp.rs:1514
802020c8: 6542         	ld	a0, 0x10(sp)
802020ca: ec2a         	sd	a0, 0x18(sp)
; /Users/lewis/.rustup/toolchains/stable-aarch64-apple-darwin/lib/rustlib/src/rust/library/core/src/cmp.rs:1517
802020cc: a021         	j	0x802020d4 <core::cmp::max_by::h1e766a106e8d0db5+0x3a>
; /Users/lewis/.rustup/toolchains/stable-aarch64-apple-darwin/lib/rustlib/src/rust/library/core/src/cmp.rs:1515
802020ce: 6522         	ld	a0, 0x8(sp)
802020d0: ec2a         	sd	a0, 0x18(sp)
; /Users/lewis/.rustup/toolchains/stable-aarch64-apple-darwin/lib/rustlib/src/rust/library/core/src/cmp.rs:1517
802020d2: a011         	j	0x802020d6 <core::cmp::max_by::h1e766a106e8d0db5+0x3c>
802020d4: a009         	j	0x802020d6 <core::cmp::max_by::h1e766a106e8d0db5+0x3c>
802020d6: 6562         	ld	a0, 0x18(sp)
802020d8: 70a2         	ld	ra, 0x28(sp)
802020da: 6145         	addi	sp, sp, 0x30
802020dc: 8082         	ret

00000000802020de <core::cmp::min_by::h7549849d9f8a1a3b>:
; core::cmp::min_by::h7549849d9f8a1a3b():
; /Users/lewis/.rustup/toolchains/stable-aarch64-apple-darwin/lib/rustlib/src/rust/library/core/src/cmp.rs:1443
802020de: 7179         	addi	sp, sp, -0x30
802020e0: f406         	sd	ra, 0x28(sp)
802020e2: e42a         	sd	a0, 0x8(sp)
802020e4: e82e         	sd	a1, 0x10(sp)
802020e6: 4505         	li	a0, 0x1
; /Users/lewis/.rustup/toolchains/stable-aarch64-apple-darwin/lib/rustlib/src/rust/library/core/src/cmp.rs:1444
802020e8: 02a10323     	sb	a0, 0x26(sp)
802020ec: 0028         	addi	a0, sp, 0x8
802020ee: 080c         	addi	a1, sp, 0x10
802020f0: 00001097     	auipc	ra, 0x1
802020f4: ed4080e7     	jalr	-0x12c(ra) <core::ops::function::FnOnce::call_once::h18c4cf063f57deaf>
802020f8: 02a102a3     	sb	a0, 0x25(sp)
802020fc: 02514503     	lbu	a0, 0x25(sp)
80202100: 2505         	addiw	a0, a0, 0x1
80202102: 0ff57513     	andi	a0, a0, 0xff
80202106: 4589         	li	a1, 0x2
80202108: 00b56563     	bltu	a0, a1, 0x80202112 <core::cmp::min_by::h7549849d9f8a1a3b+0x34>
8020210c: a009         	j	0x8020210e <core::cmp::min_by::h7549849d9f8a1a3b+0x30>
8020210e: a801         	j	0x8020211e <core::cmp::min_by::h7549849d9f8a1a3b+0x40>
80202110: 0000         	unimp
80202112: 4501         	li	a0, 0x0
; /Users/lewis/.rustup/toolchains/stable-aarch64-apple-darwin/lib/rustlib/src/rust/library/core/src/cmp.rs:1445
80202114: 02a10323     	sb	a0, 0x26(sp)
80202118: 6522         	ld	a0, 0x8(sp)
8020211a: ec2a         	sd	a0, 0x18(sp)
; /Users/lewis/.rustup/toolchains/stable-aarch64-apple-darwin/lib/rustlib/src/rust/library/core/src/cmp.rs:1448
8020211c: a021         	j	0x80202124 <core::cmp::min_by::h7549849d9f8a1a3b+0x46>
; /Users/lewis/.rustup/toolchains/stable-aarch64-apple-darwin/lib/rustlib/src/rust/library/core/src/cmp.rs:1446
8020211e: 6542         	ld	a0, 0x10(sp)
80202120: ec2a         	sd	a0, 0x18(sp)
; /Users/lewis/.rustup/toolchains/stable-aarch64-apple-darwin/lib/rustlib/src/rust/library/core/src/cmp.rs:1448
80202122: a031         	j	0x8020212e <core::cmp::min_by::h7549849d9f8a1a3b+0x50>
80202124: a009         	j	0x80202126 <core::cmp::min_by::h7549849d9f8a1a3b+0x48>
80202126: 6562         	ld	a0, 0x18(sp)
80202128: 70a2         	ld	ra, 0x28(sp)
8020212a: 6145         	addi	sp, sp, 0x30
8020212c: 8082         	ret
8020212e: 02614503     	lbu	a0, 0x26(sp)
80202132: 8905         	andi	a0, a0, 0x1
80202134: d96d         	beqz	a0, 0x80202126 <core::cmp::min_by::h7549849d9f8a1a3b+0x48>
80202136: a009         	j	0x80202138 <core::cmp::min_by::h7549849d9f8a1a3b+0x5a>
80202138: b7fd         	j	0x80202126 <core::cmp::min_by::h7549849d9f8a1a3b+0x48>

000000008020213a <_$LT$spin..mutex..MutexGuard$LT$T$GT$$u20$as$u20$core..ops..deref..DerefMut$GT$::deref_mut::h645f58df60fdf12d>:
; _$LT$spin..mutex..MutexGuard$LT$T$GT$$u20$as$u20$core..ops..deref..DerefMut$GT$::deref_mut::h645f58df60fdf12d():
; /Users/lewis/.cargo/registry/src/rsproxy.cn-0dccff568467c15b/spin-0.9.8/src/mutex.rs:312
8020213a: 1141         	addi	sp, sp, -0x10
8020213c: e406         	sd	ra, 0x8(sp)
8020213e: e02a         	sd	a0, 0x0(sp)
; /Users/lewis/.cargo/registry/src/rsproxy.cn-0dccff568467c15b/spin-0.9.8/src/mutex.rs:313
80202140: ffffe097     	auipc	ra, 0xffffe
80202144: ed6080e7     	jalr	-0x12a(ra) <free_mem_start+0xff5f7016>
80202148: 60a2         	ld	ra, 0x8(sp)
; /Users/lewis/.cargo/registry/src/rsproxy.cn-0dccff568467c15b/spin-0.9.8/src/mutex.rs:314
8020214a: 0141         	addi	sp, sp, 0x10
8020214c: 8082         	ret

000000008020214e <buddy_system_allocator::Heap$LT$_$GT$::add_to_heap::h7f38b4830d68fd9d>:
; buddy_system_allocator::Heap$LT$_$GT$::add_to_heap::h7f38b4830d68fd9d():
; /Users/lewis/.cargo/registry/src/rsproxy.cn-0dccff568467c15b/buddy_system_allocator-0.11.0/src/lib.rs:80
8020214e: 7151         	addi	sp, sp, -0xf0
80202150: f586         	sd	ra, 0xe8(sp)
80202152: e52a         	sd	a0, 0x88(sp)
80202154: ed2e         	sd	a1, 0x98(sp)
80202156: f132         	sd	a2, 0xa0(sp)
80202158: e5aa         	sd	a0, 0xc8(sp)
; /Users/lewis/.cargo/registry/src/rsproxy.cn-0dccff568467c15b/buddy_system_allocator-0.11.0/src/lib.rs:82
8020215a: 65ea         	ld	a1, 0x98(sp)
8020215c: 00858513     	addi	a0, a1, 0x8
80202160: e92a         	sd	a0, 0x90(sp)
80202162: 00b56963     	bltu	a0, a1, 0x80202174 <.Lpcrel_hi0>
80202166: a009         	j	0x80202168 <buddy_system_allocator::Heap$LT$_$GT$::add_to_heap::h7f38b4830d68fd9d+0x1a>
80202168: 654a         	ld	a0, 0x90(sp)
; /Users/lewis/.cargo/registry/src/rsproxy.cn-0dccff568467c15b/buddy_system_allocator-0.11.0/src/lib.rs:82
8020216a: fff50593     	addi	a1, a0, -0x1
8020216e: e12e         	sd	a1, 0x80(sp)
80202170: cd19         	beqz	a0, 0x8020218e <.Lpcrel_hi1>
80202172: a809         	j	0x80202184 <.Lpcrel_hi0+0x10>

0000000080202174 <.Lpcrel_hi0>:
; .Lpcrel_hi0():
; /Users/lewis/.cargo/registry/src/rsproxy.cn-0dccff568467c15b/buddy_system_allocator-0.11.0/src/lib.rs:82
80202174: 00005517     	auipc	a0, 0x5
80202178: cc450513     	addi	a0, a0, -0x33c
8020217c: 00003097     	auipc	ra, 0x3
80202180: cb6080e7     	jalr	-0x34a(ra) <core::panicking::panic_const::panic_const_add_overflow::h1eeea1441bfc0f05>
80202184: 5561         	li	a0, -0x8
80202186: fcaa         	sd	a0, 0x78(sp)
80202188: 4501         	li	a0, 0x0
; /Users/lewis/.cargo/registry/src/rsproxy.cn-0dccff568467c15b/buddy_system_allocator-0.11.0/src/lib.rs:82
8020218a: e11d         	bnez	a0, 0x802021b0 <.Lpcrel_hi2>
8020218c: a809         	j	0x8020219e <.Lpcrel_hi1+0x10>

000000008020218e <.Lpcrel_hi1>:
; .Lpcrel_hi1():
; /Users/lewis/.cargo/registry/src/rsproxy.cn-0dccff568467c15b/buddy_system_allocator-0.11.0/src/lib.rs:82
8020218e: 00005517     	auipc	a0, 0x5
80202192: cc250513     	addi	a0, a0, -0x33e
80202196: 00003097     	auipc	ra, 0x3
8020219a: cd2080e7     	jalr	-0x32e(ra) <core::panicking::panic_const::panic_const_sub_overflow::hfc9e186cc78b3e6c>
8020219e: 650a         	ld	a0, 0x80(sp)
802021a0: 75e6         	ld	a1, 0x78(sp)
; /Users/lewis/.cargo/registry/src/rsproxy.cn-0dccff568467c15b/buddy_system_allocator-0.11.0/src/lib.rs:82
802021a2: 8d6d         	and	a0, a0, a1
802021a4: ed2a         	sd	a0, 0x98(sp)
802021a6: 5561         	li	a0, -0x8
802021a8: f8aa         	sd	a0, 0x70(sp)
802021aa: 4501         	li	a0, 0x0
; /Users/lewis/.cargo/registry/src/rsproxy.cn-0dccff568467c15b/buddy_system_allocator-0.11.0/src/lib.rs:83
802021ac: e11d         	bnez	a0, 0x802021d2 <.Lpcrel_hi3>
802021ae: a809         	j	0x802021c0 <.Lpcrel_hi2+0x10>

00000000802021b0 <.Lpcrel_hi2>:
; .Lpcrel_hi2():
; /Users/lewis/.cargo/registry/src/rsproxy.cn-0dccff568467c15b/buddy_system_allocator-0.11.0/src/lib.rs:82
802021b0: 00005517     	auipc	a0, 0x5
802021b4: cb850513     	addi	a0, a0, -0x348
802021b8: 00003097     	auipc	ra, 0x3
802021bc: c7a080e7     	jalr	-0x386(ra) <core::panicking::panic_const::panic_const_add_overflow::h1eeea1441bfc0f05>
802021c0: 75c6         	ld	a1, 0x70(sp)
; /Users/lewis/.cargo/registry/src/rsproxy.cn-0dccff568467c15b/buddy_system_allocator-0.11.0/src/lib.rs:83
802021c2: 750a         	ld	a0, 0xa0(sp)
802021c4: 8d6d         	and	a0, a0, a1
802021c6: f12a         	sd	a0, 0xa0(sp)
; /Users/lewis/.cargo/registry/src/rsproxy.cn-0dccff568467c15b/buddy_system_allocator-0.11.0/src/lib.rs:84
802021c8: 65ea         	ld	a1, 0x98(sp)
802021ca: 750a         	ld	a0, 0xa0(sp)
802021cc: 02b57863     	bgeu	a0, a1, 0x802021fc <.Lpcrel_hi5+0x12>
802021d0: a809         	j	0x802021e2 <.Lpcrel_hi4>

00000000802021d2 <.Lpcrel_hi3>:
; .Lpcrel_hi3():
; /Users/lewis/.cargo/registry/src/rsproxy.cn-0dccff568467c15b/buddy_system_allocator-0.11.0/src/lib.rs:83
802021d2: 00005517     	auipc	a0, 0x5
802021d6: cae50513     	addi	a0, a0, -0x352
802021da: 00003097     	auipc	ra, 0x3
802021de: c58080e7     	jalr	-0x3a8(ra) <core::panicking::panic_const::panic_const_add_overflow::h1eeea1441bfc0f05>

00000000802021e2 <.Lpcrel_hi4>:
; .Lpcrel_hi4():
; /Users/lewis/.cargo/registry/src/rsproxy.cn-0dccff568467c15b/buddy_system_allocator-0.11.0/src/lib.rs:84
802021e2: 00005517     	auipc	a0, 0x5
802021e6: cb650513     	addi	a0, a0, -0x34a

00000000802021ea <.Lpcrel_hi5>:
; .Lpcrel_hi5():
; /Users/lewis/.cargo/registry/src/rsproxy.cn-0dccff568467c15b/buddy_system_allocator-0.11.0/src/lib.rs:84
802021ea: 00005597     	auipc	a1, 0x5
802021ee: cce58613     	addi	a2, a1, -0x332
802021f2: 45f9         	li	a1, 0x1e
802021f4: 00002097     	auipc	ra, 0x2
802021f8: 170080e7     	jalr	0x170(ra) <core::panicking::panic::h06ccfc350ab1daef>
802021fc: 4501         	li	a0, 0x0
; /Users/lewis/.cargo/registry/src/rsproxy.cn-0dccff568467c15b/buddy_system_allocator-0.11.0/src/lib.rs:86
802021fe: f52a         	sd	a0, 0xa8(sp)
; /Users/lewis/.cargo/registry/src/rsproxy.cn-0dccff568467c15b/buddy_system_allocator-0.11.0/src/lib.rs:87
80202200: 656a         	ld	a0, 0x98(sp)
80202202: f92a         	sd	a0, 0xb0(sp)
; /Users/lewis/.cargo/registry/src/rsproxy.cn-0dccff568467c15b/buddy_system_allocator-0.11.0/src/lib.rs:89
80202204: a009         	j	0x80202206 <.Lpcrel_hi5+0x1c>
80202206: 75ca         	ld	a1, 0xb0(sp)
80202208: 00858513     	addi	a0, a1, 0x8
8020220c: f4aa         	sd	a0, 0x68(sp)
8020220e: 00b56863     	bltu	a0, a1, 0x8020221e <.Lpcrel_hi6>
80202212: a009         	j	0x80202214 <.Lpcrel_hi5+0x2a>
80202214: 75a6         	ld	a1, 0x68(sp)
; /Users/lewis/.cargo/registry/src/rsproxy.cn-0dccff568467c15b/buddy_system_allocator-0.11.0/src/lib.rs:89
80202216: 750a         	ld	a0, 0xa0(sp)
80202218: 02b57463     	bgeu	a0, a1, 0x80202240 <.Lpcrel_hi6+0x22>
8020221c: a809         	j	0x8020222e <.Lpcrel_hi6+0x10>

000000008020221e <.Lpcrel_hi6>:
; .Lpcrel_hi6():
; /Users/lewis/.cargo/registry/src/rsproxy.cn-0dccff568467c15b/buddy_system_allocator-0.11.0/src/lib.rs:89
8020221e: 00005517     	auipc	a0, 0x5
80202222: cb250513     	addi	a0, a0, -0x34e
80202226: 00003097     	auipc	ra, 0x3
8020222a: c0c080e7     	jalr	-0x3f4(ra) <core::panicking::panic_const::panic_const_add_overflow::h1eeea1441bfc0f05>
8020222e: 65aa         	ld	a1, 0x88(sp)
; /Users/lewis/.cargo/registry/src/rsproxy.cn-0dccff568467c15b/buddy_system_allocator-0.11.0/src/lib.rs:106
80202230: 752a         	ld	a0, 0xa8(sp)
80202232: 1105b583     	ld	a1, 0x110(a1)
80202236: 952e         	add	a0, a0, a1
80202238: f0aa         	sd	a0, 0x60(sp)
8020223a: 02b56363     	bltu	a0, a1, 0x80202260 <.Lpcrel_hi7>
8020223e: a811         	j	0x80202252 <.Lpcrel_hi6+0x34>
; /Users/lewis/.cargo/registry/src/rsproxy.cn-0dccff568467c15b/buddy_system_allocator-0.11.0/src/lib.rs:90
80202240: 75ca         	ld	a1, 0xb0(sp)
80202242: e8ae         	sd	a1, 0x50(sp)
80202244: 4501         	li	a0, 0x0
80202246: 40b505b3     	sub	a1, a0, a1
8020224a: ecae         	sd	a1, 0x58(sp)
8020224c: 02b57f63     	bgeu	a0, a1, 0x8020228a <.Lpcrel_hi8>
80202250: a005         	j	0x80202270 <.Lpcrel_hi7+0x10>
80202252: 7506         	ld	a0, 0x60(sp)
80202254: 65aa         	ld	a1, 0x88(sp)
; /Users/lewis/.cargo/registry/src/rsproxy.cn-0dccff568467c15b/buddy_system_allocator-0.11.0/src/lib.rs:106
80202256: 10a5b823     	sd	a0, 0x110(a1)
8020225a: 70ae         	ld	ra, 0xe8(sp)
; /Users/lewis/.cargo/registry/src/rsproxy.cn-0dccff568467c15b/buddy_system_allocator-0.11.0/src/lib.rs:107
8020225c: 616d         	addi	sp, sp, 0xf0
8020225e: 8082         	ret

0000000080202260 <.Lpcrel_hi7>:
; .Lpcrel_hi7():
; /Users/lewis/.cargo/registry/src/rsproxy.cn-0dccff568467c15b/buddy_system_allocator-0.11.0/src/lib.rs:106
80202260: 00005517     	auipc	a0, 0x5
80202264: c8850513     	addi	a0, a0, -0x378
80202268: 00003097     	auipc	ra, 0x3
8020226c: bca080e7     	jalr	-0x436(ra) <core::panicking::panic_const::panic_const_add_overflow::h1eeea1441bfc0f05>
80202270: 6546         	ld	a0, 0x50(sp)
80202272: 65e6         	ld	a1, 0x58(sp)
; /Users/lewis/.cargo/registry/src/rsproxy.cn-0dccff568467c15b/buddy_system_allocator-0.11.0/src/lib.rs:90
80202274: 8d6d         	and	a0, a0, a1
80202276: e0aa         	sd	a0, 0x40(sp)
80202278: e9aa         	sd	a0, 0xd0(sp)
; /Users/lewis/.cargo/registry/src/rsproxy.cn-0dccff568467c15b/buddy_system_allocator-0.11.0/src/lib.rs:91
8020227a: 750a         	ld	a0, 0xa0(sp)
8020227c: 75ca         	ld	a1, 0xb0(sp)
8020227e: 40b50633     	sub	a2, a0, a1
80202282: e4b2         	sd	a2, 0x48(sp)
80202284: 06b56d63     	bltu	a0, a1, 0x802022fe <.Lpcrel_hi11>
80202288: a809         	j	0x8020229a <.Lpcrel_hi8+0x10>

000000008020228a <.Lpcrel_hi8>:
; .Lpcrel_hi8():
; /Users/lewis/.cargo/registry/src/rsproxy.cn-0dccff568467c15b/buddy_system_allocator-0.11.0/src/lib.rs:90
8020228a: 00005517     	auipc	a0, 0x5
8020228e: c7650513     	addi	a0, a0, -0x38a
80202292: 00003097     	auipc	ra, 0x3
80202296: ba0080e7     	jalr	-0x460(ra) <core::panicking::panic_const::panic_const_add_overflow::h1eeea1441bfc0f05>
8020229a: 6526         	ld	a0, 0x48(sp)
; /Users/lewis/.cargo/registry/src/rsproxy.cn-0dccff568467c15b/buddy_system_allocator-0.11.0/src/lib.rs:91
8020229c: 00002097     	auipc	ra, 0x2
802022a0: c4a080e7     	jalr	-0x3b6(ra) <buddy_system_allocator::prev_power_of_two::h4f58665e0670c1c9>
802022a4: 85aa         	mv	a1, a0
802022a6: 6506         	ld	a0, 0x40(sp)
802022a8: 00000097     	auipc	ra, 0x0
802022ac: ddc080e7     	jalr	-0x224(ra) <core::cmp::min::h046cc4b88791bf3b>
802022b0: fd2a         	sd	a0, 0xb8(sp)
; /Users/lewis/.cargo/registry/src/rsproxy.cn-0dccff568467c15b/buddy_system_allocator-0.11.0/src/lib.rs:95
802022b2: 756a         	ld	a0, 0xb8(sp)
802022b4: edaa         	sd	a0, 0xd8(sp)
802022b6: 4581         	li	a1, 0x0
; /Users/lewis/.rustup/toolchains/stable-aarch64-apple-darwin/lib/rustlib/src/rust/library/core/src/num/uint_macros.rs:162
802022b8: 8d89         	sub	a1, a1, a0
802022ba: 8de9         	and	a1, a1, a0

00000000802022bc <.Lpcrel_hi9>:
; .Lpcrel_hi9():
; /Users/lewis/.rustup/toolchains/stable-aarch64-apple-darwin/lib/rustlib/src/rust/library/core/src/num/uint_macros.rs:162
802022bc: 00004617     	auipc	a2, 0x4
802022c0: 1ac60613     	addi	a2, a2, 0x1ac
802022c4: 6210         	ld	a2, 0x0(a2)
802022c6: 02c585b3     	mul	a1, a1, a2
802022ca: 03a5d613     	srli	a2, a1, 0x3a

00000000802022ce <.Lpcrel_hi10>:
; .Lpcrel_hi10():
; /Users/lewis/.rustup/toolchains/stable-aarch64-apple-darwin/lib/rustlib/src/rust/library/core/src/num/uint_macros.rs:162
802022ce: 00005597     	auipc	a1, 0x5
802022d2: a3f58593     	addi	a1, a1, -0x5c1
802022d6: 95b2         	add	a1, a1, a2
802022d8: 0005c583     	lbu	a1, 0x0(a1)
802022dc: 04000613     	li	a2, 0x40
802022e0: f832         	sd	a2, 0x30(sp)
802022e2: fc2e         	sd	a1, 0x38(sp)
802022e4: e119         	bnez	a0, 0x802022ea <.Lpcrel_hi10+0x1c>
802022e6: 7542         	ld	a0, 0x30(sp)
802022e8: fc2a         	sd	a0, 0x38(sp)
802022ea: 7562         	ld	a0, 0x38(sp)
; /Users/lewis/.rustup/toolchains/stable-aarch64-apple-darwin/lib/rustlib/src/rust/library/core/src/num/uint_macros.rs:162
802022ec: d3aa         	sw	a0, 0xe4(sp)
802022ee: 0e416503     	lwu	a0, 0xe4(sp)
; /Users/lewis/.cargo/registry/src/rsproxy.cn-0dccff568467c15b/buddy_system_allocator-0.11.0/src/lib.rs:95
802022f2: e1aa         	sd	a0, 0xc0(sp)
; /Users/lewis/.cargo/registry/src/rsproxy.cn-0dccff568467c15b/buddy_system_allocator-0.11.0/src/lib.rs:96
802022f4: 658e         	ld	a1, 0xc0(sp)
802022f6: 457d         	li	a0, 0x1f
802022f8: 02b56263     	bltu	a0, a1, 0x8020231c <.Lpcrel_hi11+0x1e>
802022fc: a809         	j	0x8020230e <.Lpcrel_hi11+0x10>

00000000802022fe <.Lpcrel_hi11>:
; .Lpcrel_hi11():
; /Users/lewis/.cargo/registry/src/rsproxy.cn-0dccff568467c15b/buddy_system_allocator-0.11.0/src/lib.rs:91
802022fe: 00005517     	auipc	a0, 0x5
80202302: c1a50513     	addi	a0, a0, -0x3e6
80202306: 00003097     	auipc	ra, 0x3
8020230a: b62080e7     	jalr	-0x49e(ra) <core::panicking::panic_const::panic_const_sub_overflow::hfc9e186cc78b3e6c>
; /Users/lewis/.cargo/registry/src/rsproxy.cn-0dccff568467c15b/buddy_system_allocator-0.11.0/src/lib.rs:100
8020230e: 756a         	ld	a0, 0xb8(sp)
80202310: 75aa         	ld	a1, 0xa8(sp)
80202312: 952e         	add	a0, a0, a1
80202314: f42a         	sd	a0, 0x28(sp)
80202316: 04b56563     	bltu	a0, a1, 0x80202360 <.Lpcrel_hi13>
8020231a: a805         	j	0x8020234a <.Lpcrel_hi12+0x10>
8020231c: 457d         	li	a0, 0x1f
; /Users/lewis/.cargo/registry/src/rsproxy.cn-0dccff568467c15b/buddy_system_allocator-0.11.0/src/lib.rs:97
8020231e: e1aa         	sd	a0, 0xc0(sp)
; /Users/lewis/.cargo/registry/src/rsproxy.cn-0dccff568467c15b/buddy_system_allocator-0.11.0/src/lib.rs:98
80202320: 658e         	ld	a1, 0xc0(sp)
80202322: f02e         	sd	a1, 0x20(sp)
80202324: 03f00513     	li	a0, 0x3f
80202328: 00b56963     	bltu	a0, a1, 0x8020233a <.Lpcrel_hi12>
8020232c: a009         	j	0x8020232e <.Lpcrel_hi11+0x30>
8020232e: 7582         	ld	a1, 0x20(sp)
80202330: 4505         	li	a0, 0x1
; /Users/lewis/.cargo/registry/src/rsproxy.cn-0dccff568467c15b/buddy_system_allocator-0.11.0/src/lib.rs:98
80202332: 00b51533     	sll	a0, a0, a1
80202336: fd2a         	sd	a0, 0xb8(sp)
; /Users/lewis/.cargo/registry/src/rsproxy.cn-0dccff568467c15b/buddy_system_allocator-0.11.0/src/lib.rs:96
80202338: bfd9         	j	0x8020230e <.Lpcrel_hi11+0x10>

000000008020233a <.Lpcrel_hi12>:
; .Lpcrel_hi12():
; /Users/lewis/.cargo/registry/src/rsproxy.cn-0dccff568467c15b/buddy_system_allocator-0.11.0/src/lib.rs:98
8020233a: 00005517     	auipc	a0, 0x5
8020233e: bf650513     	addi	a0, a0, -0x40a
80202342: 00003097     	auipc	ra, 0x3
80202346: b92080e7     	jalr	-0x46e(ra) <core::panicking::panic_const::panic_const_shl_overflow::h2aedb2ea5169edc7>
8020234a: 7522         	ld	a0, 0x28(sp)
; /Users/lewis/.cargo/registry/src/rsproxy.cn-0dccff568467c15b/buddy_system_allocator-0.11.0/src/lib.rs:100
8020234c: f52a         	sd	a0, 0xa8(sp)
; /Users/lewis/.cargo/registry/src/rsproxy.cn-0dccff568467c15b/buddy_system_allocator-0.11.0/src/lib.rs:102
8020234e: 650e         	ld	a0, 0xc0(sp)
80202350: e82a         	sd	a0, 0x10(sp)
80202352: 02000593     	li	a1, 0x20
80202356: 862a         	mv	a2, a0
80202358: ec32         	sd	a2, 0x18(sp)
8020235a: 00b56b63     	bltu	a0, a1, 0x80202370 <.Lpcrel_hi13+0x10>
8020235e: a80d         	j	0x80202390 <.Lpcrel_hi13+0x30>

0000000080202360 <.Lpcrel_hi13>:
; .Lpcrel_hi13():
; /Users/lewis/.cargo/registry/src/rsproxy.cn-0dccff568467c15b/buddy_system_allocator-0.11.0/src/lib.rs:100
80202360: 00005517     	auipc	a0, 0x5
80202364: be850513     	addi	a0, a0, -0x418
80202368: 00003097     	auipc	ra, 0x3
8020236c: aca080e7     	jalr	-0x536(ra) <core::panicking::panic_const::panic_const_add_overflow::h1eeea1441bfc0f05>
80202370: 652a         	ld	a0, 0x88(sp)
80202372: 65c2         	ld	a1, 0x10(sp)
; /Users/lewis/.cargo/registry/src/rsproxy.cn-0dccff568467c15b/buddy_system_allocator-0.11.0/src/lib.rs:102
80202374: 058e         	slli	a1, a1, 0x3
80202376: 952e         	add	a0, a0, a1
80202378: 75ca         	ld	a1, 0xb0(sp)
8020237a: 00002097     	auipc	ra, 0x2
8020237e: ab8080e7     	jalr	-0x548(ra) <buddy_system_allocator::linked_list::LinkedList::push::hc7fcdf3c1c5c954a>
; /Users/lewis/.cargo/registry/src/rsproxy.cn-0dccff568467c15b/buddy_system_allocator-0.11.0/src/lib.rs:103
80202382: 756a         	ld	a0, 0xb8(sp)
80202384: 75ca         	ld	a1, 0xb0(sp)
80202386: 952e         	add	a0, a0, a1
80202388: e42a         	sd	a0, 0x8(sp)
8020238a: 02b56163     	bltu	a0, a1, 0x802023ac <.Lpcrel_hi15>
8020238e: a821         	j	0x802023a6 <.Lpcrel_hi14+0x14>
80202390: 6562         	ld	a0, 0x18(sp)

0000000080202392 <.Lpcrel_hi14>:
; .Lpcrel_hi14():
; /Users/lewis/.cargo/registry/src/rsproxy.cn-0dccff568467c15b/buddy_system_allocator-0.11.0/src/lib.rs:102
80202392: 00005597     	auipc	a1, 0x5
80202396: bce58613     	addi	a2, a1, -0x432
8020239a: 02000593     	li	a1, 0x20
8020239e: 00002097     	auipc	ra, 0x2
802023a2: 042080e7     	jalr	0x42(ra) <core::panicking::panic_bounds_check::h8cafb9a5881e4545>
802023a6: 6522         	ld	a0, 0x8(sp)
; /Users/lewis/.cargo/registry/src/rsproxy.cn-0dccff568467c15b/buddy_system_allocator-0.11.0/src/lib.rs:103
802023a8: f92a         	sd	a0, 0xb0(sp)
; /Users/lewis/.cargo/registry/src/rsproxy.cn-0dccff568467c15b/buddy_system_allocator-0.11.0/src/lib.rs:89
802023aa: bdb1         	j	0x80202206 <.Lpcrel_hi5+0x1c>

00000000802023ac <.Lpcrel_hi15>:
; .Lpcrel_hi15():
; /Users/lewis/.cargo/registry/src/rsproxy.cn-0dccff568467c15b/buddy_system_allocator-0.11.0/src/lib.rs:103
802023ac: 00005517     	auipc	a0, 0x5
802023b0: bcc50513     	addi	a0, a0, -0x434
802023b4: 00003097     	auipc	ra, 0x3
802023b8: a7e080e7     	jalr	-0x582(ra) <core::panicking::panic_const::panic_const_add_overflow::h1eeea1441bfc0f05>

00000000802023bc <buddy_system_allocator::Heap$LT$_$GT$::init::h759e2e4a29f935f5>:
; buddy_system_allocator::Heap$LT$_$GT$::init::h759e2e4a29f935f5():
; /Users/lewis/.cargo/registry/src/rsproxy.cn-0dccff568467c15b/buddy_system_allocator-0.11.0/src/lib.rs:110
802023bc: 7139         	addi	sp, sp, -0x40
802023be: fc06         	sd	ra, 0x38(sp)
802023c0: e42e         	sd	a1, 0x8(sp)
802023c2: e82a         	sd	a0, 0x10(sp)
802023c4: f02a         	sd	a0, 0x20(sp)
802023c6: f42e         	sd	a1, 0x28(sp)
802023c8: f832         	sd	a2, 0x30(sp)
; /Users/lewis/.cargo/registry/src/rsproxy.cn-0dccff568467c15b/buddy_system_allocator-0.11.0/src/lib.rs:111
802023ca: 00c58533     	add	a0, a1, a2
802023ce: ec2a         	sd	a0, 0x18(sp)
802023d0: 00b56d63     	bltu	a0, a1, 0x802023ea <.Lpcrel_hi16>
802023d4: a009         	j	0x802023d6 <buddy_system_allocator::Heap$LT$_$GT$::init::h759e2e4a29f935f5+0x1a>
802023d6: 6662         	ld	a2, 0x18(sp)
802023d8: 65a2         	ld	a1, 0x8(sp)
802023da: 6542         	ld	a0, 0x10(sp)
; /Users/lewis/.cargo/registry/src/rsproxy.cn-0dccff568467c15b/buddy_system_allocator-0.11.0/src/lib.rs:111
802023dc: 00000097     	auipc	ra, 0x0
802023e0: d72080e7     	jalr	-0x28e(ra) <buddy_system_allocator::Heap$LT$_$GT$::add_to_heap::h7f38b4830d68fd9d>
802023e4: 70e2         	ld	ra, 0x38(sp)
; /Users/lewis/.cargo/registry/src/rsproxy.cn-0dccff568467c15b/buddy_system_allocator-0.11.0/src/lib.rs:112
802023e6: 6121         	addi	sp, sp, 0x40
802023e8: 8082         	ret

00000000802023ea <.Lpcrel_hi16>:
; .Lpcrel_hi16():
; /Users/lewis/.cargo/registry/src/rsproxy.cn-0dccff568467c15b/buddy_system_allocator-0.11.0/src/lib.rs:111
802023ea: 00005517     	auipc	a0, 0x5
802023ee: ba650513     	addi	a0, a0, -0x45a
802023f2: 00003097     	auipc	ra, 0x3
802023f6: a40080e7     	jalr	-0x5c0(ra) <core::panicking::panic_const::panic_const_add_overflow::h1eeea1441bfc0f05>

00000000802023fa <buddy_system_allocator::Heap$LT$_$GT$::alloc::hf82e9a7b74c4e562>:
; buddy_system_allocator::Heap$LT$_$GT$::alloc::hf82e9a7b74c4e562():
; /Users/lewis/.cargo/registry/src/rsproxy.cn-0dccff568467c15b/buddy_system_allocator-0.11.0/src/lib.rs:115
802023fa: 7125         	addi	sp, sp, -0x1a0
802023fc: ef06         	sd	ra, 0x198(sp)
802023fe: f92a         	sd	a0, 0xb0(sp)
80202400: f1ae         	sd	a1, 0xe0(sp)
80202402: f5b2         	sd	a2, 0xe8(sp)
80202404: eaaa         	sd	a0, 0x150(sp)
80202406: 1188         	addi	a0, sp, 0xe0
80202408: fd2a         	sd	a0, 0xb8(sp)
; /Users/lewis/.cargo/registry/src/rsproxy.cn-0dccff568467c15b/buddy_system_allocator-0.11.0/src/lib.rs:117
8020240a: 00001097     	auipc	ra, 0x1
8020240e: d80080e7     	jalr	-0x280(ra) <core::alloc::layout::Layout::size::hcbc5babfd95f053f>
80202412: 00001097     	auipc	ra, 0x1
80202416: ec4080e7     	jalr	-0x13c(ra) <core::num::_$LT$impl$u20$usize$GT$::next_power_of_two::hb936a42f8f02e7b9>
8020241a: 85aa         	mv	a1, a0
8020241c: 756a         	ld	a0, 0xb8(sp)
8020241e: e1ae         	sd	a1, 0xc0(sp)
; /Users/lewis/.cargo/registry/src/rsproxy.cn-0dccff568467c15b/buddy_system_allocator-0.11.0/src/lib.rs:118
80202420: 00001097     	auipc	ra, 0x1
80202424: d74080e7     	jalr	-0x28c(ra) <core::alloc::layout::Layout::align::h66695ef8a40546bc>
80202428: 45a1         	li	a1, 0x8
8020242a: 00000097     	auipc	ra, 0x0
8020242e: c44080e7     	jalr	-0x3bc(ra) <core::cmp::max::h1761d31973be069b>
80202432: 85aa         	mv	a1, a0
80202434: 650e         	ld	a0, 0xc0(sp)
; /Users/lewis/.cargo/registry/src/rsproxy.cn-0dccff568467c15b/buddy_system_allocator-0.11.0/src/lib.rs:116
80202436: 00000097     	auipc	ra, 0x0
8020243a: c38080e7     	jalr	-0x3c8(ra) <core::cmp::max::h1761d31973be069b>
8020243e: 85aa         	mv	a1, a0
80202440: e5ae         	sd	a1, 0xc8(sp)
80202442: eeaa         	sd	a0, 0x158(sp)
80202444: e72a         	sd	a0, 0x188(sp)
80202446: 4581         	li	a1, 0x0
; /Users/lewis/.rustup/toolchains/stable-aarch64-apple-darwin/lib/rustlib/src/rust/library/core/src/num/uint_macros.rs:162
80202448: 8d89         	sub	a1, a1, a0
8020244a: 8de9         	and	a1, a1, a0

000000008020244c <.Lpcrel_hi17>:
; .Lpcrel_hi17():
; /Users/lewis/.rustup/toolchains/stable-aarch64-apple-darwin/lib/rustlib/src/rust/library/core/src/num/uint_macros.rs:162
8020244c: 00004617     	auipc	a2, 0x4
80202450: 01c60613     	addi	a2, a2, 0x1c
80202454: 6210         	ld	a2, 0x0(a2)
80202456: 02c585b3     	mul	a1, a1, a2
8020245a: 03a5d613     	srli	a2, a1, 0x3a

000000008020245e <.Lpcrel_hi18>:
; .Lpcrel_hi18():
; /Users/lewis/.rustup/toolchains/stable-aarch64-apple-darwin/lib/rustlib/src/rust/library/core/src/num/uint_macros.rs:162
8020245e: 00005597     	auipc	a1, 0x5
80202462: 8ef58593     	addi	a1, a1, -0x711
80202466: 95b2         	add	a1, a1, a2
80202468: 0005c583     	lbu	a1, 0x0(a1)
8020246c: 04000613     	li	a2, 0x40
80202470: e9b2         	sd	a2, 0xd0(sp)
80202472: edae         	sd	a1, 0xd8(sp)
80202474: e119         	bnez	a0, 0x8020247a <.Lpcrel_hi18+0x1c>
80202476: 654e         	ld	a0, 0xd0(sp)
80202478: edaa         	sd	a0, 0xd8(sp)
8020247a: 656e         	ld	a0, 0xd8(sp)
; /Users/lewis/.rustup/toolchains/stable-aarch64-apple-darwin/lib/rustlib/src/rust/library/core/src/num/uint_macros.rs:162
8020247c: 18a12a23     	sw	a0, 0x194(sp)
80202480: 19416503     	lwu	a0, 0x194(sp)
80202484: f52a         	sd	a0, 0xa8(sp)
; /Users/lewis/.cargo/registry/src/rsproxy.cn-0dccff568467c15b/buddy_system_allocator-0.11.0/src/lib.rs:120
80202486: f2aa         	sd	a0, 0x160(sp)
80202488: 02000593     	li	a1, 0x20
; /Users/lewis/.cargo/registry/src/rsproxy.cn-0dccff568467c15b/buddy_system_allocator-0.11.0/src/lib.rs:121
8020248c: fffff097     	auipc	ra, 0xfffff
80202490: dfc080e7     	jalr	-0x204(ra) <free_mem_start+0xff5f8288>
80202494: fdaa         	sd	a0, 0xf8(sp)
80202496: e22e         	sd	a1, 0x100(sp)
80202498: a009         	j	0x8020249a <.Lpcrel_hi18+0x3c>
8020249a: 19a8         	addi	a0, sp, 0xf8
; /Users/lewis/.cargo/registry/src/rsproxy.cn-0dccff568467c15b/buddy_system_allocator-0.11.0/src/lib.rs:121
8020249c: fffff097     	auipc	ra, 0xfffff
802024a0: d60080e7     	jalr	-0x2a0(ra) <free_mem_start+0xff5f81fc>
802024a4: e62a         	sd	a0, 0x108(sp)
802024a6: ea2e         	sd	a1, 0x110(sp)
802024a8: 6532         	ld	a0, 0x108(sp)
802024aa: e509         	bnez	a0, 0x802024b4 <.Lpcrel_hi18+0x56>
802024ac: a009         	j	0x802024ae <.Lpcrel_hi18+0x50>
802024ae: 4501         	li	a0, 0x0
; /Users/lewis/.cargo/registry/src/rsproxy.cn-0dccff568467c15b/buddy_system_allocator-0.11.0/src/lib.rs:152
802024b0: f9aa         	sd	a0, 0xf0(sp)
; /Users/lewis/.cargo/registry/src/rsproxy.cn-0dccff568467c15b/buddy_system_allocator-0.11.0/src/lib.rs:153
802024b2: a819         	j	0x802024c8 <.Lpcrel_hi18+0x6a>
; /Users/lewis/.cargo/registry/src/rsproxy.cn-0dccff568467c15b/buddy_system_allocator-0.11.0/src/lib.rs:121
802024b4: 6552         	ld	a0, 0x110(sp)
802024b6: ed2a         	sd	a0, 0x98(sp)
802024b8: f6aa         	sd	a0, 0x168(sp)
802024ba: 02000593     	li	a1, 0x20
802024be: 862a         	mv	a2, a0
802024c0: f132         	sd	a2, 0xa0(sp)
; /Users/lewis/.cargo/registry/src/rsproxy.cn-0dccff568467c15b/buddy_system_allocator-0.11.0/src/lib.rs:123
802024c2: 00b56763     	bltu	a0, a1, 0x802024d0 <.Lpcrel_hi18+0x72>
802024c6: a00d         	j	0x802024e8 <.Lpcrel_hi18+0x8a>
; /Users/lewis/.cargo/registry/src/rsproxy.cn-0dccff568467c15b/buddy_system_allocator-0.11.0/src/lib.rs:153
802024c8: 754e         	ld	a0, 0xf0(sp)
802024ca: 60fa         	ld	ra, 0x198(sp)
802024cc: 611d         	addi	sp, sp, 0x1a0
802024ce: 8082         	ret
802024d0: 65ea         	ld	a1, 0x98(sp)
802024d2: 754a         	ld	a0, 0xb0(sp)
; /Users/lewis/.cargo/registry/src/rsproxy.cn-0dccff568467c15b/buddy_system_allocator-0.11.0/src/lib.rs:123
802024d4: 058e         	slli	a1, a1, 0x3
802024d6: 952e         	add	a0, a0, a1
802024d8: 00002097     	auipc	ra, 0x2
802024dc: 944080e7     	jalr	-0x6bc(ra) <buddy_system_allocator::linked_list::LinkedList::is_empty::hb572f91918e6919d>
802024e0: 65ea         	ld	a1, 0x98(sp)
802024e2: e92e         	sd	a1, 0x90(sp)
802024e4: f95d         	bnez	a0, 0x8020249a <.Lpcrel_hi18+0x3c>
802024e6: a821         	j	0x802024fe <.Lpcrel_hi19+0x14>
802024e8: 750a         	ld	a0, 0xa0(sp)

00000000802024ea <.Lpcrel_hi19>:
; .Lpcrel_hi19():
; /Users/lewis/.cargo/registry/src/rsproxy.cn-0dccff568467c15b/buddy_system_allocator-0.11.0/src/lib.rs:123
802024ea: 00005597     	auipc	a1, 0x5
802024ee: abe58613     	addi	a2, a1, -0x542
802024f2: 02000593     	li	a1, 0x20
802024f6: 00002097     	auipc	ra, 0x2
802024fa: eea080e7     	jalr	-0x116(ra) <core::panicking::panic_bounds_check::h8cafb9a5881e4545>
802024fe: 752a         	ld	a0, 0xa8(sp)
80202500: 65ca         	ld	a1, 0x90(sp)
80202502: e12e         	sd	a1, 0x80(sp)
; /Users/lewis/.cargo/registry/src/rsproxy.cn-0dccff568467c15b/buddy_system_allocator-0.11.0/src/lib.rs:125
80202504: 0505         	addi	a0, a0, 0x1
80202506: e52a         	sd	a0, 0x88(sp)
80202508: c519         	beqz	a0, 0x80202516 <.Lpcrel_hi20>
8020250a: a009         	j	0x8020250c <.Lpcrel_hi19+0x22>
8020250c: 650a         	ld	a0, 0x80(sp)
; /Users/lewis/.cargo/registry/src/rsproxy.cn-0dccff568467c15b/buddy_system_allocator-0.11.0/src/lib.rs:125
8020250e: 0505         	addi	a0, a0, 0x1
80202510: fcaa         	sd	a0, 0x78(sp)
80202512: c51d         	beqz	a0, 0x80202540 <.Lpcrel_hi21>
80202514: a809         	j	0x80202526 <.Lpcrel_hi20+0x10>

0000000080202516 <.Lpcrel_hi20>:
; .Lpcrel_hi20():
; /Users/lewis/.cargo/registry/src/rsproxy.cn-0dccff568467c15b/buddy_system_allocator-0.11.0/src/lib.rs:125
80202516: 00005517     	auipc	a0, 0x5
8020251a: aaa50513     	addi	a0, a0, -0x556
8020251e: 00003097     	auipc	ra, 0x3
80202522: 914080e7     	jalr	-0x6ec(ra) <core::panicking::panic_const::panic_const_add_overflow::h1eeea1441bfc0f05>
80202526: 75e6         	ld	a1, 0x78(sp)
80202528: 652a         	ld	a0, 0x88(sp)
; /Users/lewis/.cargo/registry/src/rsproxy.cn-0dccff568467c15b/buddy_system_allocator-0.11.0/src/lib.rs:125
8020252a: fffff097     	auipc	ra, 0xfffff
8020252e: cfa080e7     	jalr	-0x306(ra) <free_mem_start+0xff5f8224>
80202532: 00000097     	auipc	ra, 0x0
80202536: 988080e7     	jalr	-0x678(ra) <_$LT$I$u20$as$u20$core..iter..traits..collect..IntoIterator$GT$::into_iter::h94adfbebe79c2d11>
8020253a: ee2a         	sd	a0, 0x118(sp)
8020253c: f22e         	sd	a1, 0x120(sp)
8020253e: a809         	j	0x80202550 <.Lpcrel_hi21+0x10>

0000000080202540 <.Lpcrel_hi21>:
; .Lpcrel_hi21():
; /Users/lewis/.cargo/registry/src/rsproxy.cn-0dccff568467c15b/buddy_system_allocator-0.11.0/src/lib.rs:125
80202540: 00005517     	auipc	a0, 0x5
80202544: a9850513     	addi	a0, a0, -0x568
80202548: 00003097     	auipc	ra, 0x3
8020254c: 8ea080e7     	jalr	-0x716(ra) <core::panicking::panic_const::panic_const_add_overflow::h1eeea1441bfc0f05>
80202550: 0a28         	addi	a0, sp, 0x118
; /Users/lewis/.cargo/registry/src/rsproxy.cn-0dccff568467c15b/buddy_system_allocator-0.11.0/src/lib.rs:125
80202552: 00000097     	auipc	ra, 0x0
80202556: 972080e7     	jalr	-0x68e(ra) <_$LT$core..iter..adapters..rev..Rev$LT$I$GT$$u20$as$u20$core..iter..traits..iterator..Iterator$GT$::next::hb5db5816f87e7ae9>
8020255a: f62a         	sd	a0, 0x128(sp)
8020255c: fa2e         	sd	a1, 0x130(sp)
8020255e: 7532         	ld	a0, 0x128(sp)
80202560: e901         	bnez	a0, 0x80202570 <.Lpcrel_hi21+0x30>
80202562: a009         	j	0x80202564 <.Lpcrel_hi21+0x24>
80202564: 752a         	ld	a0, 0xa8(sp)
80202566: 02000593     	li	a1, 0x20
; /Users/lewis/.cargo/registry/src/rsproxy.cn-0dccff568467c15b/buddy_system_allocator-0.11.0/src/lib.rs:138
8020256a: 00b56d63     	bltu	a0, a1, 0x80202584 <.Lpcrel_hi21+0x44>
8020256e: a889         	j	0x802025c0 <.Lpcrel_hi23+0x24>
; /Users/lewis/.cargo/registry/src/rsproxy.cn-0dccff568467c15b/buddy_system_allocator-0.11.0/src/lib.rs:125
80202570: 7552         	ld	a0, 0x130(sp)
80202572: f4aa         	sd	a0, 0x68(sp)
80202574: feaa         	sd	a0, 0x178(sp)
80202576: 02000593     	li	a1, 0x20
8020257a: 862a         	mv	a2, a0
8020257c: f8b2         	sd	a2, 0x70(sp)
; /Users/lewis/.cargo/registry/src/rsproxy.cn-0dccff568467c15b/buddy_system_allocator-0.11.0/src/lib.rs:126
8020257e: 0cb56263     	bltu	a0, a1, 0x80202642 <.Lpcrel_hi26+0x10>
80202582: a8f9         	j	0x80202660 <.Lpcrel_hi26+0x2e>
80202584: 754a         	ld	a0, 0xb0(sp)
80202586: 75aa         	ld	a1, 0xa8(sp)
; /Users/lewis/.cargo/registry/src/rsproxy.cn-0dccff568467c15b/buddy_system_allocator-0.11.0/src/lib.rs:138
80202588: 058e         	slli	a1, a1, 0x3
8020258a: 952e         	add	a0, a0, a1
8020258c: 00002097     	auipc	ra, 0x2
80202590: 8b6080e7     	jalr	-0x74a(ra) <buddy_system_allocator::linked_list::LinkedList::pop::h07db9aab40f7699a>

0000000080202594 <.Lpcrel_hi22>:
; .Lpcrel_hi22():
; /Users/lewis/.cargo/registry/src/rsproxy.cn-0dccff568467c15b/buddy_system_allocator-0.11.0/src/lib.rs:138
80202594: 00005617     	auipc	a2, 0x5
80202598: a7460613     	addi	a2, a2, -0x58c

000000008020259c <.Lpcrel_hi23>:
; .Lpcrel_hi23():
; /Users/lewis/.cargo/registry/src/rsproxy.cn-0dccff568467c15b/buddy_system_allocator-0.11.0/src/lib.rs:138
8020259c: 00005697     	auipc	a3, 0x5
802025a0: a9468713     	addi	a4, a3, -0x56c
802025a4: 02800693     	li	a3, 0x28
802025a8: fffff097     	auipc	ra, 0xfffff
802025ac: 040080e7     	jalr	0x40(ra) <free_mem_start+0xff5f85e8>
; /Users/lewis/.cargo/registry/src/rsproxy.cn-0dccff568467c15b/buddy_system_allocator-0.11.0/src/lib.rs:137
802025b0: fffff097     	auipc	ra, 0xfffff
802025b4: ebc080e7     	jalr	-0x144(ra) <free_mem_start+0xff5f846c>
802025b8: e6aa         	sd	a0, 0x148(sp)
; /Users/lewis/.cargo/registry/src/rsproxy.cn-0dccff568467c15b/buddy_system_allocator-0.11.0/src/lib.rs:143
802025ba: 6536         	ld	a0, 0x148(sp)
802025bc: ed09         	bnez	a0, 0x802025d6 <.Lpcrel_hi24+0x14>
802025be: a825         	j	0x802025f6 <.Lpcrel_hi24+0x34>
802025c0: 752a         	ld	a0, 0xa8(sp)

00000000802025c2 <.Lpcrel_hi24>:
; .Lpcrel_hi24():
; /Users/lewis/.cargo/registry/src/rsproxy.cn-0dccff568467c15b/buddy_system_allocator-0.11.0/src/lib.rs:138
802025c2: 00005597     	auipc	a1, 0x5
802025c6: a2e58613     	addi	a2, a1, -0x5d2
802025ca: 02000593     	li	a1, 0x20
802025ce: 00002097     	auipc	ra, 0x2
802025d2: e12080e7     	jalr	-0x1ee(ra) <core::panicking::panic_bounds_check::h8cafb9a5881e4545>
; /Users/lewis/.cargo/registry/src/rsproxy.cn-0dccff568467c15b/buddy_system_allocator-0.11.0/src/lib.rs:143
802025d6: 6536         	ld	a0, 0x148(sp)
802025d8: ecaa         	sd	a0, 0x58(sp)
802025da: faaa         	sd	a0, 0x170(sp)
802025dc: 1188         	addi	a0, sp, 0xe0
; /Users/lewis/.cargo/registry/src/rsproxy.cn-0dccff568467c15b/buddy_system_allocator-0.11.0/src/lib.rs:144
802025de: 00001097     	auipc	ra, 0x1
802025e2: bac080e7     	jalr	-0x454(ra) <core::alloc::layout::Layout::size::hcbc5babfd95f053f>
802025e6: 75ca         	ld	a1, 0xb0(sp)
802025e8: 1005b583     	ld	a1, 0x100(a1)
802025ec: 952e         	add	a0, a0, a1
802025ee: f0aa         	sd	a0, 0x60(sp)
802025f0: 02b56263     	bltu	a0, a1, 0x80202614 <.Lpcrel_hi25>
802025f4: a021         	j	0x802025fc <.Lpcrel_hi24+0x3a>
802025f6: 4501         	li	a0, 0x0
; /Users/lewis/.cargo/registry/src/rsproxy.cn-0dccff568467c15b/buddy_system_allocator-0.11.0/src/lib.rs:148
802025f8: f9aa         	sd	a0, 0xf0(sp)
802025fa: b5f9         	j	0x802024c8 <.Lpcrel_hi18+0x6a>
802025fc: 652e         	ld	a0, 0xc8(sp)
802025fe: 75ca         	ld	a1, 0xb0(sp)
80202600: 7606         	ld	a2, 0x60(sp)
; /Users/lewis/.cargo/registry/src/rsproxy.cn-0dccff568467c15b/buddy_system_allocator-0.11.0/src/lib.rs:144
80202602: 10c5b023     	sd	a2, 0x100(a1)
; /Users/lewis/.cargo/registry/src/rsproxy.cn-0dccff568467c15b/buddy_system_allocator-0.11.0/src/lib.rs:145
80202606: 1085b583     	ld	a1, 0x108(a1)
8020260a: 952e         	add	a0, a0, a1
8020260c: e8aa         	sd	a0, 0x50(sp)
8020260e: 02b56263     	bltu	a0, a1, 0x80202632 <.Lpcrel_hi26>
80202612: a809         	j	0x80202624 <.Lpcrel_hi25+0x10>

0000000080202614 <.Lpcrel_hi25>:
; .Lpcrel_hi25():
; /Users/lewis/.cargo/registry/src/rsproxy.cn-0dccff568467c15b/buddy_system_allocator-0.11.0/src/lib.rs:144
80202614: 00005517     	auipc	a0, 0x5
80202618: a3450513     	addi	a0, a0, -0x5cc
8020261c: 00003097     	auipc	ra, 0x3
80202620: 816080e7     	jalr	-0x7ea(ra) <core::panicking::panic_const::panic_const_add_overflow::h1eeea1441bfc0f05>
80202624: 6566         	ld	a0, 0x58(sp)
80202626: 65c6         	ld	a1, 0x50(sp)
80202628: 764a         	ld	a2, 0xb0(sp)
; /Users/lewis/.cargo/registry/src/rsproxy.cn-0dccff568467c15b/buddy_system_allocator-0.11.0/src/lib.rs:145
8020262a: 10b63423     	sd	a1, 0x108(a2)
; /Users/lewis/.cargo/registry/src/rsproxy.cn-0dccff568467c15b/buddy_system_allocator-0.11.0/src/lib.rs:146
8020262e: f9aa         	sd	a0, 0xf0(sp)
80202630: bd61         	j	0x802024c8 <.Lpcrel_hi18+0x6a>

0000000080202632 <.Lpcrel_hi26>:
; .Lpcrel_hi26():
; /Users/lewis/.cargo/registry/src/rsproxy.cn-0dccff568467c15b/buddy_system_allocator-0.11.0/src/lib.rs:145
80202632: 00005517     	auipc	a0, 0x5
80202636: a2e50513     	addi	a0, a0, -0x5d2
8020263a: 00002097     	auipc	ra, 0x2
8020263e: 7f8080e7     	jalr	0x7f8(ra) <core::panicking::panic_const::panic_const_add_overflow::h1eeea1441bfc0f05>
80202642: 754a         	ld	a0, 0xb0(sp)
80202644: 75a6         	ld	a1, 0x68(sp)
; /Users/lewis/.cargo/registry/src/rsproxy.cn-0dccff568467c15b/buddy_system_allocator-0.11.0/src/lib.rs:126
80202646: 058e         	slli	a1, a1, 0x3
80202648: 952e         	add	a0, a0, a1
8020264a: 00001097     	auipc	ra, 0x1
8020264e: 7f8080e7     	jalr	0x7f8(ra) <buddy_system_allocator::linked_list::LinkedList::pop::h07db9aab40f7699a>
80202652: fe2a         	sd	a0, 0x138(sp)
80202654: e2ae         	sd	a1, 0x140(sp)
80202656: 7572         	ld	a0, 0x138(sp)
80202658: 4585         	li	a1, 0x1
8020265a: 00b50e63     	beq	a0, a1, 0x80202676 <.Lpcrel_hi27+0x14>
8020265e: a02d         	j	0x80202688 <.Lpcrel_hi27+0x26>
80202660: 7546         	ld	a0, 0x70(sp)

0000000080202662 <.Lpcrel_hi27>:
; .Lpcrel_hi27():
; /Users/lewis/.cargo/registry/src/rsproxy.cn-0dccff568467c15b/buddy_system_allocator-0.11.0/src/lib.rs:126
80202662: 00005597     	auipc	a1, 0x5
80202666: a1658613     	addi	a2, a1, -0x5ea
8020266a: 02000593     	li	a1, 0x20
8020266e: 00002097     	auipc	ra, 0x2
80202672: d72080e7     	jalr	-0x28e(ra) <core::panicking::panic_bounds_check::h8cafb9a5881e4545>
80202676: 7526         	ld	a0, 0x68(sp)
; /Users/lewis/.cargo/registry/src/rsproxy.cn-0dccff568467c15b/buddy_system_allocator-0.11.0/src/lib.rs:126
80202678: 6596         	ld	a1, 0x140(sp)
8020267a: e0ae         	sd	a1, 0x40(sp)
8020267c: e32e         	sd	a1, 0x180(sp)
; /Users/lewis/.cargo/registry/src/rsproxy.cn-0dccff568467c15b/buddy_system_allocator-0.11.0/src/lib.rs:128
8020267e: fff50593     	addi	a1, a0, -0x1
80202682: e4ae         	sd	a1, 0x48(sp)
80202684: cd09         	beqz	a0, 0x8020269e <.Lpcrel_hi28>
80202686: a021         	j	0x8020268e <.Lpcrel_hi27+0x2c>
80202688: 4501         	li	a0, 0x0
; /Users/lewis/.cargo/registry/src/rsproxy.cn-0dccff568467c15b/buddy_system_allocator-0.11.0/src/lib.rs:133
8020268a: f9aa         	sd	a0, 0xf0(sp)
8020268c: bd35         	j	0x802024c8 <.Lpcrel_hi18+0x6a>
8020268e: 6526         	ld	a0, 0x48(sp)
80202690: 02000593     	li	a1, 0x20
80202694: 862a         	mv	a2, a0
80202696: fc32         	sd	a2, 0x38(sp)
; /Users/lewis/.cargo/registry/src/rsproxy.cn-0dccff568467c15b/buddy_system_allocator-0.11.0/src/lib.rs:128
80202698: 00b56b63     	bltu	a0, a1, 0x802026ae <.Lpcrel_hi28+0x10>
8020269c: a035         	j	0x802026c8 <.Lpcrel_hi28+0x2a>

000000008020269e <.Lpcrel_hi28>:
; .Lpcrel_hi28():
; /Users/lewis/.cargo/registry/src/rsproxy.cn-0dccff568467c15b/buddy_system_allocator-0.11.0/src/lib.rs:128
8020269e: 00005517     	auipc	a0, 0x5
802026a2: 9f250513     	addi	a0, a0, -0x60e
802026a6: 00002097     	auipc	ra, 0x2
802026aa: 7c2080e7     	jalr	0x7c2(ra) <core::panicking::panic_const::panic_const_sub_overflow::hfc9e186cc78b3e6c>
802026ae: 7526         	ld	a0, 0x68(sp)
802026b0: 6586         	ld	a1, 0x40(sp)
802026b2: 764a         	ld	a2, 0xb0(sp)
802026b4: 66a6         	ld	a3, 0x48(sp)
; /Users/lewis/.cargo/registry/src/rsproxy.cn-0dccff568467c15b/buddy_system_allocator-0.11.0/src/lib.rs:128
802026b6: 068e         	slli	a3, a3, 0x3
802026b8: 9636         	add	a2, a2, a3
802026ba: f032         	sd	a2, 0x20(sp)
802026bc: f42e         	sd	a1, 0x28(sp)
; /Users/lewis/.cargo/registry/src/rsproxy.cn-0dccff568467c15b/buddy_system_allocator-0.11.0/src/lib.rs:129
802026be: fff50593     	addi	a1, a0, -0x1
802026c2: f82e         	sd	a1, 0x30(sp)
802026c4: c11d         	beqz	a0, 0x802026ea <.Lpcrel_hi30>
802026c6: a821         	j	0x802026de <.Lpcrel_hi29+0x14>
802026c8: 7562         	ld	a0, 0x38(sp)

00000000802026ca <.Lpcrel_hi29>:
; .Lpcrel_hi29():
; /Users/lewis/.cargo/registry/src/rsproxy.cn-0dccff568467c15b/buddy_system_allocator-0.11.0/src/lib.rs:128
802026ca: 00005597     	auipc	a1, 0x5
802026ce: 9de58613     	addi	a2, a1, -0x622
802026d2: 02000593     	li	a1, 0x20
802026d6: 00002097     	auipc	ra, 0x2
802026da: d0a080e7     	jalr	-0x2f6(ra) <core::panicking::panic_bounds_check::h8cafb9a5881e4545>
802026de: 7542         	ld	a0, 0x30(sp)
802026e0: 04000593     	li	a1, 0x40
; /Users/lewis/.cargo/registry/src/rsproxy.cn-0dccff568467c15b/buddy_system_allocator-0.11.0/src/lib.rs:129
802026e4: 00b56b63     	bltu	a0, a1, 0x802026fa <.Lpcrel_hi30+0x10>
802026e8: a01d         	j	0x8020270e <.Lpcrel_hi31>

00000000802026ea <.Lpcrel_hi30>:
; .Lpcrel_hi30():
; /Users/lewis/.cargo/registry/src/rsproxy.cn-0dccff568467c15b/buddy_system_allocator-0.11.0/src/lib.rs:129
802026ea: 00005517     	auipc	a0, 0x5
802026ee: 9d650513     	addi	a0, a0, -0x62a
802026f2: 00002097     	auipc	ra, 0x2
802026f6: 776080e7     	jalr	0x776(ra) <core::panicking::panic_const::panic_const_sub_overflow::hfc9e186cc78b3e6c>
802026fa: 75a2         	ld	a1, 0x28(sp)
802026fc: 7642         	ld	a2, 0x30(sp)
802026fe: 4505         	li	a0, 0x1
; /Users/lewis/.cargo/registry/src/rsproxy.cn-0dccff568467c15b/buddy_system_allocator-0.11.0/src/lib.rs:129
80202700: 00c51533     	sll	a0, a0, a2
80202704: 952e         	add	a0, a0, a1
80202706: ec2a         	sd	a0, 0x18(sp)
80202708: 02b56763     	bltu	a0, a1, 0x80202736 <.Lpcrel_hi32>
8020270c: a809         	j	0x8020271e <.Lpcrel_hi31+0x10>

000000008020270e <.Lpcrel_hi31>:
; .Lpcrel_hi31():
; /Users/lewis/.cargo/registry/src/rsproxy.cn-0dccff568467c15b/buddy_system_allocator-0.11.0/src/lib.rs:129
8020270e: 00005517     	auipc	a0, 0x5
80202712: 9ca50513     	addi	a0, a0, -0x636
80202716: 00002097     	auipc	ra, 0x2
8020271a: 7be080e7     	jalr	0x7be(ra) <core::panicking::panic_const::panic_const_shl_overflow::h2aedb2ea5169edc7>
8020271e: 65e2         	ld	a1, 0x18(sp)
80202720: 7502         	ld	a0, 0x20(sp)
; /Users/lewis/.cargo/registry/src/rsproxy.cn-0dccff568467c15b/buddy_system_allocator-0.11.0/src/lib.rs:128
80202722: 00001097     	auipc	ra, 0x1
80202726: 710080e7     	jalr	0x710(ra) <buddy_system_allocator::linked_list::LinkedList::push::hc7fcdf3c1c5c954a>
8020272a: 7526         	ld	a0, 0x68(sp)
; /Users/lewis/.cargo/registry/src/rsproxy.cn-0dccff568467c15b/buddy_system_allocator-0.11.0/src/lib.rs:130
8020272c: fff50593     	addi	a1, a0, -0x1
80202730: e82e         	sd	a1, 0x10(sp)
80202732: c115         	beqz	a0, 0x80202756 <.Lpcrel_hi33>
80202734: a809         	j	0x80202746 <.Lpcrel_hi32+0x10>

0000000080202736 <.Lpcrel_hi32>:
; .Lpcrel_hi32():
; /Users/lewis/.cargo/registry/src/rsproxy.cn-0dccff568467c15b/buddy_system_allocator-0.11.0/src/lib.rs:129
80202736: 00005517     	auipc	a0, 0x5
8020273a: 9ba50513     	addi	a0, a0, -0x646
8020273e: 00002097     	auipc	ra, 0x2
80202742: 6f4080e7     	jalr	0x6f4(ra) <core::panicking::panic_const::panic_const_add_overflow::h1eeea1441bfc0f05>
80202746: 6542         	ld	a0, 0x10(sp)
80202748: 02000593     	li	a1, 0x20
8020274c: 862a         	mv	a2, a0
8020274e: e432         	sd	a2, 0x8(sp)
; /Users/lewis/.cargo/registry/src/rsproxy.cn-0dccff568467c15b/buddy_system_allocator-0.11.0/src/lib.rs:130
80202750: 00b56b63     	bltu	a0, a1, 0x80202766 <.Lpcrel_hi33+0x10>
80202754: a01d         	j	0x8020277a <.Lpcrel_hi33+0x24>

0000000080202756 <.Lpcrel_hi33>:
; .Lpcrel_hi33():
; /Users/lewis/.cargo/registry/src/rsproxy.cn-0dccff568467c15b/buddy_system_allocator-0.11.0/src/lib.rs:130
80202756: 00005517     	auipc	a0, 0x5
8020275a: 9b250513     	addi	a0, a0, -0x64e
8020275e: 00002097     	auipc	ra, 0x2
80202762: 70a080e7     	jalr	0x70a(ra) <core::panicking::panic_const::panic_const_sub_overflow::hfc9e186cc78b3e6c>
80202766: 6586         	ld	a1, 0x40(sp)
80202768: 754a         	ld	a0, 0xb0(sp)
8020276a: 6642         	ld	a2, 0x10(sp)
; /Users/lewis/.cargo/registry/src/rsproxy.cn-0dccff568467c15b/buddy_system_allocator-0.11.0/src/lib.rs:130
8020276c: 060e         	slli	a2, a2, 0x3
8020276e: 9532         	add	a0, a0, a2
80202770: 00001097     	auipc	ra, 0x1
80202774: 6c2080e7     	jalr	0x6c2(ra) <buddy_system_allocator::linked_list::LinkedList::push::hc7fcdf3c1c5c954a>
80202778: bbe1         	j	0x80202550 <.Lpcrel_hi21+0x10>
8020277a: 6522         	ld	a0, 0x8(sp)

000000008020277c <.Lpcrel_hi34>:
; .Lpcrel_hi34():
; /Users/lewis/.cargo/registry/src/rsproxy.cn-0dccff568467c15b/buddy_system_allocator-0.11.0/src/lib.rs:130
8020277c: 00005597     	auipc	a1, 0x5
80202780: 9a458613     	addi	a2, a1, -0x65c
80202784: 02000593     	li	a1, 0x20
80202788: 00002097     	auipc	ra, 0x2
8020278c: c58080e7     	jalr	-0x3a8(ra) <core::panicking::panic_bounds_check::h8cafb9a5881e4545>

0000000080202790 <buddy_system_allocator::Heap$LT$_$GT$::dealloc::h47dd9aa79559599a>:
; buddy_system_allocator::Heap$LT$_$GT$::dealloc::h47dd9aa79559599a():
; /Users/lewis/.cargo/registry/src/rsproxy.cn-0dccff568467c15b/buddy_system_allocator-0.11.0/src/lib.rs:156
80202790: 714d         	addi	sp, sp, -0x150
80202792: e686         	sd	ra, 0x148(sp)
80202794: f4ae         	sd	a1, 0x68(sp)
80202796: f8aa         	sd	a0, 0x70(sp)
80202798: f132         	sd	a2, 0xa0(sp)
8020279a: f536         	sd	a3, 0xa8(sp)
8020279c: e22a         	sd	a0, 0x100(sp)
8020279e: e62e         	sd	a1, 0x108(sp)
802027a0: 1108         	addi	a0, sp, 0xa0
802027a2: fcaa         	sd	a0, 0x78(sp)
; /Users/lewis/.cargo/registry/src/rsproxy.cn-0dccff568467c15b/buddy_system_allocator-0.11.0/src/lib.rs:158
802027a4: 00001097     	auipc	ra, 0x1
802027a8: 9e6080e7     	jalr	-0x61a(ra) <core::alloc::layout::Layout::size::hcbc5babfd95f053f>
802027ac: 00001097     	auipc	ra, 0x1
802027b0: b2a080e7     	jalr	-0x4d6(ra) <core::num::_$LT$impl$u20$usize$GT$::next_power_of_two::hb936a42f8f02e7b9>
802027b4: 85aa         	mv	a1, a0
802027b6: 7566         	ld	a0, 0x78(sp)
802027b8: e12e         	sd	a1, 0x80(sp)
; /Users/lewis/.cargo/registry/src/rsproxy.cn-0dccff568467c15b/buddy_system_allocator-0.11.0/src/lib.rs:159
802027ba: 00001097     	auipc	ra, 0x1
802027be: 9da080e7     	jalr	-0x626(ra) <core::alloc::layout::Layout::align::h66695ef8a40546bc>
802027c2: 45a1         	li	a1, 0x8
802027c4: 00000097     	auipc	ra, 0x0
802027c8: 8aa080e7     	jalr	-0x756(ra) <core::cmp::max::h1761d31973be069b>
802027cc: 85aa         	mv	a1, a0
802027ce: 650a         	ld	a0, 0x80(sp)
; /Users/lewis/.cargo/registry/src/rsproxy.cn-0dccff568467c15b/buddy_system_allocator-0.11.0/src/lib.rs:157
802027d0: 00000097     	auipc	ra, 0x0
802027d4: 89e080e7     	jalr	-0x762(ra) <core::cmp::max::h1761d31973be069b>
802027d8: 85aa         	mv	a1, a0
802027da: e52e         	sd	a1, 0x88(sp)
802027dc: ea2a         	sd	a0, 0x110(sp)
802027de: f62a         	sd	a0, 0x128(sp)
802027e0: 4581         	li	a1, 0x0
; /Users/lewis/.rustup/toolchains/stable-aarch64-apple-darwin/lib/rustlib/src/rust/library/core/src/num/uint_macros.rs:162
802027e2: 8d89         	sub	a1, a1, a0
802027e4: 8de9         	and	a1, a1, a0

00000000802027e6 <.Lpcrel_hi35>:
; .Lpcrel_hi35():
; /Users/lewis/.rustup/toolchains/stable-aarch64-apple-darwin/lib/rustlib/src/rust/library/core/src/num/uint_macros.rs:162
802027e6: 00004617     	auipc	a2, 0x4
802027ea: c8260613     	addi	a2, a2, -0x37e
802027ee: 6210         	ld	a2, 0x0(a2)
802027f0: 02c585b3     	mul	a1, a1, a2
802027f4: 03a5d613     	srli	a2, a1, 0x3a

00000000802027f8 <.Lpcrel_hi36>:
; .Lpcrel_hi36():
; /Users/lewis/.rustup/toolchains/stable-aarch64-apple-darwin/lib/rustlib/src/rust/library/core/src/num/uint_macros.rs:162
802027f8: 00004597     	auipc	a1, 0x4
802027fc: 59558593     	addi	a1, a1, 0x595
80202800: 95b2         	add	a1, a1, a2
80202802: 0005c583     	lbu	a1, 0x0(a1)
80202806: 04000613     	li	a2, 0x40
8020280a: e932         	sd	a2, 0x90(sp)
8020280c: ed2e         	sd	a1, 0x98(sp)
8020280e: e119         	bnez	a0, 0x80202814 <.Lpcrel_hi36+0x1c>
80202810: 654a         	ld	a0, 0x90(sp)
80202812: ed2a         	sd	a0, 0x98(sp)
80202814: 656a         	ld	a0, 0x98(sp)
; /Users/lewis/.rustup/toolchains/stable-aarch64-apple-darwin/lib/rustlib/src/rust/library/core/src/num/uint_macros.rs:162
80202816: 12a12a23     	sw	a0, 0x134(sp)
8020281a: 13416583     	lwu	a1, 0x134(sp)
8020281e: f0ae         	sd	a1, 0x60(sp)
; /Users/lewis/.cargo/registry/src/rsproxy.cn-0dccff568467c15b/buddy_system_allocator-0.11.0/src/lib.rs:161
80202820: ee2e         	sd	a1, 0x118(sp)
80202822: 457d         	li	a0, 0x1f
; /Users/lewis/.cargo/registry/src/rsproxy.cn-0dccff568467c15b/buddy_system_allocator-0.11.0/src/lib.rs:165
80202824: 02b56363     	bltu	a0, a1, 0x8020284a <.Lpcrel_hi36+0x52>
80202828: a009         	j	0x8020282a <.Lpcrel_hi36+0x32>
8020282a: 7606         	ld	a2, 0x60(sp)
8020282c: 75a6         	ld	a1, 0x68(sp)
8020282e: 7546         	ld	a0, 0x70(sp)
; /Users/lewis/.cargo/registry/src/rsproxy.cn-0dccff568467c15b/buddy_system_allocator-0.11.0/src/lib.rs:165
80202830: 060e         	slli	a2, a2, 0x3
80202832: 9532         	add	a0, a0, a2
80202834: e2ae         	sd	a1, 0x140(sp)
80202836: 00001097     	auipc	ra, 0x1
8020283a: 5fc080e7     	jalr	0x5fc(ra) <buddy_system_allocator::linked_list::LinkedList::push::hc7fcdf3c1c5c954a>
8020283e: 75a6         	ld	a1, 0x68(sp)
80202840: 7506         	ld	a0, 0x60(sp)
80202842: fe2e         	sd	a1, 0x138(sp)
; /Users/lewis/.cargo/registry/src/rsproxy.cn-0dccff568467c15b/buddy_system_allocator-0.11.0/src/lib.rs:168
80202844: f92e         	sd	a1, 0xb0(sp)
; /Users/lewis/.cargo/registry/src/rsproxy.cn-0dccff568467c15b/buddy_system_allocator-0.11.0/src/lib.rs:169
80202846: fd2a         	sd	a0, 0xb8(sp)
; /Users/lewis/.cargo/registry/src/rsproxy.cn-0dccff568467c15b/buddy_system_allocator-0.11.0/src/lib.rs:171
80202848: a821         	j	0x80202860 <.Lpcrel_hi37+0x14>
8020284a: 7506         	ld	a0, 0x60(sp)

000000008020284c <.Lpcrel_hi37>:
; .Lpcrel_hi37():
; /Users/lewis/.cargo/registry/src/rsproxy.cn-0dccff568467c15b/buddy_system_allocator-0.11.0/src/lib.rs:165
8020284c: 00005597     	auipc	a1, 0x5
80202850: 8ec58613     	addi	a2, a1, -0x714
80202854: 02000593     	li	a1, 0x20
80202858: 00002097     	auipc	ra, 0x2
8020285c: b88080e7     	jalr	-0x478(ra) <core::panicking::panic_bounds_check::h8cafb9a5881e4545>
; /Users/lewis/.cargo/registry/src/rsproxy.cn-0dccff568467c15b/buddy_system_allocator-0.11.0/src/lib.rs:171
80202860: 756a         	ld	a0, 0xb8(sp)
80202862: 45fd         	li	a1, 0x1f
80202864: 02b56263     	bltu	a0, a1, 0x80202888 <.Lpcrel_hi37+0x3c>
80202868: a009         	j	0x8020286a <.Lpcrel_hi37+0x1e>
8020286a: 1108         	addi	a0, sp, 0xa0
; /Users/lewis/.cargo/registry/src/rsproxy.cn-0dccff568467c15b/buddy_system_allocator-0.11.0/src/lib.rs:194
8020286c: 00001097     	auipc	ra, 0x1
80202870: 91e080e7     	jalr	-0x6e2(ra) <core::alloc::layout::Layout::size::hcbc5babfd95f053f>
80202874: 85aa         	mv	a1, a0
80202876: 7546         	ld	a0, 0x70(sp)
80202878: 10053503     	ld	a0, 0x100(a0)
8020287c: 40b50633     	sub	a2, a0, a1
80202880: ecb2         	sd	a2, 0x58(sp)
80202882: 0eb56e63     	bltu	a0, a1, 0x8020297e <.Lpcrel_hi40>
80202886: a8f9         	j	0x80202964 <.Lpcrel_hi39+0x72>
; /Users/lewis/.cargo/registry/src/rsproxy.cn-0dccff568467c15b/buddy_system_allocator-0.11.0/src/lib.rs:172
80202888: 754a         	ld	a0, 0xb0(sp)
8020288a: e4aa         	sd	a0, 0x48(sp)
8020288c: 75ea         	ld	a1, 0xb8(sp)
8020288e: e8ae         	sd	a1, 0x50(sp)
80202890: 03f00513     	li	a0, 0x3f
80202894: 02b56763     	bltu	a0, a1, 0x802028c2 <.Lpcrel_hi38>
80202898: a009         	j	0x8020289a <.Lpcrel_hi37+0x4e>
8020289a: 6526         	ld	a0, 0x48(sp)
8020289c: 6646         	ld	a2, 0x50(sp)
8020289e: 4585         	li	a1, 0x1
; /Users/lewis/.cargo/registry/src/rsproxy.cn-0dccff568467c15b/buddy_system_allocator-0.11.0/src/lib.rs:172
802028a0: 00c595b3     	sll	a1, a1, a2
802028a4: 8d2d         	xor	a0, a0, a1
802028a6: f82a         	sd	a0, 0x30(sp)
802028a8: f22a         	sd	a0, 0x120(sp)
802028aa: 4501         	li	a0, 0x0
; /Users/lewis/.cargo/registry/src/rsproxy.cn-0dccff568467c15b/buddy_system_allocator-0.11.0/src/lib.rs:173
802028ac: 0ca103a3     	sb	a0, 0xc7(sp)
; /Users/lewis/.cargo/registry/src/rsproxy.cn-0dccff568467c15b/buddy_system_allocator-0.11.0/src/lib.rs:174
802028b0: 756a         	ld	a0, 0xb8(sp)
802028b2: fc2a         	sd	a0, 0x38(sp)
802028b4: 02000593     	li	a1, 0x20
802028b8: 862a         	mv	a2, a0
802028ba: e0b2         	sd	a2, 0x40(sp)
802028bc: 00b56b63     	bltu	a0, a1, 0x802028d2 <.Lpcrel_hi38+0x10>
802028c0: a805         	j	0x802028f0 <.Lpcrel_hi38+0x2e>

00000000802028c2 <.Lpcrel_hi38>:
; .Lpcrel_hi38():
; /Users/lewis/.cargo/registry/src/rsproxy.cn-0dccff568467c15b/buddy_system_allocator-0.11.0/src/lib.rs:172
802028c2: 00005517     	auipc	a0, 0x5
802028c6: 88e50513     	addi	a0, a0, -0x772
802028ca: 00002097     	auipc	ra, 0x2
802028ce: 60a080e7     	jalr	0x60a(ra) <core::panicking::panic_const::panic_const_shl_overflow::h2aedb2ea5169edc7>
802028d2: 7546         	ld	a0, 0x70(sp)
802028d4: 75e2         	ld	a1, 0x38(sp)
; /Users/lewis/.cargo/registry/src/rsproxy.cn-0dccff568467c15b/buddy_system_allocator-0.11.0/src/lib.rs:174
802028d6: 058e         	slli	a1, a1, 0x3
802028d8: 952e         	add	a0, a0, a1
802028da: 00001097     	auipc	ra, 0x1
802028de: 59e080e7     	jalr	0x59e(ra) <buddy_system_allocator::linked_list::LinkedList::iter_mut::h3a991e759082e3ea>
802028e2: 00000097     	auipc	ra, 0x0
802028e6: 606080e7     	jalr	0x606(ra) <_$LT$I$u20$as$u20$core..iter..traits..collect..IntoIterator$GT$::into_iter::h1de4524852eead5e>
802028ea: e5aa         	sd	a0, 0xc8(sp)
802028ec: e9ae         	sd	a1, 0xd0(sp)
802028ee: a821         	j	0x80202906 <.Lpcrel_hi39+0x14>
802028f0: 6506         	ld	a0, 0x40(sp)

00000000802028f2 <.Lpcrel_hi39>:
; .Lpcrel_hi39():
; /Users/lewis/.cargo/registry/src/rsproxy.cn-0dccff568467c15b/buddy_system_allocator-0.11.0/src/lib.rs:174
802028f2: 00005597     	auipc	a1, 0x5
802028f6: 87658613     	addi	a2, a1, -0x78a
802028fa: 02000593     	li	a1, 0x20
802028fe: 00002097     	auipc	ra, 0x2
80202902: ae2080e7     	jalr	-0x51e(ra) <core::panicking::panic_bounds_check::h8cafb9a5881e4545>
80202906: 09a8         	addi	a0, sp, 0xd8
80202908: 01ac         	addi	a1, sp, 0xc8
; /Users/lewis/.cargo/registry/src/rsproxy.cn-0dccff568467c15b/buddy_system_allocator-0.11.0/src/lib.rs:174
8020290a: 00001097     	auipc	ra, 0x1
8020290e: 596080e7     	jalr	0x596(ra) <_$LT$buddy_system_allocator..linked_list..IterMut$u20$as$u20$core..iter..traits..iterator..Iterator$GT$::next::h01c9fb2ddbf39201>
80202912: 656e         	ld	a0, 0xd8(sp)
80202914: e901         	bnez	a0, 0x80202924 <.Lpcrel_hi39+0x32>
80202916: a009         	j	0x80202918 <.Lpcrel_hi39+0x26>
; /Users/lewis/.cargo/registry/src/rsproxy.cn-0dccff568467c15b/buddy_system_allocator-0.11.0/src/lib.rs:183
80202918: a009         	j	0x8020291a <.Lpcrel_hi39+0x28>
8020291a: 0c714503     	lbu	a0, 0xc7(sp)
8020291e: 8905         	andi	a0, a0, 0x1
80202920: e90d         	bnez	a0, 0x80202952 <.Lpcrel_hi39+0x60>
80202922: b7a1         	j	0x8020286a <.Lpcrel_hi37+0x1e>
; /Users/lewis/.cargo/registry/src/rsproxy.cn-0dccff568467c15b/buddy_system_allocator-0.11.0/src/lib.rs:174
80202924: 758e         	ld	a1, 0xe0(sp)
80202926: 752e         	ld	a0, 0xe8(sp)
80202928: f9ae         	sd	a1, 0xf0(sp)
8020292a: fdaa         	sd	a0, 0xf8(sp)
8020292c: 1988         	addi	a0, sp, 0xf0
; /Users/lewis/.cargo/registry/src/rsproxy.cn-0dccff568467c15b/buddy_system_allocator-0.11.0/src/lib.rs:175
8020292e: 00001097     	auipc	ra, 0x1
80202932: 568080e7     	jalr	0x568(ra) <buddy_system_allocator::linked_list::ListNode::value::hfa4011b9d9c24fbe>
80202936: 75c2         	ld	a1, 0x30(sp)
80202938: fcb517e3     	bne	a0, a1, 0x80202906 <.Lpcrel_hi39+0x14>
8020293c: a009         	j	0x8020293e <.Lpcrel_hi39+0x4c>
; /Users/lewis/.cargo/registry/src/rsproxy.cn-0dccff568467c15b/buddy_system_allocator-0.11.0/src/lib.rs:176
8020293e: 754e         	ld	a0, 0xf0(sp)
80202940: 75ee         	ld	a1, 0xf8(sp)
80202942: 00001097     	auipc	ra, 0x1
80202946: 540080e7     	jalr	0x540(ra) <buddy_system_allocator::linked_list::ListNode::pop::h2f3da1ae45a0f1bd>
8020294a: 4505         	li	a0, 0x1
; /Users/lewis/.cargo/registry/src/rsproxy.cn-0dccff568467c15b/buddy_system_allocator-0.11.0/src/lib.rs:177
8020294c: 0ca103a3     	sb	a0, 0xc7(sp)
80202950: b7e9         	j	0x8020291a <.Lpcrel_hi39+0x28>
; /Users/lewis/.cargo/registry/src/rsproxy.cn-0dccff568467c15b/buddy_system_allocator-0.11.0/src/lib.rs:184
80202952: 756a         	ld	a0, 0xb8(sp)
80202954: f02a         	sd	a0, 0x20(sp)
80202956: 02000593     	li	a1, 0x20
8020295a: 862a         	mv	a2, a0
8020295c: f432         	sd	a2, 0x28(sp)
8020295e: 04b56763     	bltu	a0, a1, 0x802029ac <.Lpcrel_hi41+0x10>
80202962: a88d         	j	0x802029d4 <.Lpcrel_hi41+0x38>
80202964: 65aa         	ld	a1, 0x88(sp)
80202966: 7546         	ld	a0, 0x70(sp)
80202968: 6666         	ld	a2, 0x58(sp)
; /Users/lewis/.cargo/registry/src/rsproxy.cn-0dccff568467c15b/buddy_system_allocator-0.11.0/src/lib.rs:194
8020296a: 10c53023     	sd	a2, 0x100(a0)
; /Users/lewis/.cargo/registry/src/rsproxy.cn-0dccff568467c15b/buddy_system_allocator-0.11.0/src/lib.rs:195
8020296e: 10853503     	ld	a0, 0x108(a0)
80202972: 40b50633     	sub	a2, a0, a1
80202976: ec32         	sd	a2, 0x18(sp)
80202978: 02b56263     	bltu	a0, a1, 0x8020299c <.Lpcrel_hi41>
8020297c: a809         	j	0x8020298e <.Lpcrel_hi40+0x10>

000000008020297e <.Lpcrel_hi40>:
; .Lpcrel_hi40():
; /Users/lewis/.cargo/registry/src/rsproxy.cn-0dccff568467c15b/buddy_system_allocator-0.11.0/src/lib.rs:194
8020297e: 00005517     	auipc	a0, 0x5
80202982: 80250513     	addi	a0, a0, -0x7fe
80202986: 00002097     	auipc	ra, 0x2
8020298a: 4e2080e7     	jalr	0x4e2(ra) <core::panicking::panic_const::panic_const_sub_overflow::hfc9e186cc78b3e6c>
8020298e: 6562         	ld	a0, 0x18(sp)
80202990: 75c6         	ld	a1, 0x70(sp)
; /Users/lewis/.cargo/registry/src/rsproxy.cn-0dccff568467c15b/buddy_system_allocator-0.11.0/src/lib.rs:195
80202992: 10a5b423     	sd	a0, 0x108(a1)
80202996: 60b6         	ld	ra, 0x148(sp)
; /Users/lewis/.cargo/registry/src/rsproxy.cn-0dccff568467c15b/buddy_system_allocator-0.11.0/src/lib.rs:196
80202998: 6171         	addi	sp, sp, 0x150
8020299a: 8082         	ret

000000008020299c <.Lpcrel_hi41>:
; .Lpcrel_hi41():
; /Users/lewis/.cargo/registry/src/rsproxy.cn-0dccff568467c15b/buddy_system_allocator-0.11.0/src/lib.rs:195
8020299c: 00004517     	auipc	a0, 0x4
802029a0: 7fc50513     	addi	a0, a0, 0x7fc
802029a4: 00002097     	auipc	ra, 0x2
802029a8: 4c4080e7     	jalr	0x4c4(ra) <core::panicking::panic_const::panic_const_sub_overflow::hfc9e186cc78b3e6c>
802029ac: 7546         	ld	a0, 0x70(sp)
802029ae: 7582         	ld	a1, 0x20(sp)
; /Users/lewis/.cargo/registry/src/rsproxy.cn-0dccff568467c15b/buddy_system_allocator-0.11.0/src/lib.rs:184
802029b0: 058e         	slli	a1, a1, 0x3
802029b2: 952e         	add	a0, a0, a1
802029b4: 00001097     	auipc	ra, 0x1
802029b8: 48e080e7     	jalr	0x48e(ra) <buddy_system_allocator::linked_list::LinkedList::pop::h07db9aab40f7699a>
802029bc: 75c2         	ld	a1, 0x30(sp)
; /Users/lewis/.cargo/registry/src/rsproxy.cn-0dccff568467c15b/buddy_system_allocator-0.11.0/src/lib.rs:185
802029be: 754a         	ld	a0, 0xb0(sp)
802029c0: fffff097     	auipc	ra, 0xfffff
802029c4: 6c4080e7     	jalr	0x6c4(ra) <free_mem_start+0xff5f9084>
802029c8: f92a         	sd	a0, 0xb0(sp)
; /Users/lewis/.cargo/registry/src/rsproxy.cn-0dccff568467c15b/buddy_system_allocator-0.11.0/src/lib.rs:186
802029ca: 756a         	ld	a0, 0xb8(sp)
802029cc: 0505         	addi	a0, a0, 0x1
802029ce: e82a         	sd	a0, 0x10(sp)
802029d0: c905         	beqz	a0, 0x80202a00 <.Lpcrel_hi43>
802029d2: a821         	j	0x802029ea <.Lpcrel_hi42+0x14>
802029d4: 7522         	ld	a0, 0x28(sp)

00000000802029d6 <.Lpcrel_hi42>:
; .Lpcrel_hi42():
; /Users/lewis/.cargo/registry/src/rsproxy.cn-0dccff568467c15b/buddy_system_allocator-0.11.0/src/lib.rs:184
802029d6: 00004597     	auipc	a1, 0x4
802029da: 7da58613     	addi	a2, a1, 0x7da
802029de: 02000593     	li	a1, 0x20
802029e2: 00002097     	auipc	ra, 0x2
802029e6: 9fe080e7     	jalr	-0x602(ra) <core::panicking::panic_bounds_check::h8cafb9a5881e4545>
802029ea: 6542         	ld	a0, 0x10(sp)
; /Users/lewis/.cargo/registry/src/rsproxy.cn-0dccff568467c15b/buddy_system_allocator-0.11.0/src/lib.rs:186
802029ec: fd2a         	sd	a0, 0xb8(sp)
; /Users/lewis/.cargo/registry/src/rsproxy.cn-0dccff568467c15b/buddy_system_allocator-0.11.0/src/lib.rs:187
802029ee: 756a         	ld	a0, 0xb8(sp)
802029f0: e02a         	sd	a0, 0x0(sp)
802029f2: 02000593     	li	a1, 0x20
802029f6: 862a         	mv	a2, a0
802029f8: e432         	sd	a2, 0x8(sp)
802029fa: 00b56b63     	bltu	a0, a1, 0x80202a10 <.Lpcrel_hi43+0x10>
802029fe: a01d         	j	0x80202a24 <.Lpcrel_hi43+0x24>

0000000080202a00 <.Lpcrel_hi43>:
; .Lpcrel_hi43():
; /Users/lewis/.cargo/registry/src/rsproxy.cn-0dccff568467c15b/buddy_system_allocator-0.11.0/src/lib.rs:186
80202a00: 00004517     	auipc	a0, 0x4
80202a04: 7c850513     	addi	a0, a0, 0x7c8
80202a08: 00002097     	auipc	ra, 0x2
80202a0c: 42a080e7     	jalr	0x42a(ra) <core::panicking::panic_const::panic_const_add_overflow::h1eeea1441bfc0f05>
80202a10: 7546         	ld	a0, 0x70(sp)
80202a12: 6582         	ld	a1, 0x0(sp)
; /Users/lewis/.cargo/registry/src/rsproxy.cn-0dccff568467c15b/buddy_system_allocator-0.11.0/src/lib.rs:187
80202a14: 058e         	slli	a1, a1, 0x3
80202a16: 952e         	add	a0, a0, a1
80202a18: 75ca         	ld	a1, 0xb0(sp)
80202a1a: 00001097     	auipc	ra, 0x1
80202a1e: 418080e7     	jalr	0x418(ra) <buddy_system_allocator::linked_list::LinkedList::push::hc7fcdf3c1c5c954a>
80202a22: bd3d         	j	0x80202860 <.Lpcrel_hi37+0x14>
80202a24: 6522         	ld	a0, 0x8(sp)

0000000080202a26 <.Lpcrel_hi44>:
; .Lpcrel_hi44():
; /Users/lewis/.cargo/registry/src/rsproxy.cn-0dccff568467c15b/buddy_system_allocator-0.11.0/src/lib.rs:187
80202a26: 00004597     	auipc	a1, 0x4
80202a2a: 7ba58613     	addi	a2, a1, 0x7ba
80202a2e: 02000593     	li	a1, 0x20
80202a32: 00002097     	auipc	ra, 0x2
80202a36: 9ae080e7     	jalr	-0x652(ra) <core::panicking::panic_bounds_check::h8cafb9a5881e4545>

0000000080202a3a <core::alloc::global::GlobalAlloc::alloc_zeroed::h1157c558ccbc1159>:
; core::alloc::global::GlobalAlloc::alloc_zeroed::h1157c558ccbc1159():
; /Users/lewis/.rustup/toolchains/stable-aarch64-apple-darwin/lib/rustlib/src/rust/library/core/src/alloc/global.rs:191
80202a3a: 711d         	addi	sp, sp, -0x60
80202a3c: ec86         	sd	ra, 0x58(sp)
80202a3e: ec2e         	sd	a1, 0x18(sp)
80202a40: f032         	sd	a2, 0x20(sp)
80202a42: f42a         	sd	a0, 0x28(sp)
80202a44: 4581         	li	a1, 0x0
; /Users/lewis/.rustup/toolchains/stable-aarch64-apple-darwin/lib/rustlib/src/rust/library/core/src/intrinsics.rs:3532
80202a46: 02b10ba3     	sb	a1, 0x37(sp)
80202a4a: 082c         	addi	a1, sp, 0x18
; /Users/lewis/.rustup/toolchains/stable-aarch64-apple-darwin/lib/rustlib/src/rust/library/core/src/alloc/global.rs:192
80202a4c: fc2e         	sd	a1, 0x38(sp)
; /Users/lewis/.rustup/toolchains/stable-aarch64-apple-darwin/lib/rustlib/src/rust/library/core/src/alloc/layout.rs:151
80202a4e: 7582         	ld	a1, 0x20(sp)
80202a50: e42e         	sd	a1, 0x8(sp)
80202a52: e0ae         	sd	a1, 0x40(sp)
; /Users/lewis/.rustup/toolchains/stable-aarch64-apple-darwin/lib/rustlib/src/rust/library/core/src/alloc/global.rs:194
80202a54: 65e2         	ld	a1, 0x18(sp)
80202a56: 7602         	ld	a2, 0x20(sp)
80202a58: 00000097     	auipc	ra, 0x0
80202a5c: 11a080e7     	jalr	0x11a(ra) <_$LT$buddy_system_allocator..LockedHeap$LT$_$GT$$u20$as$u20$core..alloc..global..GlobalAlloc$GT$::alloc::hf4cc074af7eebe1d>
80202a60: 85aa         	mv	a1, a0
80202a62: e82e         	sd	a1, 0x10(sp)
80202a64: e4aa         	sd	a0, 0x48(sp)
; /Users/lewis/.rustup/toolchains/stable-aarch64-apple-darwin/lib/rustlib/src/rust/library/core/src/ptr/mut_ptr.rs:102
80202a66: e8aa         	sd	a0, 0x50(sp)
; /Users/lewis/.rustup/toolchains/stable-aarch64-apple-darwin/lib/rustlib/src/rust/library/core/src/alloc/global.rs:195
80202a68: e119         	bnez	a0, 0x80202a6e <core::alloc::global::GlobalAlloc::alloc_zeroed::h1157c558ccbc1159+0x34>
80202a6a: a009         	j	0x80202a6c <core::alloc::global::GlobalAlloc::alloc_zeroed::h1157c558ccbc1159+0x32>
80202a6c: a011         	j	0x80202a70 <core::alloc::global::GlobalAlloc::alloc_zeroed::h1157c558ccbc1159+0x36>
; /Users/lewis/.rustup/toolchains/stable-aarch64-apple-darwin/lib/rustlib/src/rust/library/core/src/ub_checks.rs:76
80202a6e: a029         	j	0x80202a78 <core::alloc::global::GlobalAlloc::alloc_zeroed::h1157c558ccbc1159+0x3e>
80202a70: 6542         	ld	a0, 0x10(sp)
80202a72: 60e6         	ld	ra, 0x58(sp)
; /Users/lewis/.rustup/toolchains/stable-aarch64-apple-darwin/lib/rustlib/src/rust/library/core/src/alloc/global.rs:201
80202a74: 6125         	addi	sp, sp, 0x60
80202a76: 8082         	ret
80202a78: 6542         	ld	a0, 0x10(sp)
80202a7a: 4585         	li	a1, 0x1
; /Users/lewis/.rustup/toolchains/stable-aarch64-apple-darwin/lib/rustlib/src/rust/library/core/src/ub_checks.rs:77
80202a7c: ffffe097     	auipc	ra, 0xffffe
80202a80: 418080e7     	jalr	0x418(ra) <free_mem_start+0xff5f7e94>
; /Users/lewis/.rustup/toolchains/stable-aarch64-apple-darwin/lib/rustlib/src/rust/library/core/src/ub_checks.rs:76
80202a84: a009         	j	0x80202a86 <core::alloc::global::GlobalAlloc::alloc_zeroed::h1157c558ccbc1159+0x4c>
80202a86: 6622         	ld	a2, 0x8(sp)
80202a88: 6542         	ld	a0, 0x10(sp)
80202a8a: 4581         	li	a1, 0x0
; /Users/lewis/.rustup/toolchains/stable-aarch64-apple-darwin/lib/rustlib/src/rust/library/core/src/intrinsics.rs:3549
80202a8c: 00003097     	auipc	ra, 0x3
80202a90: b24080e7     	jalr	-0x4dc(ra) <memset>
; /Users/lewis/.rustup/toolchains/stable-aarch64-apple-darwin/lib/rustlib/src/rust/library/core/src/alloc/global.rs:195
80202a94: bff1         	j	0x80202a70 <core::alloc::global::GlobalAlloc::alloc_zeroed::h1157c558ccbc1159+0x36>

0000000080202a96 <core::alloc::global::GlobalAlloc::realloc::h20167195fd1f2f8a>:
; core::alloc::global::GlobalAlloc::realloc::h20167195fd1f2f8a():
; /Users/lewis/.rustup/toolchains/stable-aarch64-apple-darwin/lib/rustlib/src/rust/library/core/src/alloc/global.rs:261
80202a96: 7155         	addi	sp, sp, -0xd0
80202a98: e586         	sd	ra, 0xc8(sp)
80202a9a: e43a         	sd	a4, 0x8(sp)
80202a9c: e82e         	sd	a1, 0x10(sp)
80202a9e: ec2a         	sd	a0, 0x18(sp)
80202aa0: f432         	sd	a2, 0x28(sp)
80202aa2: f836         	sd	a3, 0x30(sp)
80202aa4: f0aa         	sd	a0, 0x60(sp)
80202aa6: f4ae         	sd	a1, 0x68(sp)
80202aa8: f8ba         	sd	a4, 0x70(sp)
80202aaa: 1028         	addi	a0, sp, 0x28
; /Users/lewis/.rustup/toolchains/stable-aarch64-apple-darwin/lib/rustlib/src/rust/library/core/src/alloc/global.rs:264
80202aac: e12a         	sd	a0, 0x80(sp)
; /Users/lewis/.rustup/toolchains/stable-aarch64-apple-darwin/lib/rustlib/src/rust/library/core/src/alloc/layout.rs:164
80202aae: 7522         	ld	a0, 0x28(sp)
80202ab0: e52a         	sd	a0, 0x88(sp)
; /Users/lewis/.rustup/toolchains/stable-aarch64-apple-darwin/lib/rustlib/src/rust/library/core/src/ptr/alignment.rs:95
80202ab2: e8aa         	sd	a0, 0x50(sp)
80202ab4: 6546         	ld	a0, 0x50(sp)
80202ab6: f02a         	sd	a0, 0x20(sp)
80202ab8: e92a         	sd	a0, 0x90(sp)
; /Users/lewis/.rustup/toolchains/stable-aarch64-apple-darwin/lib/rustlib/src/rust/library/core/src/ub_checks.rs:76
80202aba: a009         	j	0x80202abc <core::alloc::global::GlobalAlloc::realloc::h20167195fd1f2f8a+0x26>
80202abc: 7582         	ld	a1, 0x20(sp)
80202abe: 6522         	ld	a0, 0x8(sp)
; /Users/lewis/.rustup/toolchains/stable-aarch64-apple-darwin/lib/rustlib/src/rust/library/core/src/ub_checks.rs:77
80202ac0: 00000097     	auipc	ra, 0x0
80202ac4: 69c080e7     	jalr	0x69c(ra) <core::alloc::layout::Layout::from_size_align_unchecked::precondition_check::hef6c16faa97b8dad>
80202ac8: a009         	j	0x80202aca <core::alloc::global::GlobalAlloc::realloc::h20167195fd1f2f8a+0x34>
80202aca: 6622         	ld	a2, 0x8(sp)
80202acc: 7582         	ld	a1, 0x20(sp)
80202ace: 6562         	ld	a0, 0x18(sp)
; /Users/lewis/.rustup/toolchains/stable-aarch64-apple-darwin/lib/rustlib/src/rust/library/core/src/alloc/layout.rs:142
80202ad0: ed2e         	sd	a1, 0x98(sp)
80202ad2: f132         	sd	a2, 0xa0(sp)
; /Users/lewis/.rustup/toolchains/stable-aarch64-apple-darwin/lib/rustlib/src/rust/library/core/src/alloc/global.rs:266
80202ad4: 00000097     	auipc	ra, 0x0
80202ad8: 09e080e7     	jalr	0x9e(ra) <_$LT$buddy_system_allocator..LockedHeap$LT$_$GT$$u20$as$u20$core..alloc..global..GlobalAlloc$GT$::alloc::hf4cc074af7eebe1d>
80202adc: 85aa         	mv	a1, a0
80202ade: e02e         	sd	a1, 0x0(sp)
80202ae0: f52a         	sd	a0, 0xa8(sp)
; /Users/lewis/.rustup/toolchains/stable-aarch64-apple-darwin/lib/rustlib/src/rust/library/core/src/ptr/mut_ptr.rs:102
80202ae2: f92a         	sd	a0, 0xb0(sp)
; /Users/lewis/.rustup/toolchains/stable-aarch64-apple-darwin/lib/rustlib/src/rust/library/core/src/alloc/global.rs:267
80202ae4: e119         	bnez	a0, 0x80202aea <core::alloc::global::GlobalAlloc::realloc::h20167195fd1f2f8a+0x54>
80202ae6: a009         	j	0x80202ae8 <core::alloc::global::GlobalAlloc::realloc::h20167195fd1f2f8a+0x52>
80202ae8: a81d         	j	0x80202b1e <core::alloc::global::GlobalAlloc::realloc::h20167195fd1f2f8a+0x88>
80202aea: 6522         	ld	a0, 0x8(sp)
80202aec: 65c2         	ld	a1, 0x10(sp)
; /Users/lewis/.rustup/toolchains/stable-aarch64-apple-darwin/lib/rustlib/src/rust/library/core/src/alloc/global.rs:271
80202aee: fd2e         	sd	a1, 0xb8(sp)
80202af0: 102c         	addi	a1, sp, 0x28
80202af2: e1ae         	sd	a1, 0xc0(sp)
; /Users/lewis/.rustup/toolchains/stable-aarch64-apple-darwin/lib/rustlib/src/rust/library/core/src/alloc/layout.rs:151
80202af4: 75c2         	ld	a1, 0x30(sp)
80202af6: e0ae         	sd	a1, 0x40(sp)
; /Users/lewis/.rustup/toolchains/stable-aarch64-apple-darwin/lib/rustlib/src/rust/library/core/src/alloc/global.rs:271
80202af8: e4aa         	sd	a0, 0x48(sp)
80202afa: 0088         	addi	a0, sp, 0x40
80202afc: 00ac         	addi	a1, sp, 0x48
; /Users/lewis/.rustup/toolchains/stable-aarch64-apple-darwin/lib/rustlib/src/rust/library/core/src/cmp.rs:1444
80202afe: 00000097     	auipc	ra, 0x0
80202b02: 4c6080e7     	jalr	0x4c6(ra) <core::ops::function::FnOnce::call_once::h18c4cf063f57deaf>
80202b06: 04a10fa3     	sb	a0, 0x5f(sp)
80202b0a: 05f14503     	lbu	a0, 0x5f(sp)
80202b0e: 2505         	addiw	a0, a0, 0x1
80202b10: 0ff57513     	andi	a0, a0, 0xff
80202b14: 4589         	li	a1, 0x2
80202b16: 00b56963     	bltu	a0, a1, 0x80202b28 <core::alloc::global::GlobalAlloc::realloc::h20167195fd1f2f8a+0x92>
80202b1a: a009         	j	0x80202b1c <core::alloc::global::GlobalAlloc::realloc::h20167195fd1f2f8a+0x86>
80202b1c: a809         	j	0x80202b2e <core::alloc::global::GlobalAlloc::realloc::h20167195fd1f2f8a+0x98>
80202b1e: 6502         	ld	a0, 0x0(sp)
80202b20: 60ae         	ld	ra, 0xc8(sp)
; /Users/lewis/.rustup/toolchains/stable-aarch64-apple-darwin/lib/rustlib/src/rust/library/core/src/alloc/global.rs:276
80202b22: 6169         	addi	sp, sp, 0xd0
80202b24: 8082         	ret
; /Users/lewis/.rustup/toolchains/stable-aarch64-apple-darwin/lib/rustlib/src/rust/library/core/src/cmp.rs:1444
80202b26: 0000         	unimp
; /Users/lewis/.rustup/toolchains/stable-aarch64-apple-darwin/lib/rustlib/src/rust/library/core/src/cmp.rs:1445
80202b28: 6506         	ld	a0, 0x40(sp)
80202b2a: fc2a         	sd	a0, 0x38(sp)
; /Users/lewis/.rustup/toolchains/stable-aarch64-apple-darwin/lib/rustlib/src/rust/library/core/src/cmp.rs:1448
80202b2c: a021         	j	0x80202b34 <core::alloc::global::GlobalAlloc::realloc::h20167195fd1f2f8a+0x9e>
80202b2e: 6522         	ld	a0, 0x8(sp)
; /Users/lewis/.rustup/toolchains/stable-aarch64-apple-darwin/lib/rustlib/src/rust/library/core/src/cmp.rs:1446
80202b30: fc2a         	sd	a0, 0x38(sp)
; /Users/lewis/.rustup/toolchains/stable-aarch64-apple-darwin/lib/rustlib/src/rust/library/core/src/cmp.rs:1448
80202b32: a009         	j	0x80202b34 <core::alloc::global::GlobalAlloc::realloc::h20167195fd1f2f8a+0x9e>
; /Users/lewis/.rustup/toolchains/stable-aarch64-apple-darwin/lib/rustlib/src/rust/library/core/src/ub_checks.rs:76
80202b34: a009         	j	0x80202b36 <core::alloc::global::GlobalAlloc::realloc::h20167195fd1f2f8a+0xa0>
80202b36: 6582         	ld	a1, 0x0(sp)
80202b38: 6542         	ld	a0, 0x10(sp)
; /Users/lewis/.rustup/toolchains/stable-aarch64-apple-darwin/lib/rustlib/src/rust/library/core/src/ub_checks.rs:77
80202b3a: 7762         	ld	a4, 0x38(sp)
80202b3c: 4685         	li	a3, 0x1
80202b3e: 8636         	mv	a2, a3
80202b40: ffffe097     	auipc	ra, 0xffffe
80202b44: 436080e7     	jalr	0x436(ra) <free_mem_start+0xff5f7f76>
; /Users/lewis/.rustup/toolchains/stable-aarch64-apple-darwin/lib/rustlib/src/rust/library/core/src/ub_checks.rs:76
80202b48: a009         	j	0x80202b4a <core::alloc::global::GlobalAlloc::realloc::h20167195fd1f2f8a+0xb4>
80202b4a: 65c2         	ld	a1, 0x10(sp)
80202b4c: 6502         	ld	a0, 0x0(sp)
; /Users/lewis/.rustup/toolchains/stable-aarch64-apple-darwin/lib/rustlib/src/rust/library/core/src/intrinsics.rs:3375
80202b4e: 7662         	ld	a2, 0x38(sp)
80202b50: 00003097     	auipc	ra, 0x3
80202b54: ad6080e7     	jalr	-0x52a(ra) <memcpy>
80202b58: 65c2         	ld	a1, 0x10(sp)
80202b5a: 6562         	ld	a0, 0x18(sp)
; /Users/lewis/.rustup/toolchains/stable-aarch64-apple-darwin/lib/rustlib/src/rust/library/core/src/alloc/global.rs:272
80202b5c: 7622         	ld	a2, 0x28(sp)
80202b5e: 76c2         	ld	a3, 0x30(sp)
80202b60: 00000097     	auipc	ra, 0x0
80202b64: 0e2080e7     	jalr	0xe2(ra) <_$LT$buddy_system_allocator..LockedHeap$LT$_$GT$$u20$as$u20$core..alloc..global..GlobalAlloc$GT$::dealloc::hcae98aa223b1497b>
80202b68: bf5d         	j	0x80202b1e <core::alloc::global::GlobalAlloc::realloc::h20167195fd1f2f8a+0x88>

0000000080202b6a <_$LT$buddy_system_allocator..LockedHeap$LT$_$GT$$u20$as$u20$core..ops..deref..Deref$GT$::deref::haafb622773e345ef>:
; _$LT$buddy_system_allocator..LockedHeap$LT$_$GT$$u20$as$u20$core..ops..deref..Deref$GT$::deref::haafb622773e345ef():
; /Users/lewis/.cargo/registry/src/rsproxy.cn-0dccff568467c15b/buddy_system_allocator-0.11.0/src/lib.rs:263
80202b6a: 1141         	addi	sp, sp, -0x10
80202b6c: e42a         	sd	a0, 0x8(sp)
; /Users/lewis/.cargo/registry/src/rsproxy.cn-0dccff568467c15b/buddy_system_allocator-0.11.0/src/lib.rs:265
80202b6e: 0141         	addi	sp, sp, 0x10
80202b70: 8082         	ret

0000000080202b72 <_$LT$buddy_system_allocator..LockedHeap$LT$_$GT$$u20$as$u20$core..alloc..global..GlobalAlloc$GT$::alloc::hf4cc074af7eebe1d>:
; _$LT$buddy_system_allocator..LockedHeap$LT$_$GT$$u20$as$u20$core..alloc..global..GlobalAlloc$GT$::alloc::hf4cc074af7eebe1d():
; /Users/lewis/.cargo/registry/src/rsproxy.cn-0dccff568467c15b/buddy_system_allocator-0.11.0/src/lib.rs:270
80202b72: 7135         	addi	sp, sp, -0xa0
80202b74: ed06         	sd	ra, 0x98(sp)
80202b76: ec32         	sd	a2, 0x18(sp)
80202b78: f02e         	sd	a1, 0x20(sp)
80202b7a: f42a         	sd	a0, 0x28(sp)
80202b7c: e0aa         	sd	a0, 0x40(sp)
80202b7e: e4ae         	sd	a1, 0x48(sp)
80202b80: e8b2         	sd	a2, 0x50(sp)
80202b82: f4aa         	sd	a0, 0x68(sp)
80202b84: fcaa         	sd	a0, 0x78(sp)
; /Users/lewis/.cargo/registry/src/rsproxy.cn-0dccff568467c15b/spin-0.9.8/src/mutex/spin.rs:180
80202b86: a011         	j	0x80202b8a <_$LT$buddy_system_allocator..LockedHeap$LT$_$GT$$u20$as$u20$core..alloc..global..GlobalAlloc$GT$::alloc::hf4cc074af7eebe1d+0x18>
80202b88: a009         	j	0x80202b8a <_$LT$buddy_system_allocator..LockedHeap$LT$_$GT$$u20$as$u20$core..alloc..global..GlobalAlloc$GT$::alloc::hf4cc074af7eebe1d+0x18>
80202b8a: 7522         	ld	a0, 0x28(sp)
80202b8c: 4589         	li	a1, 0x2
; /Users/lewis/.cargo/registry/src/rsproxy.cn-0dccff568467c15b/spin-0.9.8/src/mutex/spin.rs:182
80202b8e: 06b10b23     	sb	a1, 0x76(sp)
80202b92: 4581         	li	a1, 0x0
80202b94: 06b10ba3     	sb	a1, 0x77(sp)
; /Users/lewis/.cargo/registry/src/rsproxy.cn-0dccff568467c15b/spin-0.9.8/src/mutex/spin.rs:180
80202b98: 07714703     	lbu	a4, 0x77(sp)
80202b9c: 07614683     	lbu	a3, 0x76(sp)
80202ba0: 4605         	li	a2, 0x1
80202ba2: fffff097     	auipc	ra, 0xfffff
80202ba6: e40080e7     	jalr	-0x1c0(ra) <free_mem_start+0xff5f89e2>
80202baa: 8905         	andi	a0, a0, 0x1
80202bac: 06a10a23     	sb	a0, 0x74(sp)
80202bb0: 06b10aa3     	sb	a1, 0x75(sp)
80202bb4: 18c8         	addi	a0, sp, 0x74
80202bb6: 00001097     	auipc	ra, 0x1
80202bba: 0f8080e7     	jalr	0xf8(ra) <core::result::Result$LT$T$C$E$GT$::is_err::h7ecd1e2d27598032>
80202bbe: c50d         	beqz	a0, 0x80202be8 <_$LT$buddy_system_allocator..LockedHeap$LT$_$GT$$u20$as$u20$core..alloc..global..GlobalAlloc$GT$::alloc::hf4cc074af7eebe1d+0x76>
80202bc0: a009         	j	0x80202bc2 <_$LT$buddy_system_allocator..LockedHeap$LT$_$GT$$u20$as$u20$core..alloc..global..GlobalAlloc$GT$::alloc::hf4cc074af7eebe1d+0x50>
; /Users/lewis/.cargo/registry/src/rsproxy.cn-0dccff568467c15b/spin-0.9.8/src/mutex/spin.rs:186
80202bc2: a009         	j	0x80202bc4 <_$LT$buddy_system_allocator..LockedHeap$LT$_$GT$$u20$as$u20$core..alloc..global..GlobalAlloc$GT$::alloc::hf4cc074af7eebe1d+0x52>
80202bc4: 7522         	ld	a0, 0x28(sp)
80202bc6: e92a         	sd	a0, 0x90(sp)
80202bc8: 4581         	li	a1, 0x0
; /Users/lewis/.cargo/registry/src/rsproxy.cn-0dccff568467c15b/spin-0.9.8/src/mutex/spin.rs:207
80202bca: 08b107a3     	sb	a1, 0x8f(sp)
80202bce: 08f14583     	lbu	a1, 0x8f(sp)
80202bd2: fffff097     	auipc	ra, 0xfffff
80202bd6: e34080e7     	jalr	-0x1cc(ra) <free_mem_start+0xff5f8a06>
; /Users/lewis/.cargo/registry/src/rsproxy.cn-0dccff568467c15b/spin-0.9.8/src/mutex/spin.rs:186
80202bda: d55d         	beqz	a0, 0x80202b88 <_$LT$buddy_system_allocator..LockedHeap$LT$_$GT$$u20$as$u20$core..alloc..global..GlobalAlloc$GT$::alloc::hf4cc074af7eebe1d+0x16>
80202bdc: a009         	j	0x80202bde <_$LT$buddy_system_allocator..LockedHeap$LT$_$GT$$u20$as$u20$core..alloc..global..GlobalAlloc$GT$::alloc::hf4cc074af7eebe1d+0x6c>
; /Users/lewis/.cargo/registry/src/rsproxy.cn-0dccff568467c15b/spin-0.9.8/src/relax.rs:29
80202bde: fffff097     	auipc	ra, 0xfffff
80202be2: 03c080e7     	jalr	0x3c(ra) <free_mem_start+0xff5f8c1a>
; /Users/lewis/.cargo/registry/src/rsproxy.cn-0dccff568467c15b/spin-0.9.8/src/mutex/spin.rs:187
80202be6: bff9         	j	0x80202bc4 <_$LT$buddy_system_allocator..LockedHeap$LT$_$GT$$u20$as$u20$core..alloc..global..GlobalAlloc$GT$::alloc::hf4cc074af7eebe1d+0x52>
80202be8: 75a2         	ld	a1, 0x28(sp)
; /Users/lewis/.cargo/registry/src/rsproxy.cn-0dccff568467c15b/spin-0.9.8/src/mutex/spin.rs:193
80202bea: 00858513     	addi	a0, a1, 0x8
80202bee: e12a         	sd	a0, 0x80(sp)
; /Users/lewis/.cargo/registry/src/rsproxy.cn-0dccff568467c15b/buddy_system_allocator-0.11.0/src/lib.rs:271
80202bf0: f82e         	sd	a1, 0x30(sp)
80202bf2: fc2a         	sd	a0, 0x38(sp)
80202bf4: 1808         	addi	a0, sp, 0x30
80202bf6: e42a         	sd	a0, 0x8(sp)
80202bf8: fffff097     	auipc	ra, 0xfffff
80202bfc: 542080e7     	jalr	0x542(ra) <free_mem_start+0xff5f913a>
80202c00: 7582         	ld	a1, 0x20(sp)
80202c02: 6662         	ld	a2, 0x18(sp)
80202c04: fffff097     	auipc	ra, 0xfffff
80202c08: 7f6080e7     	jalr	0x7f6(ra) <free_mem_start+0xff5f93fa>
80202c0c: 00001097     	auipc	ra, 0x1
80202c10: 07c080e7     	jalr	0x7c(ra) <core::result::Result$LT$T$C$E$GT$::ok::he963c1803336adcc>
80202c14: 4581         	li	a1, 0x0
; /Users/lewis/.rustup/toolchains/stable-aarch64-apple-darwin/lib/rustlib/src/rust/library/core/src/ptr/mod.rs:694
80202c16: ecae         	sd	a1, 0x58(sp)
; /Users/lewis/.rustup/toolchains/stable-aarch64-apple-darwin/lib/rustlib/src/rust/library/core/src/ptr/metadata.rs:126
80202c18: f0ae         	sd	a1, 0x60(sp)
; /Users/lewis/.cargo/registry/src/rsproxy.cn-0dccff568467c15b/buddy_system_allocator-0.11.0/src/lib.rs:271
80202c1a: fffff097     	auipc	ra, 0xfffff
80202c1e: 9fa080e7     	jalr	-0x606(ra) <free_mem_start+0xff5f8614>
80202c22: 85aa         	mv	a1, a0
80202c24: 6522         	ld	a0, 0x8(sp)
80202c26: e82e         	sd	a1, 0x10(sp)
; /Users/lewis/.cargo/registry/src/rsproxy.cn-0dccff568467c15b/buddy_system_allocator-0.11.0/src/lib.rs:276
80202c28: 00000097     	auipc	ra, 0x0
80202c2c: 3fe080e7     	jalr	0x3fe(ra) <core::ptr::drop_in_place$LT$spin..mutex..MutexGuard$LT$buddy_system_allocator..Heap$LT$32_usize$GT$$GT$$GT$::h40f7c54feb970bf5>
80202c30: 6542         	ld	a0, 0x10(sp)
80202c32: 60ea         	ld	ra, 0x98(sp)
80202c34: 610d         	addi	sp, sp, 0xa0
80202c36: 8082         	ret

0000000080202c38 <_$LT$buddy_system_allocator..LockedHeap$LT$_$GT$$u20$as$u20$core..alloc..global..GlobalAlloc$GT$::alloc::_$u7b$$u7b$closure$u7d$$u7d$::h702806824928a3ac>:
; _$LT$buddy_system_allocator..LockedHeap$LT$_$GT$$u20$as$u20$core..alloc..global..GlobalAlloc$GT$::alloc::_$u7b$$u7b$closure$u7d$$u7d$::h702806824928a3ac():
; /Users/lewis/.cargo/registry/src/rsproxy.cn-0dccff568467c15b/buddy_system_allocator-0.11.0/src/lib.rs:275
80202c38: 1101         	addi	sp, sp, -0x20
80202c3a: e82a         	sd	a0, 0x10(sp)
80202c3c: ec2a         	sd	a0, 0x18(sp)
80202c3e: 6105         	addi	sp, sp, 0x20
80202c40: 8082         	ret

0000000080202c42 <_$LT$buddy_system_allocator..LockedHeap$LT$_$GT$$u20$as$u20$core..alloc..global..GlobalAlloc$GT$::dealloc::hcae98aa223b1497b>:
; _$LT$buddy_system_allocator..LockedHeap$LT$_$GT$$u20$as$u20$core..alloc..global..GlobalAlloc$GT$::dealloc::hcae98aa223b1497b():
; /Users/lewis/.cargo/registry/src/rsproxy.cn-0dccff568467c15b/buddy_system_allocator-0.11.0/src/lib.rs:278
80202c42: 7135         	addi	sp, sp, -0xa0
80202c44: ed06         	sd	ra, 0x98(sp)
80202c46: ec36         	sd	a3, 0x18(sp)
80202c48: f032         	sd	a2, 0x20(sp)
80202c4a: f42e         	sd	a1, 0x28(sp)
80202c4c: f82a         	sd	a0, 0x30(sp)
80202c4e: e4aa         	sd	a0, 0x48(sp)
80202c50: e8ae         	sd	a1, 0x50(sp)
80202c52: ecb2         	sd	a2, 0x58(sp)
80202c54: f0b6         	sd	a3, 0x60(sp)
80202c56: f4aa         	sd	a0, 0x68(sp)
80202c58: fcaa         	sd	a0, 0x78(sp)
; /Users/lewis/.cargo/registry/src/rsproxy.cn-0dccff568467c15b/spin-0.9.8/src/mutex/spin.rs:180
80202c5a: a011         	j	0x80202c5e <_$LT$buddy_system_allocator..LockedHeap$LT$_$GT$$u20$as$u20$core..alloc..global..GlobalAlloc$GT$::dealloc::hcae98aa223b1497b+0x1c>
80202c5c: a009         	j	0x80202c5e <_$LT$buddy_system_allocator..LockedHeap$LT$_$GT$$u20$as$u20$core..alloc..global..GlobalAlloc$GT$::dealloc::hcae98aa223b1497b+0x1c>
80202c5e: 7542         	ld	a0, 0x30(sp)
80202c60: 4589         	li	a1, 0x2
; /Users/lewis/.cargo/registry/src/rsproxy.cn-0dccff568467c15b/spin-0.9.8/src/mutex/spin.rs:182
80202c62: 06b10b23     	sb	a1, 0x76(sp)
80202c66: 4581         	li	a1, 0x0
80202c68: 06b10ba3     	sb	a1, 0x77(sp)
; /Users/lewis/.cargo/registry/src/rsproxy.cn-0dccff568467c15b/spin-0.9.8/src/mutex/spin.rs:180
80202c6c: 07714703     	lbu	a4, 0x77(sp)
80202c70: 07614683     	lbu	a3, 0x76(sp)
80202c74: 4605         	li	a2, 0x1
80202c76: fffff097     	auipc	ra, 0xfffff
80202c7a: d6c080e7     	jalr	-0x294(ra) <free_mem_start+0xff5f89e2>
80202c7e: 8905         	andi	a0, a0, 0x1
80202c80: 06a10a23     	sb	a0, 0x74(sp)
80202c84: 06b10aa3     	sb	a1, 0x75(sp)
80202c88: 18c8         	addi	a0, sp, 0x74
80202c8a: 00001097     	auipc	ra, 0x1
80202c8e: 024080e7     	jalr	0x24(ra) <core::result::Result$LT$T$C$E$GT$::is_err::h7ecd1e2d27598032>
80202c92: c50d         	beqz	a0, 0x80202cbc <_$LT$buddy_system_allocator..LockedHeap$LT$_$GT$$u20$as$u20$core..alloc..global..GlobalAlloc$GT$::dealloc::hcae98aa223b1497b+0x7a>
80202c94: a009         	j	0x80202c96 <_$LT$buddy_system_allocator..LockedHeap$LT$_$GT$$u20$as$u20$core..alloc..global..GlobalAlloc$GT$::dealloc::hcae98aa223b1497b+0x54>
; /Users/lewis/.cargo/registry/src/rsproxy.cn-0dccff568467c15b/spin-0.9.8/src/mutex/spin.rs:186
80202c96: a009         	j	0x80202c98 <_$LT$buddy_system_allocator..LockedHeap$LT$_$GT$$u20$as$u20$core..alloc..global..GlobalAlloc$GT$::dealloc::hcae98aa223b1497b+0x56>
80202c98: 7542         	ld	a0, 0x30(sp)
80202c9a: e92a         	sd	a0, 0x90(sp)
80202c9c: 4581         	li	a1, 0x0
; /Users/lewis/.cargo/registry/src/rsproxy.cn-0dccff568467c15b/spin-0.9.8/src/mutex/spin.rs:207
80202c9e: 08b107a3     	sb	a1, 0x8f(sp)
80202ca2: 08f14583     	lbu	a1, 0x8f(sp)
80202ca6: fffff097     	auipc	ra, 0xfffff
80202caa: d60080e7     	jalr	-0x2a0(ra) <free_mem_start+0xff5f8a06>
; /Users/lewis/.cargo/registry/src/rsproxy.cn-0dccff568467c15b/spin-0.9.8/src/mutex/spin.rs:186
80202cae: d55d         	beqz	a0, 0x80202c5c <_$LT$buddy_system_allocator..LockedHeap$LT$_$GT$$u20$as$u20$core..alloc..global..GlobalAlloc$GT$::dealloc::hcae98aa223b1497b+0x1a>
80202cb0: a009         	j	0x80202cb2 <_$LT$buddy_system_allocator..LockedHeap$LT$_$GT$$u20$as$u20$core..alloc..global..GlobalAlloc$GT$::dealloc::hcae98aa223b1497b+0x70>
; /Users/lewis/.cargo/registry/src/rsproxy.cn-0dccff568467c15b/spin-0.9.8/src/relax.rs:29
80202cb2: fffff097     	auipc	ra, 0xfffff
80202cb6: f68080e7     	jalr	-0x98(ra) <free_mem_start+0xff5f8c1a>
; /Users/lewis/.cargo/registry/src/rsproxy.cn-0dccff568467c15b/spin-0.9.8/src/mutex/spin.rs:187
80202cba: bff9         	j	0x80202c98 <_$LT$buddy_system_allocator..LockedHeap$LT$_$GT$$u20$as$u20$core..alloc..global..GlobalAlloc$GT$::dealloc::hcae98aa223b1497b+0x56>
80202cbc: 75c2         	ld	a1, 0x30(sp)
; /Users/lewis/.cargo/registry/src/rsproxy.cn-0dccff568467c15b/spin-0.9.8/src/mutex/spin.rs:193
80202cbe: 00858513     	addi	a0, a1, 0x8
80202cc2: e12a         	sd	a0, 0x80(sp)
; /Users/lewis/.cargo/registry/src/rsproxy.cn-0dccff568467c15b/buddy_system_allocator-0.11.0/src/lib.rs:279
80202cc4: fc2e         	sd	a1, 0x38(sp)
80202cc6: e0aa         	sd	a0, 0x40(sp)
80202cc8: 1828         	addi	a0, sp, 0x38
80202cca: e82a         	sd	a0, 0x10(sp)
80202ccc: fffff097     	auipc	ra, 0xfffff
80202cd0: 46e080e7     	jalr	0x46e(ra) <free_mem_start+0xff5f913a>
80202cd4: 85aa         	mv	a1, a0
80202cd6: 7522         	ld	a0, 0x28(sp)
80202cd8: e42e         	sd	a1, 0x8(sp)
80202cda: ffffe097     	auipc	ra, 0xffffe
80202cde: 774080e7     	jalr	0x774(ra) <free_mem_start+0xff5f844e>
80202ce2: 7602         	ld	a2, 0x20(sp)
80202ce4: 66e2         	ld	a3, 0x18(sp)
80202ce6: 85aa         	mv	a1, a0
80202ce8: 6522         	ld	a0, 0x8(sp)
80202cea: 00000097     	auipc	ra, 0x0
80202cee: aa6080e7     	jalr	-0x55a(ra) <buddy_system_allocator::Heap$LT$_$GT$::dealloc::h47dd9aa79559599a>
80202cf2: 6542         	ld	a0, 0x10(sp)
; /Users/lewis/.cargo/registry/src/rsproxy.cn-0dccff568467c15b/buddy_system_allocator-0.11.0/src/lib.rs:280
80202cf4: 00000097     	auipc	ra, 0x0
80202cf8: 332080e7     	jalr	0x332(ra) <core::ptr::drop_in_place$LT$spin..mutex..MutexGuard$LT$buddy_system_allocator..Heap$LT$32_usize$GT$$GT$$GT$::h40f7c54feb970bf5>
80202cfc: 60ea         	ld	ra, 0x98(sp)
80202cfe: 610d         	addi	sp, sp, 0xa0
80202d00: 8082         	ret

0000000080202d02 <rust_to_riscv_asm::clear_bss::_$u7b$$u7b$closure$u7d$$u7d$::hd586cff90e728b0d>:
; rust_to_riscv_asm::clear_bss::_$u7b$$u7b$closure$u7d$$u7d$::hd586cff90e728b0d():
; /Users/lewis/Github/rust-to-riscv-asm/src/main.rs:51
80202d02: 7179         	addi	sp, sp, -0x30
80202d04: f406         	sd	ra, 0x28(sp)
80202d06: e02e         	sd	a1, 0x0(sp)
80202d08: 85aa         	mv	a1, a0
80202d0a: 6502         	ld	a0, 0x0(sp)
80202d0c: e42e         	sd	a1, 0x8(sp)
80202d0e: e82a         	sd	a0, 0x10(sp)
80202d10: ec2a         	sd	a0, 0x18(sp)
80202d12: 4581         	li	a1, 0x0
80202d14: 02b103a3     	sb	a1, 0x27(sp)
; /Users/lewis/.rustup/toolchains/stable-aarch64-apple-darwin/lib/rustlib/src/rust/library/core/src/ptr/mut_ptr.rs:1500
80202d18: ffffd097     	auipc	ra, 0xffffd
80202d1c: 662080e7     	jalr	0x662(ra) <free_mem_start+0xff5f737a>
80202d20: 70a2         	ld	ra, 0x28(sp)
; /Users/lewis/Github/rust-to-riscv-asm/src/main.rs:51
80202d22: 6145         	addi	sp, sp, 0x30
80202d24: 8082         	ret

0000000080202d26 <core::char::methods::encode_utf8_raw::h2919b4745d8d9606>:
; core::char::methods::encode_utf8_raw::h2919b4745d8d9606():
; /Users/lewis/.rustup/toolchains/stable-aarch64-apple-darwin/lib/rustlib/src/rust/library/core/src/char/methods.rs:1779
80202d26: 7171         	addi	sp, sp, -0xb0
80202d28: f506         	sd	ra, 0xa8(sp)
80202d2a: e832         	sd	a2, 0x10(sp)
80202d2c: ec2e         	sd	a1, 0x18(sp)
80202d2e: 86aa         	mv	a3, a0
80202d30: 0006851b     	sext.w	a0, a3
80202d34: 8736         	mv	a4, a3
80202d36: f03a         	sd	a4, 0x20(sp)
80202d38: da36         	sw	a3, 0x34(sp)
80202d3a: fc2e         	sd	a1, 0x38(sp)
80202d3c: e0b2         	sd	a2, 0x40(sp)
80202d3e: 08000593     	li	a1, 0x80
; /Users/lewis/.rustup/toolchains/stable-aarch64-apple-darwin/lib/rustlib/src/rust/library/core/src/char/methods.rs:1747
80202d42: 00b56863     	bltu	a0, a1, 0x80202d52 <core::char::methods::encode_utf8_raw::h2919b4745d8d9606+0x2c>
80202d46: a009         	j	0x80202d48 <core::char::methods::encode_utf8_raw::h2919b4745d8d9606+0x22>
80202d48: 7502         	ld	a0, 0x20(sp)
; /Users/lewis/.rustup/toolchains/stable-aarch64-apple-darwin/lib/rustlib/src/rust/library/core/src/char/methods.rs:1748
80202d4a: 00b5551b     	srliw	a0, a0, 0xb
80202d4e: cd09         	beqz	a0, 0x80202d68 <core::char::methods::encode_utf8_raw::h2919b4745d8d9606+0x42>
80202d50: a039         	j	0x80202d5e <core::char::methods::encode_utf8_raw::h2919b4745d8d9606+0x38>
80202d52: 6542         	ld	a0, 0x10(sp)
80202d54: 4585         	li	a1, 0x1
; /Users/lewis/.rustup/toolchains/stable-aarch64-apple-darwin/lib/rustlib/src/rust/library/core/src/char/methods.rs:1747
80202d56: f42e         	sd	a1, 0x28(sp)
; /Users/lewis/.rustup/toolchains/stable-aarch64-apple-darwin/lib/rustlib/src/rust/library/core/src/char/methods.rs:1791
80202d58: 10051563     	bnez	a0, 0x80202e62 <core::char::methods::encode_utf8_raw::h2919b4745d8d9606+0x13c>
80202d5c: a81d         	j	0x80202d92 <core::char::methods::encode_utf8_raw::h2919b4745d8d9606+0x6c>
80202d5e: 7502         	ld	a0, 0x20(sp)
; /Users/lewis/.rustup/toolchains/stable-aarch64-apple-darwin/lib/rustlib/src/rust/library/core/src/char/methods.rs:1749
80202d60: 0105551b     	srliw	a0, a0, 0x10
80202d64: c105         	beqz	a0, 0x80202d84 <core::char::methods::encode_utf8_raw::h2919b4745d8d9606+0x5e>
80202d66: a801         	j	0x80202d76 <core::char::methods::encode_utf8_raw::h2919b4745d8d9606+0x50>
80202d68: 65c2         	ld	a1, 0x10(sp)
80202d6a: 4509         	li	a0, 0x2
; /Users/lewis/.rustup/toolchains/stable-aarch64-apple-darwin/lib/rustlib/src/rust/library/core/src/char/methods.rs:1748
80202d6c: f42a         	sd	a0, 0x28(sp)
80202d6e: 4505         	li	a0, 0x1
; /Users/lewis/.rustup/toolchains/stable-aarch64-apple-darwin/lib/rustlib/src/rust/library/core/src/char/methods.rs:1794
80202d70: 0cb56563     	bltu	a0, a1, 0x80202e3a <core::char::methods::encode_utf8_raw::h2919b4745d8d9606+0x114>
80202d74: a839         	j	0x80202d92 <core::char::methods::encode_utf8_raw::h2919b4745d8d9606+0x6c>
80202d76: 65c2         	ld	a1, 0x10(sp)
80202d78: 4511         	li	a0, 0x4
; /Users/lewis/.rustup/toolchains/stable-aarch64-apple-darwin/lib/rustlib/src/rust/library/core/src/char/methods.rs:1750
80202d7a: f42a         	sd	a0, 0x28(sp)
80202d7c: 450d         	li	a0, 0x3
; /Users/lewis/.rustup/toolchains/stable-aarch64-apple-darwin/lib/rustlib/src/rust/library/core/src/char/methods.rs:1803
80202d7e: 02b56263     	bltu	a0, a1, 0x80202da2 <core::char::methods::encode_utf8_raw::h2919b4745d8d9606+0x7c>
80202d82: a801         	j	0x80202d92 <core::char::methods::encode_utf8_raw::h2919b4745d8d9606+0x6c>
80202d84: 65c2         	ld	a1, 0x10(sp)
80202d86: 450d         	li	a0, 0x3
; /Users/lewis/.rustup/toolchains/stable-aarch64-apple-darwin/lib/rustlib/src/rust/library/core/src/char/methods.rs:1749
80202d88: f42a         	sd	a0, 0x28(sp)
80202d8a: 4509         	li	a0, 0x2
; /Users/lewis/.rustup/toolchains/stable-aarch64-apple-darwin/lib/rustlib/src/rust/library/core/src/char/methods.rs:1798
80202d8c: 06b56963     	bltu	a0, a1, 0x80202dfe <core::char::methods::encode_utf8_raw::h2919b4745d8d9606+0xd8>
80202d90: a009         	j	0x80202d92 <core::char::methods::encode_utf8_raw::h2919b4745d8d9606+0x6c>
80202d92: 6642         	ld	a2, 0x10(sp)
80202d94: 7502         	ld	a0, 0x20(sp)
; /Users/lewis/.rustup/toolchains/stable-aarch64-apple-darwin/lib/rustlib/src/rust/library/core/src/char/methods.rs:1810
80202d96: 75a2         	ld	a1, 0x28(sp)
80202d98: 00001097     	auipc	ra, 0x1
80202d9c: 434080e7     	jalr	0x434(ra) <core::char::methods::encode_utf8_raw::panic_at_rt::h34e53256f212e3ba>
80202da0: a889         	j	0x80202df2 <core::char::methods::encode_utf8_raw::h2919b4745d8d9606+0xcc>
80202da2: 65e2         	ld	a1, 0x18(sp)
80202da4: 7502         	ld	a0, 0x20(sp)
; /Users/lewis/.rustup/toolchains/stable-aarch64-apple-darwin/lib/rustlib/src/rust/library/core/src/char/methods.rs:1803
80202da6: e4ae         	sd	a1, 0x48(sp)
80202da8: 00158613     	addi	a2, a1, 0x1
80202dac: e8b2         	sd	a2, 0x50(sp)
80202dae: 00258613     	addi	a2, a1, 0x2
80202db2: ecb2         	sd	a2, 0x58(sp)
80202db4: 00358613     	addi	a2, a1, 0x3
80202db8: f0b2         	sd	a2, 0x60(sp)
; /Users/lewis/.rustup/toolchains/stable-aarch64-apple-darwin/lib/rustlib/src/rust/library/core/src/char/methods.rs:1804
80202dba: 02b51613     	slli	a2, a0, 0x2b
80202dbe: 9275         	srli	a2, a2, 0x3d
80202dc0: 0f060613     	addi	a2, a2, 0xf0
80202dc4: 00c58023     	sb	a2, 0x0(a1)
; /Users/lewis/.rustup/toolchains/stable-aarch64-apple-darwin/lib/rustlib/src/rust/library/core/src/char/methods.rs:1805
80202dc8: 02e51613     	slli	a2, a0, 0x2e
80202dcc: 9269         	srli	a2, a2, 0x3a
80202dce: 08060613     	addi	a2, a2, 0x80
80202dd2: 00c580a3     	sb	a2, 0x1(a1)
; /Users/lewis/.rustup/toolchains/stable-aarch64-apple-darwin/lib/rustlib/src/rust/library/core/src/char/methods.rs:1806
80202dd6: 03451613     	slli	a2, a0, 0x34
80202dda: 9269         	srli	a2, a2, 0x3a
80202ddc: 08060613     	addi	a2, a2, 0x80
80202de0: 00c58123     	sb	a2, 0x2(a1)
; /Users/lewis/.rustup/toolchains/stable-aarch64-apple-darwin/lib/rustlib/src/rust/library/core/src/char/methods.rs:1807
80202de4: 03f57513     	andi	a0, a0, 0x3f
80202de8: 08050513     	addi	a0, a0, 0x80
80202dec: 00a581a3     	sb	a0, 0x3(a1)
; /Users/lewis/.rustup/toolchains/stable-aarch64-apple-darwin/lib/rustlib/src/rust/library/core/src/char/methods.rs:1808
80202df0: a009         	j	0x80202df2 <core::char::methods::encode_utf8_raw::h2919b4745d8d9606+0xcc>
80202df2: 6562         	ld	a0, 0x18(sp)
; /Users/lewis/.rustup/toolchains/stable-aarch64-apple-darwin/lib/rustlib/src/rust/library/core/src/slice/mod.rs:780
80202df4: ed2a         	sd	a0, 0x98(sp)
; /Users/lewis/.rustup/toolchains/stable-aarch64-apple-darwin/lib/rustlib/src/rust/library/core/src/char/methods.rs:1813
80202df6: 7522         	ld	a0, 0x28(sp)
80202df8: e42a         	sd	a0, 0x8(sp)
80202dfa: f12a         	sd	a0, 0xa0(sp)
; /Users/lewis/.rustup/toolchains/stable-aarch64-apple-darwin/lib/rustlib/src/rust/library/core/src/ub_checks.rs:76
80202dfc: a88d         	j	0x80202e6e <core::char::methods::encode_utf8_raw::h2919b4745d8d9606+0x148>
80202dfe: 65e2         	ld	a1, 0x18(sp)
80202e00: 7502         	ld	a0, 0x20(sp)
; /Users/lewis/.rustup/toolchains/stable-aarch64-apple-darwin/lib/rustlib/src/rust/library/core/src/char/methods.rs:1798
80202e02: f4ae         	sd	a1, 0x68(sp)
80202e04: 00158613     	addi	a2, a1, 0x1
80202e08: f8b2         	sd	a2, 0x70(sp)
80202e0a: 00258613     	addi	a2, a1, 0x2
80202e0e: fcb2         	sd	a2, 0x78(sp)
; /Users/lewis/.rustup/toolchains/stable-aarch64-apple-darwin/lib/rustlib/src/rust/library/core/src/char/methods.rs:1799
80202e10: 03051613     	slli	a2, a0, 0x30
80202e14: 9271         	srli	a2, a2, 0x3c
80202e16: 0e060613     	addi	a2, a2, 0xe0
80202e1a: 00c58023     	sb	a2, 0x0(a1)
; /Users/lewis/.rustup/toolchains/stable-aarch64-apple-darwin/lib/rustlib/src/rust/library/core/src/char/methods.rs:1800
80202e1e: 03451613     	slli	a2, a0, 0x34
80202e22: 9269         	srli	a2, a2, 0x3a
80202e24: 08060613     	addi	a2, a2, 0x80
80202e28: 00c580a3     	sb	a2, 0x1(a1)
; /Users/lewis/.rustup/toolchains/stable-aarch64-apple-darwin/lib/rustlib/src/rust/library/core/src/char/methods.rs:1801
80202e2c: 03f57513     	andi	a0, a0, 0x3f
80202e30: 08050513     	addi	a0, a0, 0x80
80202e34: 00a58123     	sb	a0, 0x2(a1)
; /Users/lewis/.rustup/toolchains/stable-aarch64-apple-darwin/lib/rustlib/src/rust/library/core/src/char/methods.rs:1802
80202e38: bf6d         	j	0x80202df2 <core::char::methods::encode_utf8_raw::h2919b4745d8d9606+0xcc>
80202e3a: 65e2         	ld	a1, 0x18(sp)
80202e3c: 7502         	ld	a0, 0x20(sp)
; /Users/lewis/.rustup/toolchains/stable-aarch64-apple-darwin/lib/rustlib/src/rust/library/core/src/char/methods.rs:1794
80202e3e: e12e         	sd	a1, 0x80(sp)
80202e40: 00158613     	addi	a2, a1, 0x1
80202e44: e532         	sd	a2, 0x88(sp)
; /Users/lewis/.rustup/toolchains/stable-aarch64-apple-darwin/lib/rustlib/src/rust/library/core/src/char/methods.rs:1795
80202e46: 03551613     	slli	a2, a0, 0x35
80202e4a: 926d         	srli	a2, a2, 0x3b
80202e4c: 0c060613     	addi	a2, a2, 0xc0
80202e50: 00c58023     	sb	a2, 0x0(a1)
; /Users/lewis/.rustup/toolchains/stable-aarch64-apple-darwin/lib/rustlib/src/rust/library/core/src/char/methods.rs:1796
80202e54: 03f57513     	andi	a0, a0, 0x3f
80202e58: 08050513     	addi	a0, a0, 0x80
80202e5c: 00a580a3     	sb	a0, 0x1(a1)
; /Users/lewis/.rustup/toolchains/stable-aarch64-apple-darwin/lib/rustlib/src/rust/library/core/src/char/methods.rs:1797
80202e60: bf49         	j	0x80202df2 <core::char::methods::encode_utf8_raw::h2919b4745d8d9606+0xcc>
80202e62: 7502         	ld	a0, 0x20(sp)
80202e64: 65e2         	ld	a1, 0x18(sp)
; /Users/lewis/.rustup/toolchains/stable-aarch64-apple-darwin/lib/rustlib/src/rust/library/core/src/char/methods.rs:1791
80202e66: e92e         	sd	a1, 0x90(sp)
; /Users/lewis/.rustup/toolchains/stable-aarch64-apple-darwin/lib/rustlib/src/rust/library/core/src/char/methods.rs:1792
80202e68: 00a58023     	sb	a0, 0x0(a1)
; /Users/lewis/.rustup/toolchains/stable-aarch64-apple-darwin/lib/rustlib/src/rust/library/core/src/char/methods.rs:1793
80202e6c: b759         	j	0x80202df2 <core::char::methods::encode_utf8_raw::h2919b4745d8d9606+0xcc>
80202e6e: 66a2         	ld	a3, 0x8(sp)
80202e70: 6562         	ld	a0, 0x18(sp)
80202e72: 4605         	li	a2, 0x1
; /Users/lewis/.rustup/toolchains/stable-aarch64-apple-darwin/lib/rustlib/src/rust/library/core/src/ub_checks.rs:77
80202e74: 85b2         	mv	a1, a2
80202e76: ffffd097     	auipc	ra, 0xffffd
80202e7a: 2dc080e7     	jalr	0x2dc(ra) <free_mem_start+0xff5f7152>
; /Users/lewis/.rustup/toolchains/stable-aarch64-apple-darwin/lib/rustlib/src/rust/library/core/src/ub_checks.rs:76
80202e7e: a009         	j	0x80202e80 <core::char::methods::encode_utf8_raw::h2919b4745d8d9606+0x15a>
80202e80: 65a2         	ld	a1, 0x8(sp)
80202e82: 6562         	ld	a0, 0x18(sp)
80202e84: 70aa         	ld	ra, 0xa8(sp)
; /Users/lewis/.rustup/toolchains/stable-aarch64-apple-darwin/lib/rustlib/src/rust/library/core/src/char/methods.rs:1814
80202e86: 614d         	addi	sp, sp, 0xb0
80202e88: 8082         	ret

0000000080202e8a <core::panicking::assert_failed::h5bace2fa3525e235>:
; core::panicking::assert_failed::h5bace2fa3525e235():
; /Users/lewis/.rustup/toolchains/stable-aarch64-apple-darwin/lib/rustlib/src/rust/library/core/src/panicking.rs:357
80202e8a: 1101         	addi	sp, sp, -0x20
80202e8c: 883a         	mv	a6, a4
80202e8e: 87b6         	mv	a5, a3
80202e90: e42e         	sd	a1, 0x8(sp)
80202e92: e832         	sd	a2, 0x10(sp)
80202e94: 00a10fa3     	sb	a0, 0x1f(sp)

0000000080202e98 <.Lpcrel_hi0>:
; .Lpcrel_hi0():
; /Users/lewis/.rustup/toolchains/stable-aarch64-apple-darwin/lib/rustlib/src/rust/library/core/src/panicking.rs:367
80202e98: 00004597     	auipc	a1, 0x4
80202e9c: 36058713     	addi	a4, a1, 0x360
80202ea0: 002c         	addi	a1, sp, 0x8
80202ea2: 0814         	addi	a3, sp, 0x10
80202ea4: 863a         	mv	a2, a4
80202ea6: 00001097     	auipc	ra, 0x1
80202eaa: 58a080e7     	jalr	0x58a(ra) <core::panicking::assert_failed_inner::h72bd04ff092a00cb>

0000000080202eae <core::panicking::assert_failed::hfcd3e854b36aaadd>:
; core::panicking::assert_failed::hfcd3e854b36aaadd():
; /Users/lewis/.rustup/toolchains/stable-aarch64-apple-darwin/lib/rustlib/src/rust/library/core/src/panicking.rs:357
80202eae: 1101         	addi	sp, sp, -0x20
80202eb0: 883a         	mv	a6, a4
80202eb2: 87b6         	mv	a5, a3
80202eb4: e42e         	sd	a1, 0x8(sp)
80202eb6: e832         	sd	a2, 0x10(sp)
80202eb8: 00a10fa3     	sb	a0, 0x1f(sp)

0000000080202ebc <.Lpcrel_hi1>:
; .Lpcrel_hi1():
; /Users/lewis/.rustup/toolchains/stable-aarch64-apple-darwin/lib/rustlib/src/rust/library/core/src/panicking.rs:367
80202ebc: 00004597     	auipc	a1, 0x4
80202ec0: 35c58713     	addi	a4, a1, 0x35c
80202ec4: 002c         	addi	a1, sp, 0x8
80202ec6: 0814         	addi	a3, sp, 0x10
80202ec8: 863a         	mv	a2, a4
80202eca: 00001097     	auipc	ra, 0x1
80202ece: 566080e7     	jalr	0x566(ra) <core::panicking::assert_failed_inner::h72bd04ff092a00cb>

0000000080202ed2 <core::iter::traits::iterator::Iterator::for_each::call::_$u7b$$u7b$closure$u7d$$u7d$::h20db0023471b6656>:
; core::iter::traits::iterator::Iterator::for_each::call::_$u7b$$u7b$closure$u7d$$u7d$::h20db0023471b6656():
; /Users/lewis/.rustup/toolchains/stable-aarch64-apple-darwin/lib/rustlib/src/rust/library/core/src/iter/traits/iterator.rs:810
80202ed2: 1101         	addi	sp, sp, -0x20
80202ed4: ec06         	sd	ra, 0x18(sp)
80202ed6: e02a         	sd	a0, 0x0(sp)
80202ed8: e82e         	sd	a1, 0x10(sp)
80202eda: 00000097     	auipc	ra, 0x0
80202ede: e28080e7     	jalr	-0x1d8(ra) <rust_to_riscv_asm::clear_bss::_$u7b$$u7b$closure$u7d$$u7d$::hd586cff90e728b0d>
80202ee2: 60e2         	ld	ra, 0x18(sp)
80202ee4: 6105         	addi	sp, sp, 0x20
80202ee6: 8082         	ret

0000000080202ee8 <_$LT$I$u20$as$u20$core..iter..traits..collect..IntoIterator$GT$::into_iter::h1de4524852eead5e>:
; _$LT$I$u20$as$u20$core..iter..traits..collect..IntoIterator$GT$::into_iter::h1de4524852eead5e():
; /Users/lewis/.rustup/toolchains/stable-aarch64-apple-darwin/lib/rustlib/src/rust/library/core/src/iter/traits/collect.rs:356
80202ee8: 1141         	addi	sp, sp, -0x10
80202eea: e02a         	sd	a0, 0x0(sp)
80202eec: e42e         	sd	a1, 0x8(sp)
; /Users/lewis/.rustup/toolchains/stable-aarch64-apple-darwin/lib/rustlib/src/rust/library/core/src/iter/traits/collect.rs:358
80202eee: 0141         	addi	sp, sp, 0x10
80202ef0: 8082         	ret

0000000080202ef2 <alloc::vec::Vec$LT$T$GT$::new::h90e526053258c592>:
; alloc::vec::Vec$LT$T$GT$::new::h90e526053258c592():
; /Users/lewis/.rustup/toolchains/stable-aarch64-apple-darwin/lib/rustlib/src/rust/library/alloc/src/vec/mod.rs:422
80202ef2: 1101         	addi	sp, sp, -0x20
80202ef4: 85aa         	mv	a1, a0
80202ef6: 4611         	li	a2, 0x4
; /Users/lewis/.rustup/toolchains/stable-aarch64-apple-darwin/lib/rustlib/src/rust/library/core/src/mem/mod.rs:468
80202ef8: e832         	sd	a2, 0x10(sp)
; /Users/lewis/.rustup/toolchains/stable-aarch64-apple-darwin/lib/rustlib/src/rust/library/alloc/src/raw_vec.rs:404
80202efa: ec32         	sd	a2, 0x18(sp)
80202efc: 4501         	li	a0, 0x0
; /Users/lewis/.rustup/toolchains/stable-aarch64-apple-darwin/lib/rustlib/src/rust/library/alloc/src/vec/mod.rs:423
80202efe: e188         	sd	a0, 0x0(a1)
80202f00: e590         	sd	a2, 0x8(a1)
80202f02: e988         	sd	a0, 0x10(a1)
; /Users/lewis/.rustup/toolchains/stable-aarch64-apple-darwin/lib/rustlib/src/rust/library/alloc/src/vec/mod.rs:424
80202f04: 6105         	addi	sp, sp, 0x20
80202f06: 8082         	ret

0000000080202f08 <alloc::vec::Vec$LT$T$C$A$GT$::len::hb7bba9fe6f68bb37>:
; alloc::vec::Vec$LT$T$C$A$GT$::len::hb7bba9fe6f68bb37():
; /Users/lewis/.rustup/toolchains/stable-aarch64-apple-darwin/lib/rustlib/src/rust/library/alloc/src/vec/mod.rs:2664
80202f08: 1141         	addi	sp, sp, -0x10
80202f0a: e42a         	sd	a0, 0x8(sp)
; /Users/lewis/.rustup/toolchains/stable-aarch64-apple-darwin/lib/rustlib/src/rust/library/alloc/src/vec/mod.rs:2665
80202f0c: 6908         	ld	a0, 0x10(a0)
; /Users/lewis/.rustup/toolchains/stable-aarch64-apple-darwin/lib/rustlib/src/rust/library/alloc/src/vec/mod.rs:2666
80202f0e: 0141         	addi	sp, sp, 0x10
80202f10: 8082         	ret

0000000080202f12 <alloc::vec::Vec$LT$T$C$A$GT$::push::h0fa8558ba6218b7c>:
; alloc::vec::Vec$LT$T$C$A$GT$::push::h0fa8558ba6218b7c():
; /Users/lewis/.rustup/toolchains/stable-aarch64-apple-darwin/lib/rustlib/src/rust/library/alloc/src/vec/mod.rs:2400
80202f12: 7175         	addi	sp, sp, -0x90
80202f14: e506         	sd	ra, 0x88(sp)
80202f16: e42a         	sd	a0, 0x8(sp)
80202f18: 862e         	mv	a2, a1
80202f1a: e832         	sd	a2, 0x10(sp)
80202f1c: f42a         	sd	a0, 0x28(sp)
80202f1e: da2e         	sw	a1, 0x34(sp)
; /Users/lewis/.rustup/toolchains/stable-aarch64-apple-darwin/lib/rustlib/src/rust/library/alloc/src/vec/mod.rs:2402
80202f20: 690c         	ld	a1, 0x10(a0)
80202f22: ec2e         	sd	a1, 0x18(sp)
80202f24: fc2e         	sd	a1, 0x38(sp)
; /Users/lewis/.rustup/toolchains/stable-aarch64-apple-darwin/lib/rustlib/src/rust/library/alloc/src/vec/mod.rs:2405
80202f26: e0aa         	sd	a0, 0x40(sp)
; /Users/lewis/.rustup/toolchains/stable-aarch64-apple-darwin/lib/rustlib/src/rust/library/alloc/src/raw_vec.rs:297
80202f28: e4aa         	sd	a0, 0x48(sp)
80202f2a: 4511         	li	a0, 0x4
; /Users/lewis/.rustup/toolchains/stable-aarch64-apple-darwin/lib/rustlib/src/rust/library/core/src/mem/mod.rs:309
80202f2c: e8aa         	sd	a0, 0x50(sp)
; /Users/lewis/.rustup/toolchains/stable-aarch64-apple-darwin/lib/rustlib/src/rust/library/alloc/src/raw_vec.rs:502
80202f2e: a009         	j	0x80202f30 <alloc::vec::Vec$LT$T$C$A$GT$::push::h0fa8558ba6218b7c+0x1e>
80202f30: 6522         	ld	a0, 0x8(sp)
; /Users/lewis/.rustup/toolchains/stable-aarch64-apple-darwin/lib/rustlib/src/rust/library/alloc/src/raw_vec.rs:502
80202f32: 6108         	ld	a0, 0x0(a0)
80202f34: f02a         	sd	a0, 0x20(sp)
80202f36: a009         	j	0x80202f38 <alloc::vec::Vec$LT$T$C$A$GT$::push::h0fa8558ba6218b7c+0x26>
80202f38: 6562         	ld	a0, 0x18(sp)
; /Users/lewis/.rustup/toolchains/stable-aarch64-apple-darwin/lib/rustlib/src/rust/library/alloc/src/vec/mod.rs:2405
80202f3a: 7582         	ld	a1, 0x20(sp)
80202f3c: 00b50463     	beq	a0, a1, 0x80202f44 <alloc::vec::Vec$LT$T$C$A$GT$::push::h0fa8558ba6218b7c+0x32>
80202f40: a009         	j	0x80202f42 <alloc::vec::Vec$LT$T$C$A$GT$::push::h0fa8558ba6218b7c+0x30>
80202f42: a039         	j	0x80202f50 <alloc::vec::Vec$LT$T$C$A$GT$::push::h0fa8558ba6218b7c+0x3e>
80202f44: 6522         	ld	a0, 0x8(sp)
; /Users/lewis/.rustup/toolchains/stable-aarch64-apple-darwin/lib/rustlib/src/rust/library/alloc/src/vec/mod.rs:2406
80202f46: 00001097     	auipc	ra, 0x1
80202f4a: 8ce080e7     	jalr	-0x732(ra) <alloc::raw_vec::RawVec$LT$T$C$A$GT$::grow_one::h597f66820a32fb6a>
; /Users/lewis/.rustup/toolchains/stable-aarch64-apple-darwin/lib/rustlib/src/rust/library/alloc/src/vec/mod.rs:2405
80202f4e: a009         	j	0x80202f50 <alloc::vec::Vec$LT$T$C$A$GT$::push::h0fa8558ba6218b7c+0x3e>
80202f50: 65a2         	ld	a1, 0x8(sp)
80202f52: 6562         	ld	a0, 0x18(sp)
80202f54: 6642         	ld	a2, 0x10(sp)
; /Users/lewis/.rustup/toolchains/stable-aarch64-apple-darwin/lib/rustlib/src/rust/library/alloc/src/vec/mod.rs:1724
80202f56: ecae         	sd	a1, 0x58(sp)
; /Users/lewis/.rustup/toolchains/stable-aarch64-apple-darwin/lib/rustlib/src/rust/library/alloc/src/raw_vec.rs:284
80202f58: f0ae         	sd	a1, 0x60(sp)
; /Users/lewis/.rustup/toolchains/stable-aarch64-apple-darwin/lib/rustlib/src/rust/library/alloc/src/raw_vec.rs:497
80202f5a: 6594         	ld	a3, 0x8(a1)
80202f5c: f4b6         	sd	a3, 0x68(sp)
; /Users/lewis/.rustup/toolchains/stable-aarch64-apple-darwin/lib/rustlib/src/rust/library/core/src/ptr/non_null.rs:427
80202f5e: f8b6         	sd	a3, 0x70(sp)
; /Users/lewis/.rustup/toolchains/stable-aarch64-apple-darwin/lib/rustlib/src/rust/library/core/src/ptr/non_null.rs:329
80202f60: fcb6         	sd	a3, 0x78(sp)
; /Users/lewis/.rustup/toolchains/stable-aarch64-apple-darwin/lib/rustlib/src/rust/library/core/src/ptr/mut_ptr.rs:1005
80202f62: 00251713     	slli	a4, a0, 0x2
80202f66: 96ba         	add	a3, a3, a4
80202f68: e136         	sd	a3, 0x80(sp)
; /Users/lewis/.rustup/toolchains/stable-aarch64-apple-darwin/lib/rustlib/src/rust/library/core/src/ptr/mod.rs:1640
80202f6a: c290         	sw	a2, 0x0(a3)
; /Users/lewis/.rustup/toolchains/stable-aarch64-apple-darwin/lib/rustlib/src/rust/library/alloc/src/vec/mod.rs:2411
80202f6c: 0505         	addi	a0, a0, 0x1
80202f6e: e988         	sd	a0, 0x10(a1)
80202f70: 60aa         	ld	ra, 0x88(sp)
; /Users/lewis/.rustup/toolchains/stable-aarch64-apple-darwin/lib/rustlib/src/rust/library/alloc/src/vec/mod.rs:2413
80202f72: 6149         	addi	sp, sp, 0x90
80202f74: 8082         	ret

0000000080202f76 <_$LT$alloc..vec..Vec$LT$T$C$A$GT$$u20$as$u20$core..ops..index..Index$LT$I$GT$$GT$::index::h39e6f510a4f0ce36>:
; _$LT$alloc..vec..Vec$LT$T$C$A$GT$$u20$as$u20$core..ops..index..Index$LT$I$GT$$GT$::index::h39e6f510a4f0ce36():
; /Users/lewis/.rustup/toolchains/stable-aarch64-apple-darwin/lib/rustlib/src/rust/library/alloc/src/vec/mod.rs:3322
80202f76: 7119         	addi	sp, sp, -0x80
80202f78: fc86         	sd	ra, 0x78(sp)
80202f7a: e432         	sd	a2, 0x8(sp)
80202f7c: e82e         	sd	a1, 0x10(sp)
80202f7e: f42a         	sd	a0, 0x28(sp)
80202f80: f82e         	sd	a1, 0x30(sp)
; /Users/lewis/.rustup/toolchains/stable-aarch64-apple-darwin/lib/rustlib/src/rust/library/alloc/src/vec/mod.rs:1662
80202f82: fc2a         	sd	a0, 0x38(sp)
; /Users/lewis/.rustup/toolchains/stable-aarch64-apple-darwin/lib/rustlib/src/rust/library/alloc/src/raw_vec.rs:284
80202f84: e0aa         	sd	a0, 0x40(sp)
; /Users/lewis/.rustup/toolchains/stable-aarch64-apple-darwin/lib/rustlib/src/rust/library/alloc/src/raw_vec.rs:497
80202f86: 650c         	ld	a1, 0x8(a0)
80202f88: ec2e         	sd	a1, 0x18(sp)
80202f8a: e4ae         	sd	a1, 0x48(sp)
; /Users/lewis/.rustup/toolchains/stable-aarch64-apple-darwin/lib/rustlib/src/rust/library/core/src/ptr/non_null.rs:427
80202f8c: e8ae         	sd	a1, 0x50(sp)
80202f8e: ecae         	sd	a1, 0x58(sp)
; /Users/lewis/.rustup/toolchains/stable-aarch64-apple-darwin/lib/rustlib/src/rust/library/alloc/src/vec/mod.rs:1567
80202f90: 6908         	ld	a0, 0x10(a0)
80202f92: f02a         	sd	a0, 0x20(sp)
80202f94: f0aa         	sd	a0, 0x60(sp)
; /Users/lewis/.rustup/toolchains/stable-aarch64-apple-darwin/lib/rustlib/src/rust/library/core/src/ub_checks.rs:76
80202f96: a009         	j	0x80202f98 <_$LT$alloc..vec..Vec$LT$T$C$A$GT$$u20$as$u20$core..ops..index..Index$LT$I$GT$$GT$::index::h39e6f510a4f0ce36+0x22>
80202f98: 7682         	ld	a3, 0x20(sp)
80202f9a: 6562         	ld	a0, 0x18(sp)
80202f9c: 4611         	li	a2, 0x4
; /Users/lewis/.rustup/toolchains/stable-aarch64-apple-darwin/lib/rustlib/src/rust/library/core/src/ub_checks.rs:77
80202f9e: 85b2         	mv	a1, a2
80202fa0: ffffd097     	auipc	ra, 0xffffd
80202fa4: 080080e7     	jalr	0x80(ra) <free_mem_start+0xff5f7020>
; /Users/lewis/.rustup/toolchains/stable-aarch64-apple-darwin/lib/rustlib/src/rust/library/core/src/ub_checks.rs:76
80202fa8: a009         	j	0x80202faa <_$LT$alloc..vec..Vec$LT$T$C$A$GT$$u20$as$u20$core..ops..index..Index$LT$I$GT$$GT$::index::h39e6f510a4f0ce36+0x34>
80202faa: 66a2         	ld	a3, 0x8(sp)
80202fac: 7602         	ld	a2, 0x20(sp)
80202fae: 65e2         	ld	a1, 0x18(sp)
80202fb0: 6542         	ld	a0, 0x10(sp)
; /Users/lewis/.rustup/toolchains/stable-aarch64-apple-darwin/lib/rustlib/src/rust/library/core/src/ptr/metadata.rs:115
80202fb2: f4ae         	sd	a1, 0x68(sp)
80202fb4: f8b2         	sd	a2, 0x70(sp)
; /Users/lewis/.rustup/toolchains/stable-aarch64-apple-darwin/lib/rustlib/src/rust/library/core/src/slice/index.rs:16
80202fb6: 00000097     	auipc	ra, 0x0
80202fba: 726080e7     	jalr	0x726(ra) <_$LT$usize$u20$as$u20$core..slice..index..SliceIndex$LT$$u5b$T$u5d$$GT$$GT$::index::h6665eefb3bd59e84>
80202fbe: 70e6         	ld	ra, 0x78(sp)
; /Users/lewis/.rustup/toolchains/stable-aarch64-apple-darwin/lib/rustlib/src/rust/library/alloc/src/vec/mod.rs:3324
80202fc0: 6109         	addi	sp, sp, 0x80
80202fc2: 8082         	ret

0000000080202fc4 <core::ops::function::FnOnce::call_once::h18c4cf063f57deaf>:
; core::ops::function::FnOnce::call_once::h18c4cf063f57deaf():
; /Users/lewis/.rustup/toolchains/stable-aarch64-apple-darwin/lib/rustlib/src/rust/library/core/src/ops/function.rs:250
80202fc4: 1101         	addi	sp, sp, -0x20
80202fc6: ec06         	sd	ra, 0x18(sp)
80202fc8: e02a         	sd	a0, 0x0(sp)
80202fca: e42e         	sd	a1, 0x8(sp)
80202fcc: 6502         	ld	a0, 0x0(sp)
80202fce: 65a2         	ld	a1, 0x8(sp)
80202fd0: ffffd097     	auipc	ra, 0xffffd
80202fd4: 38c080e7     	jalr	0x38c(ra) <free_mem_start+0xff5f735c>
80202fd8: 60e2         	ld	ra, 0x18(sp)
80202fda: 6105         	addi	sp, sp, 0x20
80202fdc: 8082         	ret

0000000080202fde <core::ptr::drop_in_place$LT$spin..mutex..spin..SpinMutexGuard$LT$buddy_system_allocator..Heap$LT$32_usize$GT$$GT$$GT$::h172bd9eeac9d569f>:
; core::ptr::drop_in_place$LT$spin..mutex..spin..SpinMutexGuard$LT$buddy_system_allocator..Heap$LT$32_usize$GT$$GT$$GT$::h172bd9eeac9d569f():
; /Users/lewis/.rustup/toolchains/stable-aarch64-apple-darwin/lib/rustlib/src/rust/library/core/src/ptr/mod.rs:574
80202fde: 1141         	addi	sp, sp, -0x10
80202fe0: e406         	sd	ra, 0x8(sp)
80202fe2: e02a         	sd	a0, 0x0(sp)
80202fe4: 00000097     	auipc	ra, 0x0
80202fe8: 0a0080e7     	jalr	0xa0(ra) <_$LT$spin..mutex..spin..SpinMutexGuard$LT$T$GT$$u20$as$u20$core..ops..drop..Drop$GT$::drop::hc9d4fc636e22ec68>
80202fec: 60a2         	ld	ra, 0x8(sp)
80202fee: 0141         	addi	sp, sp, 0x10
80202ff0: 8082         	ret

0000000080202ff2 <core::ptr::drop_in_place$LT$alloc..vec..Vec$LT$i32$GT$$GT$::h809a8474d3e511e9>:
; core::ptr::drop_in_place$LT$alloc..vec..Vec$LT$i32$GT$$GT$::h809a8474d3e511e9():
; /Users/lewis/.rustup/toolchains/stable-aarch64-apple-darwin/lib/rustlib/src/rust/library/core/src/ptr/mod.rs:574
80202ff2: 1101         	addi	sp, sp, -0x20
80202ff4: ec06         	sd	ra, 0x18(sp)
80202ff6: e42a         	sd	a0, 0x8(sp)
80202ff8: e82a         	sd	a0, 0x10(sp)
80202ffa: 00000097     	auipc	ra, 0x0
80202ffe: 040080e7     	jalr	0x40(ra) <_$LT$alloc..vec..Vec$LT$T$C$A$GT$$u20$as$u20$core..ops..drop..Drop$GT$::drop::h329a6e2f4a8aabcb>
80203002: 6522         	ld	a0, 0x8(sp)
80203004: 00000097     	auipc	ra, 0x0
80203008: 00e080e7     	jalr	0xe(ra) <core::ptr::drop_in_place$LT$alloc..raw_vec..RawVec$LT$i32$GT$$GT$::hc306db3236bd8913>
8020300c: 60e2         	ld	ra, 0x18(sp)
8020300e: 6105         	addi	sp, sp, 0x20
80203010: 8082         	ret

0000000080203012 <core::ptr::drop_in_place$LT$alloc..raw_vec..RawVec$LT$i32$GT$$GT$::hc306db3236bd8913>:
; core::ptr::drop_in_place$LT$alloc..raw_vec..RawVec$LT$i32$GT$$GT$::hc306db3236bd8913():
; /Users/lewis/.rustup/toolchains/stable-aarch64-apple-darwin/lib/rustlib/src/rust/library/core/src/ptr/mod.rs:574
80203012: 1141         	addi	sp, sp, -0x10
80203014: e406         	sd	ra, 0x8(sp)
80203016: e02a         	sd	a0, 0x0(sp)
80203018: 00000097     	auipc	ra, 0x0
8020301c: 054080e7     	jalr	0x54(ra) <_$LT$alloc..raw_vec..RawVec$LT$T$C$A$GT$$u20$as$u20$core..ops..drop..Drop$GT$::drop::h9d991d9facf91aad>
80203020: 60a2         	ld	ra, 0x8(sp)
80203022: 0141         	addi	sp, sp, 0x10
80203024: 8082         	ret

0000000080203026 <core::ptr::drop_in_place$LT$spin..mutex..MutexGuard$LT$buddy_system_allocator..Heap$LT$32_usize$GT$$GT$$GT$::h40f7c54feb970bf5>:
; core::ptr::drop_in_place$LT$spin..mutex..MutexGuard$LT$buddy_system_allocator..Heap$LT$32_usize$GT$$GT$$GT$::h40f7c54feb970bf5():
; /Users/lewis/.rustup/toolchains/stable-aarch64-apple-darwin/lib/rustlib/src/rust/library/core/src/ptr/mod.rs:574
80203026: 1141         	addi	sp, sp, -0x10
80203028: e406         	sd	ra, 0x8(sp)
8020302a: e02a         	sd	a0, 0x0(sp)
8020302c: 00000097     	auipc	ra, 0x0
80203030: fb2080e7     	jalr	-0x4e(ra) <core::ptr::drop_in_place$LT$spin..mutex..spin..SpinMutexGuard$LT$buddy_system_allocator..Heap$LT$32_usize$GT$$GT$$GT$::h172bd9eeac9d569f>
80203034: 60a2         	ld	ra, 0x8(sp)
80203036: 0141         	addi	sp, sp, 0x10
80203038: 8082         	ret

000000008020303a <_$LT$alloc..vec..Vec$LT$T$C$A$GT$$u20$as$u20$core..ops..drop..Drop$GT$::drop::h329a6e2f4a8aabcb>:
; _$LT$alloc..vec..Vec$LT$T$C$A$GT$$u20$as$u20$core..ops..drop..Drop$GT$::drop::h329a6e2f4a8aabcb():
; /Users/lewis/.rustup/toolchains/stable-aarch64-apple-darwin/lib/rustlib/src/rust/library/alloc/src/vec/mod.rs:3714
8020303a: 715d         	addi	sp, sp, -0x50
8020303c: ec2a         	sd	a0, 0x18(sp)
; /Users/lewis/.rustup/toolchains/stable-aarch64-apple-darwin/lib/rustlib/src/rust/library/alloc/src/vec/mod.rs:1724
8020303e: f02a         	sd	a0, 0x20(sp)
; /Users/lewis/.rustup/toolchains/stable-aarch64-apple-darwin/lib/rustlib/src/rust/library/alloc/src/raw_vec.rs:284
80203040: f42a         	sd	a0, 0x28(sp)
; /Users/lewis/.rustup/toolchains/stable-aarch64-apple-darwin/lib/rustlib/src/rust/library/alloc/src/raw_vec.rs:497
80203042: 650c         	ld	a1, 0x8(a0)
80203044: f82e         	sd	a1, 0x30(sp)
; /Users/lewis/.rustup/toolchains/stable-aarch64-apple-darwin/lib/rustlib/src/rust/library/core/src/ptr/non_null.rs:427
80203046: fc2e         	sd	a1, 0x38(sp)
; /Users/lewis/.rustup/toolchains/stable-aarch64-apple-darwin/lib/rustlib/src/rust/library/core/src/ptr/non_null.rs:329
80203048: e0ae         	sd	a1, 0x40(sp)
; /Users/lewis/.rustup/toolchains/stable-aarch64-apple-darwin/lib/rustlib/src/rust/library/alloc/src/vec/mod.rs:3719
8020304a: 6908         	ld	a0, 0x10(a0)
8020304c: e42a         	sd	a0, 0x8(sp)
8020304e: e4aa         	sd	a0, 0x48(sp)
80203050: 4501         	li	a0, 0x0
; /Users/lewis/.rustup/toolchains/stable-aarch64-apple-darwin/lib/rustlib/src/rust/library/core/src/ptr/mod.rs:574
80203052: e82a         	sd	a0, 0x10(sp)
80203054: a009         	j	0x80203056 <_$LT$alloc..vec..Vec$LT$T$C$A$GT$$u20$as$u20$core..ops..drop..Drop$GT$::drop::h329a6e2f4a8aabcb+0x1c>
80203056: 65a2         	ld	a1, 0x8(sp)
; /Users/lewis/.rustup/toolchains/stable-aarch64-apple-darwin/lib/rustlib/src/rust/library/core/src/ptr/mod.rs:574
80203058: 6542         	ld	a0, 0x10(sp)
8020305a: 00b50763     	beq	a0, a1, 0x80203068 <_$LT$alloc..vec..Vec$LT$T$C$A$GT$$u20$as$u20$core..ops..drop..Drop$GT$::drop::h329a6e2f4a8aabcb+0x2e>
8020305e: a009         	j	0x80203060 <_$LT$alloc..vec..Vec$LT$T$C$A$GT$$u20$as$u20$core..ops..drop..Drop$GT$::drop::h329a6e2f4a8aabcb+0x26>
80203060: 6542         	ld	a0, 0x10(sp)
80203062: 0505         	addi	a0, a0, 0x1
80203064: e82a         	sd	a0, 0x10(sp)
80203066: bfc5         	j	0x80203056 <_$LT$alloc..vec..Vec$LT$T$C$A$GT$$u20$as$u20$core..ops..drop..Drop$GT$::drop::h329a6e2f4a8aabcb+0x1c>
; /Users/lewis/.rustup/toolchains/stable-aarch64-apple-darwin/lib/rustlib/src/rust/library/alloc/src/vec/mod.rs:3722
80203068: 6161         	addi	sp, sp, 0x50
8020306a: 8082         	ret

000000008020306c <_$LT$alloc..raw_vec..RawVec$LT$T$C$A$GT$$u20$as$u20$core..ops..drop..Drop$GT$::drop::h9d991d9facf91aad>:
; _$LT$alloc..raw_vec..RawVec$LT$T$C$A$GT$$u20$as$u20$core..ops..drop..Drop$GT$::drop::h9d991d9facf91aad():
; /Users/lewis/.rustup/toolchains/stable-aarch64-apple-darwin/lib/rustlib/src/rust/library/alloc/src/raw_vec.rs:394
8020306c: 1141         	addi	sp, sp, -0x10
8020306e: e406         	sd	ra, 0x8(sp)
80203070: e02a         	sd	a0, 0x0(sp)
80203072: 4611         	li	a2, 0x4
; /Users/lewis/.rustup/toolchains/stable-aarch64-apple-darwin/lib/rustlib/src/rust/library/alloc/src/raw_vec.rs:396
80203074: 85b2         	mv	a1, a2
80203076: 00000097     	auipc	ra, 0x0
8020307a: 7e2080e7     	jalr	0x7e2(ra) <alloc::raw_vec::RawVecInner$LT$A$GT$::deallocate::h91d934a50299fa0f>
8020307e: 60a2         	ld	ra, 0x8(sp)
; /Users/lewis/.rustup/toolchains/stable-aarch64-apple-darwin/lib/rustlib/src/rust/library/alloc/src/raw_vec.rs:397
80203080: 0141         	addi	sp, sp, 0x10
80203082: 8082         	ret

0000000080203084 <_$LT$spin..mutex..spin..SpinMutexGuard$LT$T$GT$$u20$as$u20$core..ops..drop..Drop$GT$::drop::hc9d4fc636e22ec68>:
; _$LT$spin..mutex..spin..SpinMutexGuard$LT$T$GT$$u20$as$u20$core..ops..drop..Drop$GT$::drop::hc9d4fc636e22ec68():
; /Users/lewis/.cargo/registry/src/rsproxy.cn-0dccff568467c15b/spin-0.9.8/src/mutex/spin.rs:349
80203084: 1101         	addi	sp, sp, -0x20
80203086: ec06         	sd	ra, 0x18(sp)
80203088: e82a         	sd	a0, 0x10(sp)
; /Users/lewis/.cargo/registry/src/rsproxy.cn-0dccff568467c15b/spin-0.9.8/src/mutex/spin.rs:350
8020308a: 6108         	ld	a0, 0x0(a0)
8020308c: 4585         	li	a1, 0x1
8020308e: 00b107a3     	sb	a1, 0xf(sp)
80203092: 00f14603     	lbu	a2, 0xf(sp)
80203096: 4581         	li	a1, 0x0
80203098: fffff097     	auipc	ra, 0xfffff
8020309c: b64080e7     	jalr	-0x49c(ra) <free_mem_start+0xff5f8bfc>
802030a0: 60e2         	ld	ra, 0x18(sp)
; /Users/lewis/.cargo/registry/src/rsproxy.cn-0dccff568467c15b/spin-0.9.8/src/mutex/spin.rs:351
802030a2: 6105         	addi	sp, sp, 0x20
802030a4: 8082         	ret

00000000802030a6 <core::alloc::layout::Layout::repeat_packed::h2b13851816a5ff22>:
; core::alloc::layout::Layout::repeat_packed::h2b13851816a5ff22():
; /Users/lewis/.rustup/toolchains/stable-aarch64-apple-darwin/lib/rustlib/src/rust/library/core/src/alloc/layout.rs:470
802030a6: 7175         	addi	sp, sp, -0x90
802030a8: 862e         	mv	a2, a1
802030aa: e82a         	sd	a0, 0x10(sp)
802030ac: e4aa         	sd	a0, 0x48(sp)
802030ae: e8b2         	sd	a2, 0x50(sp)
; /Users/lewis/.rustup/toolchains/stable-aarch64-apple-darwin/lib/rustlib/src/rust/library/core/src/alloc/layout.rs:471
802030b0: 650c         	ld	a1, 0x8(a0)
802030b2: ecae         	sd	a1, 0x58(sp)
; /Users/lewis/.rustup/toolchains/stable-aarch64-apple-darwin/lib/rustlib/src/rust/library/core/src/num/uint_macros.rs:2451
802030b4: 02c5b533     	mulhu	a0, a1, a2
802030b8: 00a03533     	snez	a0, a0
802030bc: 02c585b3     	mul	a1, a1, a2
802030c0: ec2e         	sd	a1, 0x18(sp)
802030c2: f0ae         	sd	a1, 0x60(sp)
802030c4: 06a107a3     	sb	a0, 0x6f(sp)
; /Users/lewis/.rustup/toolchains/stable-aarch64-apple-darwin/lib/rustlib/src/rust/library/core/src/num/uint_macros.rs:2452
802030c8: f8ae         	sd	a1, 0x70(sp)
; /Users/lewis/.rustup/toolchains/stable-aarch64-apple-darwin/lib/rustlib/src/rust/library/core/src/num/mod.rs:22
802030ca: 06a10fa3     	sb	a0, 0x7f(sp)
802030ce: 07f14503     	lbu	a0, 0x7f(sp)
802030d2: 8905         	andi	a0, a0, 0x1
802030d4: e50d         	bnez	a0, 0x802030fe <.Lpcrel_hi0>
802030d6: a009         	j	0x802030d8 <core::alloc::layout::Layout::repeat_packed::h2b13851816a5ff22+0x32>
802030d8: 6542         	ld	a0, 0x10(sp)
802030da: 65e2         	ld	a1, 0x18(sp)
; /Users/lewis/.rustup/toolchains/stable-aarch64-apple-darwin/lib/rustlib/src/rust/library/core/src/num/uint_macros.rs:848
802030dc: fc2e         	sd	a1, 0x38(sp)
802030de: 4585         	li	a1, 0x1
802030e0: f82e         	sd	a1, 0x30(sp)
; /Users/lewis/.rustup/toolchains/stable-aarch64-apple-darwin/lib/rustlib/src/rust/library/core/src/alloc/layout.rs:471
802030e2: 75e2         	ld	a1, 0x38(sp)
802030e4: e02e         	sd	a1, 0x0(sp)
802030e6: e12e         	sd	a1, 0x80(sp)
; /Users/lewis/.rustup/toolchains/stable-aarch64-apple-darwin/lib/rustlib/src/rust/library/core/src/alloc/layout.rs:473
802030e8: 6108         	ld	a0, 0x0(a0)
802030ea: e42a         	sd	a0, 0x8(sp)
802030ec: e52a         	sd	a0, 0x88(sp)
; /Users/lewis/.rustup/toolchains/stable-aarch64-apple-darwin/lib/rustlib/src/rust/library/core/src/ptr/alignment.rs:95
802030ee: e0aa         	sd	a0, 0x40(sp)
802030f0: 6606         	ld	a2, 0x40(sp)
802030f2: 557d         	li	a0, -0x1
802030f4: 157e         	slli	a0, a0, 0x3f
; /Users/lewis/.rustup/toolchains/stable-aarch64-apple-darwin/lib/rustlib/src/rust/library/core/src/alloc/layout.rs:106
802030f6: 8d11         	sub	a0, a0, a2
; /Users/lewis/.rustup/toolchains/stable-aarch64-apple-darwin/lib/rustlib/src/rust/library/core/src/alloc/layout.rs:112
802030f8: 02b56163     	bltu	a0, a1, 0x8020311a <.Lpcrel_hi1>
802030fc: a811         	j	0x80203110 <.Lpcrel_hi0+0x12>

00000000802030fe <.Lpcrel_hi0>:
; .Lpcrel_hi0():
; /Users/lewis/.rustup/toolchains/stable-aarch64-apple-darwin/lib/rustlib/src/rust/library/core/src/alloc/layout.rs:475
802030fe: 00003517     	auipc	a0, 0x3
80203102: 0a250513     	addi	a0, a0, 0xa2
80203106: 610c         	ld	a1, 0x0(a0)
80203108: 6508         	ld	a0, 0x8(a0)
8020310a: f02e         	sd	a1, 0x20(sp)
8020310c: f42a         	sd	a0, 0x28(sp)
; /Users/lewis/.rustup/toolchains/stable-aarch64-apple-darwin/lib/rustlib/src/rust/library/core/src/alloc/layout.rs:471
8020310e: a005         	j	0x8020312e <.Lpcrel_hi1+0x14>
80203110: 6502         	ld	a0, 0x0(sp)
80203112: 65a2         	ld	a1, 0x8(sp)
; /Users/lewis/.rustup/toolchains/stable-aarch64-apple-darwin/lib/rustlib/src/rust/library/core/src/alloc/layout.rs:117
80203114: f02e         	sd	a1, 0x20(sp)
80203116: f42a         	sd	a0, 0x28(sp)
; /Users/lewis/.rustup/toolchains/stable-aarch64-apple-darwin/lib/rustlib/src/rust/library/core/src/alloc/layout.rs:118
80203118: a811         	j	0x8020312c <.Lpcrel_hi1+0x12>

000000008020311a <.Lpcrel_hi1>:
; .Lpcrel_hi1():
; /Users/lewis/.rustup/toolchains/stable-aarch64-apple-darwin/lib/rustlib/src/rust/library/core/src/alloc/layout.rs:113
8020311a: 00003517     	auipc	a0, 0x3
8020311e: 08650513     	addi	a0, a0, 0x86
80203122: 610c         	ld	a1, 0x0(a0)
80203124: 6508         	ld	a0, 0x8(a0)
80203126: f02e         	sd	a1, 0x20(sp)
80203128: f42a         	sd	a0, 0x28(sp)
; /Users/lewis/.rustup/toolchains/stable-aarch64-apple-darwin/lib/rustlib/src/rust/library/core/src/alloc/layout.rs:118
8020312a: a009         	j	0x8020312c <.Lpcrel_hi1+0x12>
; /Users/lewis/.rustup/toolchains/stable-aarch64-apple-darwin/lib/rustlib/src/rust/library/core/src/alloc/layout.rs:471
8020312c: a009         	j	0x8020312e <.Lpcrel_hi1+0x14>
; /Users/lewis/.rustup/toolchains/stable-aarch64-apple-darwin/lib/rustlib/src/rust/library/core/src/alloc/layout.rs:477
8020312e: 7502         	ld	a0, 0x20(sp)
80203130: 75a2         	ld	a1, 0x28(sp)
80203132: 6149         	addi	sp, sp, 0x90
80203134: 8082         	ret

0000000080203136 <core::alloc::layout::Layout::from_size_align_unchecked::h9f3e2fef90bc133c>:
; core::alloc::layout::Layout::from_size_align_unchecked::h9f3e2fef90bc133c():
; /Users/lewis/.rustup/toolchains/stable-aarch64-apple-darwin/lib/rustlib/src/rust/library/core/src/alloc/layout.rs:131
80203136: 7179         	addi	sp, sp, -0x30
80203138: f406         	sd	ra, 0x28(sp)
8020313a: e42e         	sd	a1, 0x8(sp)
8020313c: e82a         	sd	a0, 0x10(sp)
8020313e: ec2a         	sd	a0, 0x18(sp)
80203140: f02e         	sd	a1, 0x20(sp)
; /Users/lewis/.rustup/toolchains/stable-aarch64-apple-darwin/lib/rustlib/src/rust/library/core/src/ub_checks.rs:76
80203142: a009         	j	0x80203144 <core::alloc::layout::Layout::from_size_align_unchecked::h9f3e2fef90bc133c+0xe>
80203144: 65a2         	ld	a1, 0x8(sp)
80203146: 6542         	ld	a0, 0x10(sp)
; /Users/lewis/.rustup/toolchains/stable-aarch64-apple-darwin/lib/rustlib/src/rust/library/core/src/ub_checks.rs:77
80203148: 00000097     	auipc	ra, 0x0
8020314c: 014080e7     	jalr	0x14(ra) <core::alloc::layout::Layout::from_size_align_unchecked::precondition_check::hef6c16faa97b8dad>
80203150: a009         	j	0x80203152 <core::alloc::layout::Layout::from_size_align_unchecked::h9f3e2fef90bc133c+0x1c>
80203152: 65c2         	ld	a1, 0x10(sp)
80203154: 6522         	ld	a0, 0x8(sp)
80203156: 70a2         	ld	ra, 0x28(sp)
; /Users/lewis/.rustup/toolchains/stable-aarch64-apple-darwin/lib/rustlib/src/rust/library/core/src/alloc/layout.rs:143
80203158: 6145         	addi	sp, sp, 0x30
8020315a: 8082         	ret

000000008020315c <core::alloc::layout::Layout::from_size_align_unchecked::precondition_check::hef6c16faa97b8dad>:
; core::alloc::layout::Layout::from_size_align_unchecked::precondition_check::hef6c16faa97b8dad():
; /Users/lewis/.rustup/toolchains/stable-aarch64-apple-darwin/lib/rustlib/src/rust/library/core/src/ub_checks.rs:68
8020315c: 1101         	addi	sp, sp, -0x20
8020315e: ec06         	sd	ra, 0x18(sp)
80203160: e42a         	sd	a0, 0x8(sp)
80203162: e82e         	sd	a1, 0x10(sp)
; /Users/lewis/.rustup/toolchains/stable-aarch64-apple-darwin/lib/rustlib/src/rust/library/core/src/alloc/layout.rs:139
80203164: 00002097     	auipc	ra, 0x2
80203168: c9a080e7     	jalr	-0x366(ra) <core::alloc::layout::Layout::is_size_align_valid::ha623b42ba94cf257>
8020316c: ed01         	bnez	a0, 0x80203184 <.Lpcrel_hi2+0x14>
8020316e: a009         	j	0x80203170 <.Lpcrel_hi2>

0000000080203170 <.Lpcrel_hi2>:
; .Lpcrel_hi2():
; /Users/lewis/.rustup/toolchains/stable-aarch64-apple-darwin/lib/rustlib/src/rust/library/core/src/ub_checks.rs:70
80203170: 00004517     	auipc	a0, 0x4
80203174: 0c850513     	addi	a0, a0, 0xc8
80203178: 0a400593     	li	a1, 0xa4
8020317c: 00001097     	auipc	ra, 0x1
80203180: 222080e7     	jalr	0x222(ra) <core::panicking::panic_nounwind::h92acbb232d24bc37>
80203184: 60e2         	ld	ra, 0x18(sp)
; /Users/lewis/.rustup/toolchains/stable-aarch64-apple-darwin/lib/rustlib/src/rust/library/core/src/ub_checks.rs:74
80203186: 6105         	addi	sp, sp, 0x20
80203188: 8082         	ret

000000008020318a <core::alloc::layout::Layout::size::hcbc5babfd95f053f>:
; core::alloc::layout::Layout::size::hcbc5babfd95f053f():
; /Users/lewis/.rustup/toolchains/stable-aarch64-apple-darwin/lib/rustlib/src/rust/library/core/src/alloc/layout.rs:150
8020318a: 1141         	addi	sp, sp, -0x10
8020318c: e42a         	sd	a0, 0x8(sp)
; /Users/lewis/.rustup/toolchains/stable-aarch64-apple-darwin/lib/rustlib/src/rust/library/core/src/alloc/layout.rs:151
8020318e: 6508         	ld	a0, 0x8(a0)
; /Users/lewis/.rustup/toolchains/stable-aarch64-apple-darwin/lib/rustlib/src/rust/library/core/src/alloc/layout.rs:152
80203190: 0141         	addi	sp, sp, 0x10
80203192: 8082         	ret

0000000080203194 <core::alloc::layout::Layout::align::h66695ef8a40546bc>:
; core::alloc::layout::Layout::align::h66695ef8a40546bc():
; /Users/lewis/.rustup/toolchains/stable-aarch64-apple-darwin/lib/rustlib/src/rust/library/core/src/alloc/layout.rs:163
80203194: 1101         	addi	sp, sp, -0x20
80203196: e82a         	sd	a0, 0x10(sp)
; /Users/lewis/.rustup/toolchains/stable-aarch64-apple-darwin/lib/rustlib/src/rust/library/core/src/alloc/layout.rs:164
80203198: 6108         	ld	a0, 0x0(a0)
8020319a: ec2a         	sd	a0, 0x18(sp)
; /Users/lewis/.rustup/toolchains/stable-aarch64-apple-darwin/lib/rustlib/src/rust/library/core/src/ptr/alignment.rs:95
8020319c: e42a         	sd	a0, 0x8(sp)
8020319e: 6522         	ld	a0, 0x8(sp)
; /Users/lewis/.rustup/toolchains/stable-aarch64-apple-darwin/lib/rustlib/src/rust/library/core/src/alloc/layout.rs:165
802031a0: 6105         	addi	sp, sp, 0x20
802031a2: 8082         	ret

00000000802031a4 <core::alloc::layout::Layout::repeat::h07a090eaabe4fac0>:
; core::alloc::layout::Layout::repeat::h07a090eaabe4fac0():
; /Users/lewis/.rustup/toolchains/stable-aarch64-apple-darwin/lib/rustlib/src/rust/library/core/src/alloc/layout.rs:381
802031a4: 7131         	addi	sp, sp, -0xc0
802031a6: fd06         	sd	ra, 0xb8(sp)
802031a8: e432         	sd	a2, 0x8(sp)
802031aa: e82e         	sd	a1, 0x10(sp)
802031ac: 85aa         	mv	a1, a0
802031ae: 6542         	ld	a0, 0x10(sp)
802031b0: ec2e         	sd	a1, 0x18(sp)
802031b2: f8aa         	sd	a0, 0x70(sp)
802031b4: fcb2         	sd	a2, 0x78(sp)
; /Users/lewis/.rustup/toolchains/stable-aarch64-apple-darwin/lib/rustlib/src/rust/library/core/src/alloc/layout.rs:345
802031b6: 610c         	ld	a1, 0x0(a0)
802031b8: e12e         	sd	a1, 0x80(sp)
; /Users/lewis/.rustup/toolchains/stable-aarch64-apple-darwin/lib/rustlib/src/rust/library/core/src/ptr/alignment.rs:95
802031ba: f4ae         	sd	a1, 0x68(sp)
802031bc: 7626         	ld	a2, 0x68(sp)
802031be: f032         	sd	a2, 0x20(sp)
802031c0: e532         	sd	a2, 0x88(sp)
; /Users/lewis/.rustup/toolchains/stable-aarch64-apple-darwin/lib/rustlib/src/rust/library/core/src/alloc/layout.rs:324
802031c2: fff60593     	addi	a1, a2, -0x1
802031c6: e92e         	sd	a1, 0x90(sp)
; /Users/lewis/.rustup/toolchains/stable-aarch64-apple-darwin/lib/rustlib/src/rust/library/core/src/alloc/layout.rs:325
802031c8: 6508         	ld	a0, 0x8(a0)
802031ca: 952e         	add	a0, a0, a1
802031cc: 4581         	li	a1, 0x0
802031ce: 8d91         	sub	a1, a1, a2
802031d0: 8d6d         	and	a0, a0, a1
802031d2: f42a         	sd	a0, 0x28(sp)
802031d4: ed2a         	sd	a0, 0x98(sp)
; /Users/lewis/.rustup/toolchains/stable-aarch64-apple-darwin/lib/rustlib/src/rust/library/core/src/ub_checks.rs:76
802031d6: a009         	j	0x802031d8 <core::alloc::layout::Layout::repeat::h07a090eaabe4fac0+0x34>
802031d8: 7582         	ld	a1, 0x20(sp)
802031da: 7522         	ld	a0, 0x28(sp)
; /Users/lewis/.rustup/toolchains/stable-aarch64-apple-darwin/lib/rustlib/src/rust/library/core/src/ub_checks.rs:77
802031dc: 00000097     	auipc	ra, 0x0
802031e0: f80080e7     	jalr	-0x80(ra) <core::alloc::layout::Layout::from_size_align_unchecked::precondition_check::hef6c16faa97b8dad>
802031e4: a009         	j	0x802031e6 <core::alloc::layout::Layout::repeat::h07a090eaabe4fac0+0x42>
802031e6: 65a2         	ld	a1, 0x8(sp)
802031e8: 7502         	ld	a0, 0x20(sp)
802031ea: 7622         	ld	a2, 0x28(sp)
; /Users/lewis/.rustup/toolchains/stable-aarch64-apple-darwin/lib/rustlib/src/rust/library/core/src/alloc/layout.rs:142
802031ec: fc32         	sd	a2, 0x38(sp)
802031ee: f82a         	sd	a0, 0x30(sp)
802031f0: 1808         	addi	a0, sp, 0x30
; /Users/lewis/.rustup/toolchains/stable-aarch64-apple-darwin/lib/rustlib/src/rust/library/core/src/alloc/layout.rs:383
802031f2: 00000097     	auipc	ra, 0x0
802031f6: eb4080e7     	jalr	-0x14c(ra) <core::alloc::layout::Layout::repeat_packed::h2b13851816a5ff22>
802031fa: e0aa         	sd	a0, 0x40(sp)
802031fc: e4ae         	sd	a1, 0x48(sp)
802031fe: 6506         	ld	a0, 0x40(sp)
80203200: c505         	beqz	a0, 0x80203228 <core::alloc::layout::Layout::repeat::h07a090eaabe4fac0+0x84>
80203202: a009         	j	0x80203204 <core::alloc::layout::Layout::repeat::h07a090eaabe4fac0+0x60>
80203204: 65e2         	ld	a1, 0x18(sp)
80203206: 7522         	ld	a0, 0x28(sp)
; /Users/lewis/.rustup/toolchains/stable-aarch64-apple-darwin/lib/rustlib/src/rust/library/core/src/alloc/layout.rs:383
80203208: 6686         	ld	a3, 0x40(sp)
8020320a: 6626         	ld	a2, 0x48(sp)
8020320c: f136         	sd	a3, 0xa0(sp)
8020320e: f532         	sd	a2, 0xa8(sp)
80203210: 1818         	addi	a4, sp, 0x30
; /Users/lewis/.rustup/toolchains/stable-aarch64-apple-darwin/lib/rustlib/src/rust/library/core/src/alloc/layout.rs:384
80203212: f93a         	sd	a4, 0xb0(sp)
80203214: e8b6         	sd	a3, 0x50(sp)
80203216: ecb2         	sd	a2, 0x58(sp)
80203218: f0aa         	sd	a0, 0x60(sp)
8020321a: 7506         	ld	a0, 0x60(sp)
8020321c: e988         	sd	a0, 0x10(a1)
8020321e: 6566         	ld	a0, 0x58(sp)
80203220: e588         	sd	a0, 0x8(a1)
80203222: 6546         	ld	a0, 0x50(sp)
80203224: e188         	sd	a0, 0x0(a1)
; /Users/lewis/.rustup/toolchains/stable-aarch64-apple-darwin/lib/rustlib/src/rust/library/core/src/alloc/layout.rs:383
80203226: a029         	j	0x80203230 <core::alloc::layout::Layout::repeat::h07a090eaabe4fac0+0x8c>
80203228: 65e2         	ld	a1, 0x18(sp)
8020322a: 4501         	li	a0, 0x0
; /Users/lewis/.rustup/toolchains/stable-aarch64-apple-darwin/lib/rustlib/src/rust/library/core/src/alloc/layout.rs:386
8020322c: e188         	sd	a0, 0x0(a1)
; /Users/lewis/.rustup/toolchains/stable-aarch64-apple-darwin/lib/rustlib/src/rust/library/core/src/alloc/layout.rs:383
8020322e: a009         	j	0x80203230 <core::alloc::layout::Layout::repeat::h07a090eaabe4fac0+0x8c>
80203230: 70ea         	ld	ra, 0xb8(sp)
; /Users/lewis/.rustup/toolchains/stable-aarch64-apple-darwin/lib/rustlib/src/rust/library/core/src/alloc/layout.rs:388
80203232: 6129         	addi	sp, sp, 0xc0
80203234: 8082         	ret

0000000080203236 <core::num::_$LT$impl$u20$usize$GT$::unchecked_add::precondition_check::h7bef1ddda2aceb1d>:
; core::num::_$LT$impl$u20$usize$GT$::unchecked_add::precondition_check::h7bef1ddda2aceb1d():
; /Users/lewis/.rustup/toolchains/stable-aarch64-apple-darwin/lib/rustlib/src/rust/library/core/src/ub_checks.rs:68
80203236: 7179         	addi	sp, sp, -0x30
80203238: e42e         	sd	a1, 0x8(sp)
8020323a: 85aa         	mv	a1, a0
8020323c: 6522         	ld	a0, 0x8(sp)
8020323e: e82e         	sd	a1, 0x10(sp)
80203240: ec2a         	sd	a0, 0x18(sp)
; /Users/lewis/.rustup/toolchains/stable-aarch64-apple-darwin/lib/rustlib/src/rust/library/core/src/num/uint_macros.rs:2253
80203242: 952e         	add	a0, a0, a1
80203244: 00b53633     	sltu	a2, a0, a1
80203248: f02a         	sd	a0, 0x20(sp)
8020324a: 02c107a3     	sb	a2, 0x2f(sp)
; /Users/lewis/.rustup/toolchains/stable-aarch64-apple-darwin/lib/rustlib/src/rust/library/core/src/num/uint_macros.rs:568
8020324e: 00b56563     	bltu	a0, a1, 0x80203258 <.Lpcrel_hi0>
80203252: a009         	j	0x80203254 <core::num::_$LT$impl$u20$usize$GT$::unchecked_add::precondition_check::h7bef1ddda2aceb1d+0x1e>
; /Users/lewis/.rustup/toolchains/stable-aarch64-apple-darwin/lib/rustlib/src/rust/library/core/src/ub_checks.rs:74
80203254: 6145         	addi	sp, sp, 0x30
80203256: 8082         	ret

0000000080203258 <.Lpcrel_hi0>:
; .Lpcrel_hi0():
; /Users/lewis/.rustup/toolchains/stable-aarch64-apple-darwin/lib/rustlib/src/rust/library/core/src/ub_checks.rs:70
80203258: 00004517     	auipc	a0, 0x4
8020325c: 08450513     	addi	a0, a0, 0x84
80203260: 04500593     	li	a1, 0x45
80203264: 00001097     	auipc	ra, 0x1
80203268: 13a080e7     	jalr	0x13a(ra) <core::panicking::panic_nounwind::h92acbb232d24bc37>

000000008020326c <core::num::_$LT$impl$u20$usize$GT$::unchecked_mul::precondition_check::h708286ed6a8f827e>:
; core::num::_$LT$impl$u20$usize$GT$::unchecked_mul::precondition_check::h708286ed6a8f827e():
; /Users/lewis/.rustup/toolchains/stable-aarch64-apple-darwin/lib/rustlib/src/rust/library/core/src/ub_checks.rs:68
8020326c: 1101         	addi	sp, sp, -0x20
8020326e: 86ae         	mv	a3, a1
80203270: 862a         	mv	a2, a0
80203272: e032         	sd	a2, 0x0(sp)
80203274: e436         	sd	a3, 0x8(sp)
; /Users/lewis/.rustup/toolchains/stable-aarch64-apple-darwin/lib/rustlib/src/rust/library/core/src/num/uint_macros.rs:2451
80203276: 02d63533     	mulhu	a0, a2, a3
8020327a: 00a035b3     	snez	a1, a0
8020327e: 02d60633     	mul	a2, a2, a3
80203282: e832         	sd	a2, 0x10(sp)
80203284: 00b10fa3     	sb	a1, 0x1f(sp)
; /Users/lewis/.rustup/toolchains/stable-aarch64-apple-darwin/lib/rustlib/src/rust/library/core/src/num/uint_macros.rs:917
80203288: e501         	bnez	a0, 0x80203290 <.Lpcrel_hi1>
8020328a: a009         	j	0x8020328c <core::num::_$LT$impl$u20$usize$GT$::unchecked_mul::precondition_check::h708286ed6a8f827e+0x20>
; /Users/lewis/.rustup/toolchains/stable-aarch64-apple-darwin/lib/rustlib/src/rust/library/core/src/ub_checks.rs:74
8020328c: 6105         	addi	sp, sp, 0x20
8020328e: 8082         	ret

0000000080203290 <.Lpcrel_hi1>:
; .Lpcrel_hi1():
; /Users/lewis/.rustup/toolchains/stable-aarch64-apple-darwin/lib/rustlib/src/rust/library/core/src/ub_checks.rs:70
80203290: 00004517     	auipc	a0, 0x4
80203294: 09150513     	addi	a0, a0, 0x91
80203298: 04500593     	li	a1, 0x45
8020329c: 00001097     	auipc	ra, 0x1
802032a0: 102080e7     	jalr	0x102(ra) <core::panicking::panic_nounwind::h92acbb232d24bc37>

00000000802032a4 <core::num::_$LT$impl$u20$usize$GT$::unchecked_sub::precondition_check::h2ffcb4dd039d9e9e>:
; core::num::_$LT$impl$u20$usize$GT$::unchecked_sub::precondition_check::h2ffcb4dd039d9e9e():
; /Users/lewis/.rustup/toolchains/stable-aarch64-apple-darwin/lib/rustlib/src/rust/library/core/src/ub_checks.rs:68
802032a4: 1101         	addi	sp, sp, -0x20
802032a6: e02a         	sd	a0, 0x0(sp)
802032a8: e42e         	sd	a1, 0x8(sp)
; /Users/lewis/.rustup/toolchains/stable-aarch64-apple-darwin/lib/rustlib/src/rust/library/core/src/num/uint_macros.rs:2352
802032aa: 40b506b3     	sub	a3, a0, a1
802032ae: 00b53633     	sltu	a2, a0, a1
802032b2: e836         	sd	a3, 0x10(sp)
802032b4: 00c10fa3     	sb	a2, 0x1f(sp)
; /Users/lewis/.rustup/toolchains/stable-aarch64-apple-darwin/lib/rustlib/src/rust/library/core/src/num/uint_macros.rs:760
802032b8: 00b56563     	bltu	a0, a1, 0x802032c2 <.Lpcrel_hi2>
802032bc: a009         	j	0x802032be <core::num::_$LT$impl$u20$usize$GT$::unchecked_sub::precondition_check::h2ffcb4dd039d9e9e+0x1a>
; /Users/lewis/.rustup/toolchains/stable-aarch64-apple-darwin/lib/rustlib/src/rust/library/core/src/ub_checks.rs:74
802032be: 6105         	addi	sp, sp, 0x20
802032c0: 8082         	ret

00000000802032c2 <.Lpcrel_hi2>:
; .Lpcrel_hi2():
; /Users/lewis/.rustup/toolchains/stable-aarch64-apple-darwin/lib/rustlib/src/rust/library/core/src/ub_checks.rs:70
802032c2: 00004517     	auipc	a0, 0x4
802032c6: 0a450513     	addi	a0, a0, 0xa4
802032ca: 04500593     	li	a1, 0x45
802032ce: 00001097     	auipc	ra, 0x1
802032d2: 0d0080e7     	jalr	0xd0(ra) <core::panicking::panic_nounwind::h92acbb232d24bc37>

00000000802032d6 <core::num::_$LT$impl$u20$usize$GT$::next_power_of_two::hb936a42f8f02e7b9>:
; core::num::_$LT$impl$u20$usize$GT$::next_power_of_two::hb936a42f8f02e7b9():
; /Users/lewis/.rustup/toolchains/stable-aarch64-apple-darwin/lib/rustlib/src/rust/library/core/src/num/uint_macros.rs:3046
802032d6: 7179         	addi	sp, sp, -0x30
802032d8: e42a         	sd	a0, 0x8(sp)
802032da: ec2a         	sd	a0, 0x18(sp)
802032dc: 4589         	li	a1, 0x2
; /Users/lewis/.rustup/toolchains/stable-aarch64-apple-darwin/lib/rustlib/src/rust/library/core/src/num/uint_macros.rs:3014
802032de: 0ab56063     	bltu	a0, a1, 0x8020337e <core::num::_$LT$impl$u20$usize$GT$::next_power_of_two::hb936a42f8f02e7b9+0xa8>
802032e2: a009         	j	0x802032e4 <core::num::_$LT$impl$u20$usize$GT$::next_power_of_two::hb936a42f8f02e7b9+0xe>
802032e4: 6522         	ld	a0, 0x8(sp)
; /Users/lewis/.rustup/toolchains/stable-aarch64-apple-darwin/lib/rustlib/src/rust/library/core/src/num/uint_macros.rs:3016
802032e6: 157d         	addi	a0, a0, -0x1
802032e8: f02a         	sd	a0, 0x20(sp)
; /Users/lewis/.rustup/toolchains/stable-aarch64-apple-darwin/lib/rustlib/src/rust/library/core/src/num/uint_macros.rs:3021
802032ea: 00155593     	srli	a1, a0, 0x1
802032ee: 8d4d         	or	a0, a0, a1
802032f0: 00255593     	srli	a1, a0, 0x2
802032f4: 8d4d         	or	a0, a0, a1
802032f6: 00455593     	srli	a1, a0, 0x4
802032fa: 8d4d         	or	a0, a0, a1
802032fc: 00855593     	srli	a1, a0, 0x8
80203300: 8d4d         	or	a0, a0, a1
80203302: 01055593     	srli	a1, a0, 0x10
80203306: 8d4d         	or	a0, a0, a1
80203308: 02055593     	srli	a1, a0, 0x20
8020330c: 8d4d         	or	a0, a0, a1
8020330e: fff54513     	not	a0, a0
80203312: 00155593     	srli	a1, a0, 0x1
80203316: 55555637     	lui	a2, 0x55555
8020331a: 5556061b     	addiw	a2, a2, 0x555
8020331e: 02061693     	slli	a3, a2, 0x20
80203322: 9636         	add	a2, a2, a3
80203324: 8df1         	and	a1, a1, a2
80203326: 40b505b3     	sub	a1, a0, a1
8020332a: 33333537     	lui	a0, 0x33333
8020332e: 3335051b     	addiw	a0, a0, 0x333
80203332: 02051613     	slli	a2, a0, 0x20
80203336: 962a         	add	a2, a2, a0
80203338: 00c5f533     	and	a0, a1, a2
8020333c: 8189         	srli	a1, a1, 0x2
8020333e: 8df1         	and	a1, a1, a2
80203340: 952e         	add	a0, a0, a1
80203342: 00455593     	srli	a1, a0, 0x4
80203346: 952e         	add	a0, a0, a1
80203348: 0f0f15b7     	lui	a1, 0xf0f1
8020334c: f0f5859b     	addiw	a1, a1, -0xf1
80203350: 02059613     	slli	a2, a1, 0x20
80203354: 95b2         	add	a1, a1, a2
80203356: 8d6d         	and	a0, a0, a1
80203358: 010105b7     	lui	a1, 0x1010
8020335c: 1015859b     	addiw	a1, a1, 0x101
80203360: 02059613     	slli	a2, a1, 0x20
80203364: 95b2         	add	a1, a1, a2
80203366: 02b50533     	mul	a0, a0, a1
8020336a: 9161         	srli	a0, a0, 0x38
8020336c: d42a         	sw	a0, 0x28(sp)
8020336e: 02816583     	lwu	a1, 0x28(sp)
80203372: d62e         	sw	a1, 0x2c(sp)
80203374: 557d         	li	a0, -0x1
; /Users/lewis/.rustup/toolchains/stable-aarch64-apple-darwin/lib/rustlib/src/rust/library/core/src/num/uint_macros.rs:3022
80203376: 00b55533     	srl	a0, a0, a1
8020337a: e82a         	sd	a0, 0x10(sp)
; /Users/lewis/.rustup/toolchains/stable-aarch64-apple-darwin/lib/rustlib/src/rust/library/core/src/num/uint_macros.rs:3023
8020337c: a021         	j	0x80203384 <core::num::_$LT$impl$u20$usize$GT$::next_power_of_two::hb936a42f8f02e7b9+0xae>
8020337e: 4501         	li	a0, 0x0
; /Users/lewis/.rustup/toolchains/stable-aarch64-apple-darwin/lib/rustlib/src/rust/library/core/src/num/uint_macros.rs:3014
80203380: e82a         	sd	a0, 0x10(sp)
; /Users/lewis/.rustup/toolchains/stable-aarch64-apple-darwin/lib/rustlib/src/rust/library/core/src/num/uint_macros.rs:3023
80203382: a009         	j	0x80203384 <core::num::_$LT$impl$u20$usize$GT$::next_power_of_two::hb936a42f8f02e7b9+0xae>
; /Users/lewis/.rustup/toolchains/stable-aarch64-apple-darwin/lib/rustlib/src/rust/library/core/src/num/uint_macros.rs:3047
80203384: 6542         	ld	a0, 0x10(sp)
80203386: 0505         	addi	a0, a0, 0x1
80203388: e02a         	sd	a0, 0x0(sp)
8020338a: c509         	beqz	a0, 0x80203394 <.Lpcrel_hi3>
8020338c: a009         	j	0x8020338e <core::num::_$LT$impl$u20$usize$GT$::next_power_of_two::hb936a42f8f02e7b9+0xb8>
8020338e: 6502         	ld	a0, 0x0(sp)
; /Users/lewis/.rustup/toolchains/stable-aarch64-apple-darwin/lib/rustlib/src/rust/library/core/src/num/uint_macros.rs:3048
80203390: 6145         	addi	sp, sp, 0x30
80203392: 8082         	ret

0000000080203394 <.Lpcrel_hi3>:
; .Lpcrel_hi3():
; /Users/lewis/.rustup/toolchains/stable-aarch64-apple-darwin/lib/rustlib/src/rust/library/core/src/num/uint_macros.rs:3047
80203394: 00004517     	auipc	a0, 0x4
80203398: 08450513     	addi	a0, a0, 0x84
8020339c: 00002097     	auipc	ra, 0x2
802033a0: a96080e7     	jalr	-0x56a(ra) <core::panicking::panic_const::panic_const_add_overflow::h1eeea1441bfc0f05>

00000000802033a4 <core::fmt::Arguments::new_v1_formatted::h08eb7517a36825be>:
; core::fmt::Arguments::new_v1_formatted::h08eb7517a36825be():
; /Users/lewis/.rustup/toolchains/stable-aarch64-apple-darwin/lib/rustlib/src/rust/library/core/src/fmt/mod.rs:361
802033a4: 715d         	addi	sp, sp, -0x50
802033a6: ec2e         	sd	a1, 0x18(sp)
802033a8: f032         	sd	a2, 0x20(sp)
802033aa: f436         	sd	a3, 0x28(sp)
802033ac: f83a         	sd	a4, 0x30(sp)
802033ae: fc3e         	sd	a5, 0x38(sp)
802033b0: e0c2         	sd	a6, 0x40(sp)
; /Users/lewis/.rustup/toolchains/stable-aarch64-apple-darwin/lib/rustlib/src/rust/library/core/src/fmt/mod.rs:367
802033b2: e43e         	sd	a5, 0x8(sp)
802033b4: e842         	sd	a6, 0x10(sp)
802033b6: e10c         	sd	a1, 0x0(a0)
802033b8: e510         	sd	a2, 0x8(a0)
802033ba: 6622         	ld	a2, 0x8(sp)
802033bc: 65c2         	ld	a1, 0x10(sp)
802033be: f110         	sd	a2, 0x20(a0)
802033c0: f50c         	sd	a1, 0x28(a0)
802033c2: e914         	sd	a3, 0x10(a0)
802033c4: ed18         	sd	a4, 0x18(a0)
; /Users/lewis/.rustup/toolchains/stable-aarch64-apple-darwin/lib/rustlib/src/rust/library/core/src/fmt/mod.rs:368
802033c6: 6161         	addi	sp, sp, 0x50
802033c8: 8082         	ret

00000000802033ca <core::fmt::Formatter::write_fmt::h345ead9e7357cf79>:
; core::fmt::Formatter::write_fmt::h345ead9e7357cf79():
; /Users/lewis/.rustup/toolchains/stable-aarch64-apple-darwin/lib/rustlib/src/rust/library/core/src/fmt/mod.rs:1662
802033ca: 7155         	addi	sp, sp, -0xd0
802033cc: e586         	sd	ra, 0xc8(sp)
802033ce: e42e         	sd	a1, 0x8(sp)
802033d0: e82a         	sd	a0, 0x10(sp)
802033d2: f0aa         	sd	a0, 0x60(sp)
; /Users/lewis/.rustup/toolchains/stable-aarch64-apple-darwin/lib/rustlib/src/rust/library/core/src/fmt/mod.rs:1663
802033d4: f4ae         	sd	a1, 0x68(sp)
; /Users/lewis/.rustup/toolchains/stable-aarch64-apple-darwin/lib/rustlib/src/rust/library/core/src/fmt/mod.rs:442
802033d6: 6188         	ld	a0, 0x0(a1)
802033d8: ec2a         	sd	a0, 0x18(sp)
802033da: 6588         	ld	a0, 0x8(a1)
802033dc: f02a         	sd	a0, 0x20(sp)
802033de: 6d8c         	ld	a1, 0x18(a1)
802033e0: f42e         	sd	a1, 0x28(sp)
; /Users/lewis/.rustup/toolchains/stable-aarch64-apple-darwin/lib/rustlib/src/rust/library/core/src/fmt/mod.rs:443
802033e2: e509         	bnez	a0, 0x802033ec <core::fmt::Formatter::write_fmt::h345ead9e7357cf79+0x22>
802033e4: a009         	j	0x802033e6 <core::fmt::Formatter::write_fmt::h345ead9e7357cf79+0x1c>
802033e6: 7522         	ld	a0, 0x28(sp)
; /Users/lewis/.rustup/toolchains/stable-aarch64-apple-darwin/lib/rustlib/src/rust/library/core/src/fmt/mod.rs:443
802033e8: c519         	beqz	a0, 0x802033f6 <core::fmt::Formatter::write_fmt::h345ead9e7357cf79+0x2c>
802033ea: a819         	j	0x80203400 <.Lpcrel_hi0>
802033ec: 7502         	ld	a0, 0x20(sp)
802033ee: 4585         	li	a1, 0x1
; /Users/lewis/.rustup/toolchains/stable-aarch64-apple-darwin/lib/rustlib/src/rust/library/core/src/fmt/mod.rs:444
802033f0: 02b50663     	beq	a0, a1, 0x8020341c <.Lpcrel_hi0+0x1c>
802033f4: a031         	j	0x80203400 <.Lpcrel_hi0>
802033f6: 4505         	li	a0, 0x1
; /Users/lewis/.rustup/toolchains/stable-aarch64-apple-darwin/lib/rustlib/src/rust/library/core/src/fmt/mod.rs:443
802033f8: e4aa         	sd	a0, 0x48(sp)
802033fa: 4501         	li	a0, 0x0
802033fc: e8aa         	sd	a0, 0x50(sp)
802033fe: a811         	j	0x80203412 <.Lpcrel_hi0+0x12>

0000000080203400 <.Lpcrel_hi0>:
; .Lpcrel_hi0():
; /Users/lewis/.rustup/toolchains/stable-aarch64-apple-darwin/lib/rustlib/src/rust/library/core/src/fmt/mod.rs:445
80203400: 00003517     	auipc	a0, 0x3
80203404: da050513     	addi	a0, a0, -0x260
80203408: 610c         	ld	a1, 0x0(a0)
8020340a: 6508         	ld	a0, 0x8(a0)
8020340c: e4ae         	sd	a1, 0x48(sp)
8020340e: e8aa         	sd	a0, 0x50(sp)
80203410: a009         	j	0x80203412 <.Lpcrel_hi0+0x12>
80203412: 00a8         	addi	a0, sp, 0x48
; /Users/lewis/.rustup/toolchains/stable-aarch64-apple-darwin/lib/rustlib/src/rust/library/core/src/fmt/mod.rs:454
80203414: fcaa         	sd	a0, 0x78(sp)
; /Users/lewis/.rustup/toolchains/stable-aarch64-apple-darwin/lib/rustlib/src/rust/library/core/src/option.rs:607
80203416: 6526         	ld	a0, 0x48(sp)
; /Users/lewis/.rustup/toolchains/stable-aarch64-apple-darwin/lib/rustlib/src/rust/library/core/src/macros/mod.rs:475
80203418: ed01         	bnez	a0, 0x80203430 <.Lpcrel_hi0+0x30>
8020341a: a839         	j	0x80203438 <.Lpcrel_hi0+0x38>
8020341c: 7522         	ld	a0, 0x28(sp)
; /Users/lewis/.rustup/toolchains/stable-aarch64-apple-darwin/lib/rustlib/src/rust/library/core/src/fmt/mod.rs:444
8020341e: f16d         	bnez	a0, 0x80203400 <.Lpcrel_hi0>
80203420: a009         	j	0x80203422 <.Lpcrel_hi0+0x22>
80203422: 6562         	ld	a0, 0x18(sp)
; /Users/lewis/.rustup/toolchains/stable-aarch64-apple-darwin/lib/rustlib/src/rust/library/core/src/fmt/mod.rs:444
80203424: f8aa         	sd	a0, 0x70(sp)
80203426: 610c         	ld	a1, 0x0(a0)
80203428: 6508         	ld	a0, 0x8(a0)
8020342a: e4ae         	sd	a1, 0x48(sp)
8020342c: e8aa         	sd	a0, 0x50(sp)
8020342e: b7d5         	j	0x80203412 <.Lpcrel_hi0+0x12>
80203430: 4505         	li	a0, 0x1
; /Users/lewis/.rustup/toolchains/stable-aarch64-apple-darwin/lib/rustlib/src/rust/library/core/src/macros/mod.rs:476
80203432: 04a10fa3     	sb	a0, 0x5f(sp)
80203436: a029         	j	0x80203440 <.Lpcrel_hi0+0x40>
80203438: 4501         	li	a0, 0x0
; /Users/lewis/.rustup/toolchains/stable-aarch64-apple-darwin/lib/rustlib/src/rust/library/core/src/macros/mod.rs:477
8020343a: 04a10fa3     	sb	a0, 0x5f(sp)
8020343e: a009         	j	0x80203440 <.Lpcrel_hi0+0x40>
80203440: 4501         	li	a0, 0x0
; /Users/lewis/.rustup/toolchains/stable-aarch64-apple-darwin/lib/rustlib/src/rust/library/core/src/fmt/mod.rs:454
80203442: 08a103a3     	sb	a0, 0x87(sp)
80203446: 08714503     	lbu	a0, 0x87(sp)
8020344a: 8905         	andi	a0, a0, 0x1
8020344c: e119         	bnez	a0, 0x80203452 <.Lpcrel_hi0+0x52>
8020344e: a009         	j	0x80203450 <.Lpcrel_hi0+0x50>
; /Users/lewis/.rustup/toolchains/stable-aarch64-apple-darwin/lib/rustlib/src/rust/library/core/src/fmt/mod.rs:1663
80203450: a801         	j	0x80203460 <.Lpcrel_hi0+0x60>
; /Users/lewis/.rustup/toolchains/stable-aarch64-apple-darwin/lib/rustlib/src/rust/library/core/src/fmt/mod.rs:454
80203452: 65a6         	ld	a1, 0x48(sp)
80203454: 6546         	ld	a0, 0x50(sp)
80203456: fc2e         	sd	a1, 0x38(sp)
80203458: e0aa         	sd	a0, 0x40(sp)
; /Users/lewis/.rustup/toolchains/stable-aarch64-apple-darwin/lib/rustlib/src/rust/library/core/src/fmt/mod.rs:1663
8020345a: 7562         	ld	a0, 0x38(sp)
8020345c: e915         	bnez	a0, 0x80203490 <.Lpcrel_hi0+0x90>
8020345e: a009         	j	0x80203460 <.Lpcrel_hi0+0x60>
80203460: 6622         	ld	a2, 0x8(sp)
80203462: 65c2         	ld	a1, 0x10(sp)
; /Users/lewis/.rustup/toolchains/stable-aarch64-apple-darwin/lib/rustlib/src/rust/library/core/src/fmt/mod.rs:1666
80203464: 7188         	ld	a0, 0x20(a1)
80203466: 758c         	ld	a1, 0x28(a1)
80203468: 7614         	ld	a3, 0x28(a2)
8020346a: e1b6         	sd	a3, 0xc0(sp)
8020346c: 7214         	ld	a3, 0x20(a2)
8020346e: fd36         	sd	a3, 0xb8(sp)
80203470: 6e14         	ld	a3, 0x18(a2)
80203472: f936         	sd	a3, 0xb0(sp)
80203474: 6a14         	ld	a3, 0x10(a2)
80203476: f536         	sd	a3, 0xa8(sp)
80203478: 6614         	ld	a3, 0x8(a2)
8020347a: f136         	sd	a3, 0xa0(sp)
8020347c: 6210         	ld	a2, 0x0(a2)
8020347e: ed32         	sd	a2, 0x98(sp)
80203480: 0930         	addi	a2, sp, 0x98
80203482: 00001097     	auipc	ra, 0x1
80203486: 148080e7     	jalr	0x148(ra) <core::fmt::write::h1d69cb434d0bed94>
8020348a: 02a10ba3     	sb	a0, 0x37(sp)
8020348e: a829         	j	0x802034a8 <.Lpcrel_hi0+0xa8>
80203490: 66c2         	ld	a3, 0x10(sp)
; /Users/lewis/.rustup/toolchains/stable-aarch64-apple-darwin/lib/rustlib/src/rust/library/core/src/fmt/mod.rs:1663
80203492: 75e2         	ld	a1, 0x38(sp)
80203494: 6606         	ld	a2, 0x40(sp)
80203496: e52e         	sd	a1, 0x88(sp)
80203498: e932         	sd	a2, 0x90(sp)
; /Users/lewis/.rustup/toolchains/stable-aarch64-apple-darwin/lib/rustlib/src/rust/library/core/src/fmt/mod.rs:1664
8020349a: 7288         	ld	a0, 0x20(a3)
8020349c: 7694         	ld	a3, 0x28(a3)
8020349e: 6e94         	ld	a3, 0x18(a3)
802034a0: 9682         	jalr	a3
802034a2: 02a10ba3     	sb	a0, 0x37(sp)
802034a6: a009         	j	0x802034a8 <.Lpcrel_hi0+0xa8>
; /Users/lewis/.rustup/toolchains/stable-aarch64-apple-darwin/lib/rustlib/src/rust/library/core/src/fmt/mod.rs:1668
802034a8: 03714503     	lbu	a0, 0x37(sp)
802034ac: 8905         	andi	a0, a0, 0x1
802034ae: 60ae         	ld	ra, 0xc8(sp)
802034b0: 6169         	addi	sp, sp, 0xd0
802034b2: 8082         	ret

00000000802034b4 <_$LT$core..fmt..Error$u20$as$u20$core..fmt..Debug$GT$::fmt::h3fe1a379a503372f>:
; _$LT$core..fmt..Error$u20$as$u20$core..fmt..Debug$GT$::fmt::h3fe1a379a503372f():
; /Users/lewis/.rustup/toolchains/stable-aarch64-apple-darwin/lib/rustlib/src/rust/library/core/src/fmt/mod.rs:102
802034b4: 1101         	addi	sp, sp, -0x20
802034b6: ec06         	sd	ra, 0x18(sp)
802034b8: e02e         	sd	a1, 0x0(sp)
802034ba: 85aa         	mv	a1, a0
802034bc: 6502         	ld	a0, 0x0(sp)
802034be: e42e         	sd	a1, 0x8(sp)
802034c0: e82a         	sd	a0, 0x10(sp)

00000000802034c2 <.Lpcrel_hi1>:
; .Lpcrel_hi1():
; /Users/lewis/.rustup/toolchains/stable-aarch64-apple-darwin/lib/rustlib/src/rust/library/core/src/fmt/mod.rs:102
802034c2: 00004597     	auipc	a1, 0x4
802034c6: f6e58593     	addi	a1, a1, -0x92
802034ca: 4615         	li	a2, 0x5
802034cc: 00001097     	auipc	ra, 0x1
802034d0: 6f4080e7     	jalr	0x6f4(ra) <_$LT$core..fmt..Formatter$u20$as$u20$core..fmt..Write$GT$::write_str::ha1e2fed410c95c0e>
802034d4: 60e2         	ld	ra, 0x18(sp)
802034d6: 6105         	addi	sp, sp, 0x20
802034d8: 8082         	ret

00000000802034da <_$LT$i32$u20$as$u20$core..iter..range..Step$GT$::forward_unchecked::h273c2180868752b8>:
; _$LT$i32$u20$as$u20$core..iter..range..Step$GT$::forward_unchecked::h273c2180868752b8():
; /Users/lewis/.rustup/toolchains/stable-aarch64-apple-darwin/lib/rustlib/src/rust/library/core/src/iter/range.rs:189
802034da: 7139         	addi	sp, sp, -0x40
802034dc: fc06         	sd	ra, 0x38(sp)
802034de: 862e         	mv	a2, a1
802034e0: 85aa         	mv	a1, a0
802034e2: 0005851b     	sext.w	a0, a1
802034e6: ca2e         	sw	a1, 0x14(sp)
802034e8: ec32         	sd	a2, 0x18(sp)
; /Users/lewis/.rustup/toolchains/stable-aarch64-apple-darwin/lib/rustlib/src/rust/library/core/src/iter/range.rs:191
802034ea: 0006059b     	sext.w	a1, a2
802034ee: d232         	sw	a2, 0x24(sp)
; /Users/lewis/.rustup/toolchains/stable-aarch64-apple-darwin/lib/rustlib/src/rust/library/core/src/num/int_macros.rs:2407
802034f0: d432         	sw	a2, 0x28(sp)
; /Users/lewis/.rustup/toolchains/stable-aarch64-apple-darwin/lib/rustlib/src/rust/library/core/src/num/int_macros.rs:2324
802034f2: 00b50633     	add	a2, a0, a1
802034f6: e032         	sd	a2, 0x0(sp)
802034f8: 9d2d         	addw	a0, a0, a1
802034fa: 8d31         	xor	a0, a0, a2
802034fc: 00a03533     	snez	a0, a0
80203500: d632         	sw	a2, 0x2c(sp)
80203502: 02a108a3     	sb	a0, 0x31(sp)
; /Users/lewis/.rustup/toolchains/stable-aarch64-apple-darwin/lib/rustlib/src/rust/library/core/src/num/int_macros.rs:2409
80203506: 0005a593     	slti	a1, a1, 0x0
8020350a: 8d2d         	xor	a0, a0, a1
8020350c: 02a10923     	sb	a0, 0x32(sp)
; /Users/lewis/.rustup/toolchains/stable-aarch64-apple-darwin/lib/rustlib/src/rust/library/core/src/num/mod.rs:22
80203510: 02a109a3     	sb	a0, 0x33(sp)
80203514: 03314503     	lbu	a0, 0x33(sp)
80203518: 8905         	andi	a0, a0, 0x1
8020351a: e919         	bnez	a0, 0x80203530 <.Lpcrel_hi0>
8020351c: a009         	j	0x8020351e <_$LT$i32$u20$as$u20$core..iter..range..Step$GT$::forward_unchecked::h273c2180868752b8+0x44>
8020351e: 6502         	ld	a0, 0x0(sp)
; /Users/lewis/.rustup/toolchains/stable-aarch64-apple-darwin/lib/rustlib/src/rust/library/core/src/num/int_macros.rs:548
80203520: c82a         	sw	a0, 0x10(sp)
80203522: 4505         	li	a0, 0x1
80203524: c62a         	sw	a0, 0xc(sp)
; /Users/lewis/.rustup/toolchains/stable-aarch64-apple-darwin/lib/rustlib/src/rust/library/core/src/iter/range.rs:192
80203526: 4542         	lw	a0, 0x10(sp)
; /Users/lewis/.rustup/toolchains/stable-aarch64-apple-darwin/lib/rustlib/src/rust/library/core/src/option.rs:1079
80203528: da2a         	sw	a0, 0x34(sp)
8020352a: 70e2         	ld	ra, 0x38(sp)
; /Users/lewis/.rustup/toolchains/stable-aarch64-apple-darwin/lib/rustlib/src/rust/library/core/src/iter/range.rs:192
8020352c: 6121         	addi	sp, sp, 0x40
8020352e: 8082         	ret

0000000080203530 <.Lpcrel_hi0>:
; .Lpcrel_hi0():
; /Users/lewis/.rustup/toolchains/stable-aarch64-apple-darwin/lib/rustlib/src/rust/library/core/src/num/int_macros.rs:548
80203530: 00003517     	auipc	a0, 0x3
80203534: f2850513     	addi	a0, a0, -0xd8
80203538: 410c         	lw	a1, 0x0(a0)
8020353a: 4148         	lw	a0, 0x4(a0)
8020353c: c62e         	sw	a1, 0xc(sp)
8020353e: c82a         	sw	a0, 0x10(sp)
; /Users/lewis/.rustup/toolchains/stable-aarch64-apple-darwin/lib/rustlib/src/rust/library/core/src/ub_checks.rs:77
80203540: 00000097     	auipc	ra, 0x0
80203544: 734080e7     	jalr	0x734(ra) <core::hint::unreachable_unchecked::precondition_check::h56ee0eec944eac16>
80203548: 0000         	unimp

000000008020354a <_$LT$usize$u20$as$u20$core..iter..range..Step$GT$::forward_unchecked::h0cfad653b2428a4e>:
; _$LT$usize$u20$as$u20$core..iter..range..Step$GT$::forward_unchecked::h0cfad653b2428a4e():
; /Users/lewis/.rustup/toolchains/stable-aarch64-apple-darwin/lib/rustlib/src/rust/library/core/src/iter/range.rs:205
8020354a: 7179         	addi	sp, sp, -0x30
8020354c: f406         	sd	ra, 0x28(sp)
8020354e: e42e         	sd	a1, 0x8(sp)
80203550: e82a         	sd	a0, 0x10(sp)
80203552: ec2a         	sd	a0, 0x18(sp)
80203554: f02e         	sd	a1, 0x20(sp)
; /Users/lewis/.rustup/toolchains/stable-aarch64-apple-darwin/lib/rustlib/src/rust/library/core/src/ub_checks.rs:76
80203556: a009         	j	0x80203558 <_$LT$usize$u20$as$u20$core..iter..range..Step$GT$::forward_unchecked::h0cfad653b2428a4e+0xe>
80203558: 65a2         	ld	a1, 0x8(sp)
8020355a: 6542         	ld	a0, 0x10(sp)
; /Users/lewis/.rustup/toolchains/stable-aarch64-apple-darwin/lib/rustlib/src/rust/library/core/src/ub_checks.rs:77
8020355c: 00000097     	auipc	ra, 0x0
80203560: cda080e7     	jalr	-0x326(ra) <core::num::_$LT$impl$u20$usize$GT$::unchecked_add::precondition_check::h7bef1ddda2aceb1d>
80203564: a009         	j	0x80203566 <_$LT$usize$u20$as$u20$core..iter..range..Step$GT$::forward_unchecked::h0cfad653b2428a4e+0x1c>
80203566: 6542         	ld	a0, 0x10(sp)
80203568: 65a2         	ld	a1, 0x8(sp)
; /Users/lewis/.rustup/toolchains/stable-aarch64-apple-darwin/lib/rustlib/src/rust/library/core/src/num/uint_macros.rs:573
8020356a: 952e         	add	a0, a0, a1
8020356c: 70a2         	ld	ra, 0x28(sp)
; /Users/lewis/.rustup/toolchains/stable-aarch64-apple-darwin/lib/rustlib/src/rust/library/core/src/iter/range.rs:208
8020356e: 6145         	addi	sp, sp, 0x30
80203570: 8082         	ret

0000000080203572 <_$LT$usize$u20$as$u20$core..iter..range..Step$GT$::backward_unchecked::h698616470b33bf99>:
; _$LT$usize$u20$as$u20$core..iter..range..Step$GT$::backward_unchecked::h698616470b33bf99():
; /Users/lewis/.rustup/toolchains/stable-aarch64-apple-darwin/lib/rustlib/src/rust/library/core/src/iter/range.rs:211
80203572: 7179         	addi	sp, sp, -0x30
80203574: f406         	sd	ra, 0x28(sp)
80203576: e42e         	sd	a1, 0x8(sp)
80203578: e82a         	sd	a0, 0x10(sp)
8020357a: ec2a         	sd	a0, 0x18(sp)
8020357c: f02e         	sd	a1, 0x20(sp)
; /Users/lewis/.rustup/toolchains/stable-aarch64-apple-darwin/lib/rustlib/src/rust/library/core/src/ub_checks.rs:76
8020357e: a009         	j	0x80203580 <_$LT$usize$u20$as$u20$core..iter..range..Step$GT$::backward_unchecked::h698616470b33bf99+0xe>
80203580: 65a2         	ld	a1, 0x8(sp)
80203582: 6542         	ld	a0, 0x10(sp)
; /Users/lewis/.rustup/toolchains/stable-aarch64-apple-darwin/lib/rustlib/src/rust/library/core/src/ub_checks.rs:77
80203584: 00000097     	auipc	ra, 0x0
80203588: d20080e7     	jalr	-0x2e0(ra) <core::num::_$LT$impl$u20$usize$GT$::unchecked_sub::precondition_check::h2ffcb4dd039d9e9e>
8020358c: a009         	j	0x8020358e <_$LT$usize$u20$as$u20$core..iter..range..Step$GT$::backward_unchecked::h698616470b33bf99+0x1c>
8020358e: 6542         	ld	a0, 0x10(sp)
80203590: 65a2         	ld	a1, 0x8(sp)
; /Users/lewis/.rustup/toolchains/stable-aarch64-apple-darwin/lib/rustlib/src/rust/library/core/src/num/uint_macros.rs:765
80203592: 8d0d         	sub	a0, a0, a1
80203594: 70a2         	ld	ra, 0x28(sp)
; /Users/lewis/.rustup/toolchains/stable-aarch64-apple-darwin/lib/rustlib/src/rust/library/core/src/iter/range.rs:214
80203596: 6145         	addi	sp, sp, 0x30
80203598: 8082         	ret

000000008020359a <core::fmt::Write::write_char::hc860501776b51782>:
; core::fmt::Write::write_char::hc860501776b51782():
; /Users/lewis/.rustup/toolchains/stable-aarch64-apple-darwin/lib/rustlib/src/rust/library/core/src/fmt/mod.rs:174
8020359a: 711d         	addi	sp, sp, -0x60
8020359c: ec86         	sd	ra, 0x58(sp)
8020359e: e42e         	sd	a1, 0x8(sp)
802035a0: 85aa         	mv	a1, a0
802035a2: 6522         	ld	a0, 0x8(sp)
802035a4: e82e         	sd	a1, 0x10(sp)
802035a6: f42e         	sd	a1, 0x28(sp)
802035a8: da2a         	sw	a0, 0x34(sp)
802035aa: 4581         	li	a1, 0x0
; /Users/lewis/.rustup/toolchains/stable-aarch64-apple-darwin/lib/rustlib/src/rust/library/core/src/fmt/mod.rs:175
802035ac: d22e         	sw	a1, 0x24(sp)
802035ae: 104c         	addi	a1, sp, 0x24
802035b0: fc2e         	sd	a1, 0x38(sp)
802035b2: 4611         	li	a2, 0x4
802035b4: e0b2         	sd	a2, 0x40(sp)
; /Users/lewis/.rustup/toolchains/stable-aarch64-apple-darwin/lib/rustlib/src/rust/library/core/src/char/methods.rs:682
802035b6: fffff097     	auipc	ra, 0xfffff
802035ba: 770080e7     	jalr	0x770(ra) <free_mem_start+0xff5f9d26>
802035be: 862a         	mv	a2, a0
802035c0: 6542         	ld	a0, 0x10(sp)
802035c2: ec32         	sd	a2, 0x18(sp)
802035c4: 862e         	mv	a2, a1
802035c6: 65e2         	ld	a1, 0x18(sp)
802035c8: e4ae         	sd	a1, 0x48(sp)
802035ca: e8b2         	sd	a2, 0x50(sp)
; /Users/lewis/.rustup/toolchains/stable-aarch64-apple-darwin/lib/rustlib/src/rust/library/core/src/fmt/mod.rs:175
802035cc: ffffd097     	auipc	ra, 0xffffd
802035d0: cd0080e7     	jalr	-0x330(ra) <free_mem_start+0xff5f729c>
802035d4: 60e6         	ld	ra, 0x58(sp)
; /Users/lewis/.rustup/toolchains/stable-aarch64-apple-darwin/lib/rustlib/src/rust/library/core/src/fmt/mod.rs:176
802035d6: 6125         	addi	sp, sp, 0x60
802035d8: 8082         	ret

00000000802035da <core::fmt::Write::write_fmt::h7e2e3aec3f72d504>:
; core::fmt::Write::write_fmt::h7e2e3aec3f72d504():
; /Users/lewis/.rustup/toolchains/stable-aarch64-apple-darwin/lib/rustlib/src/rust/library/core/src/fmt/mod.rs:202
802035da: 1141         	addi	sp, sp, -0x10
802035dc: e406         	sd	ra, 0x8(sp)
802035de: e02a         	sd	a0, 0x0(sp)
; /Users/lewis/.rustup/toolchains/stable-aarch64-apple-darwin/lib/rustlib/src/rust/library/core/src/fmt/mod.rs:231
802035e0: 00000097     	auipc	ra, 0x0
802035e4: 00e080e7     	jalr	0xe(ra) <_$LT$$RF$mut$u20$W$u20$as$u20$core..fmt..Write..write_fmt..SpecWriteFmt$GT$::spec_write_fmt::hcf85f49af49ca0af>
802035e8: 60a2         	ld	ra, 0x8(sp)
; /Users/lewis/.rustup/toolchains/stable-aarch64-apple-darwin/lib/rustlib/src/rust/library/core/src/fmt/mod.rs:232
802035ea: 0141         	addi	sp, sp, 0x10
802035ec: 8082         	ret

00000000802035ee <_$LT$$RF$mut$u20$W$u20$as$u20$core..fmt..Write..write_fmt..SpecWriteFmt$GT$::spec_write_fmt::hcf85f49af49ca0af>:
; _$LT$$RF$mut$u20$W$u20$as$u20$core..fmt..Write..write_fmt..SpecWriteFmt$GT$::spec_write_fmt::hcf85f49af49ca0af():
; /Users/lewis/.rustup/toolchains/stable-aarch64-apple-darwin/lib/rustlib/src/rust/library/core/src/fmt/mod.rs:222
802035ee: 7155         	addi	sp, sp, -0xd0
802035f0: e586         	sd	ra, 0xc8(sp)
802035f2: e42e         	sd	a1, 0x8(sp)
802035f4: e82a         	sd	a0, 0x10(sp)
802035f6: f0aa         	sd	a0, 0x60(sp)
; /Users/lewis/.rustup/toolchains/stable-aarch64-apple-darwin/lib/rustlib/src/rust/library/core/src/fmt/mod.rs:223
802035f8: f4ae         	sd	a1, 0x68(sp)
; /Users/lewis/.rustup/toolchains/stable-aarch64-apple-darwin/lib/rustlib/src/rust/library/core/src/fmt/mod.rs:442
802035fa: 6188         	ld	a0, 0x0(a1)
802035fc: ec2a         	sd	a0, 0x18(sp)
802035fe: 6588         	ld	a0, 0x8(a1)
80203600: f02a         	sd	a0, 0x20(sp)
80203602: 6d8c         	ld	a1, 0x18(a1)
80203604: f42e         	sd	a1, 0x28(sp)
; /Users/lewis/.rustup/toolchains/stable-aarch64-apple-darwin/lib/rustlib/src/rust/library/core/src/fmt/mod.rs:443
80203606: e509         	bnez	a0, 0x80203610 <_$LT$$RF$mut$u20$W$u20$as$u20$core..fmt..Write..write_fmt..SpecWriteFmt$GT$::spec_write_fmt::hcf85f49af49ca0af+0x22>
80203608: a009         	j	0x8020360a <_$LT$$RF$mut$u20$W$u20$as$u20$core..fmt..Write..write_fmt..SpecWriteFmt$GT$::spec_write_fmt::hcf85f49af49ca0af+0x1c>
8020360a: 7522         	ld	a0, 0x28(sp)
; /Users/lewis/.rustup/toolchains/stable-aarch64-apple-darwin/lib/rustlib/src/rust/library/core/src/fmt/mod.rs:443
8020360c: c519         	beqz	a0, 0x8020361a <_$LT$$RF$mut$u20$W$u20$as$u20$core..fmt..Write..write_fmt..SpecWriteFmt$GT$::spec_write_fmt::hcf85f49af49ca0af+0x2c>
8020360e: a819         	j	0x80203624 <.Lpcrel_hi0>
80203610: 7502         	ld	a0, 0x20(sp)
80203612: 4585         	li	a1, 0x1
; /Users/lewis/.rustup/toolchains/stable-aarch64-apple-darwin/lib/rustlib/src/rust/library/core/src/fmt/mod.rs:444
80203614: 02b50663     	beq	a0, a1, 0x80203640 <.Lpcrel_hi0+0x1c>
80203618: a031         	j	0x80203624 <.Lpcrel_hi0>
8020361a: 4505         	li	a0, 0x1
; /Users/lewis/.rustup/toolchains/stable-aarch64-apple-darwin/lib/rustlib/src/rust/library/core/src/fmt/mod.rs:443
8020361c: e4aa         	sd	a0, 0x48(sp)
8020361e: 4501         	li	a0, 0x0
80203620: e8aa         	sd	a0, 0x50(sp)
80203622: a811         	j	0x80203636 <.Lpcrel_hi0+0x12>

0000000080203624 <.Lpcrel_hi0>:
; .Lpcrel_hi0():
; /Users/lewis/.rustup/toolchains/stable-aarch64-apple-darwin/lib/rustlib/src/rust/library/core/src/fmt/mod.rs:445
80203624: 00003517     	auipc	a0, 0x3
80203628: b7c50513     	addi	a0, a0, -0x484
8020362c: 610c         	ld	a1, 0x0(a0)
8020362e: 6508         	ld	a0, 0x8(a0)
80203630: e4ae         	sd	a1, 0x48(sp)
80203632: e8aa         	sd	a0, 0x50(sp)
80203634: a009         	j	0x80203636 <.Lpcrel_hi0+0x12>
80203636: 00a8         	addi	a0, sp, 0x48
; /Users/lewis/.rustup/toolchains/stable-aarch64-apple-darwin/lib/rustlib/src/rust/library/core/src/fmt/mod.rs:454
80203638: fcaa         	sd	a0, 0x78(sp)
; /Users/lewis/.rustup/toolchains/stable-aarch64-apple-darwin/lib/rustlib/src/rust/library/core/src/option.rs:607
8020363a: 6526         	ld	a0, 0x48(sp)
; /Users/lewis/.rustup/toolchains/stable-aarch64-apple-darwin/lib/rustlib/src/rust/library/core/src/macros/mod.rs:475
8020363c: ed01         	bnez	a0, 0x80203654 <.Lpcrel_hi0+0x30>
8020363e: a839         	j	0x8020365c <.Lpcrel_hi0+0x38>
80203640: 7522         	ld	a0, 0x28(sp)
; /Users/lewis/.rustup/toolchains/stable-aarch64-apple-darwin/lib/rustlib/src/rust/library/core/src/fmt/mod.rs:444
80203642: f16d         	bnez	a0, 0x80203624 <.Lpcrel_hi0>
80203644: a009         	j	0x80203646 <.Lpcrel_hi0+0x22>
80203646: 6562         	ld	a0, 0x18(sp)
; /Users/lewis/.rustup/toolchains/stable-aarch64-apple-darwin/lib/rustlib/src/rust/library/core/src/fmt/mod.rs:444
80203648: f8aa         	sd	a0, 0x70(sp)
8020364a: 610c         	ld	a1, 0x0(a0)
8020364c: 6508         	ld	a0, 0x8(a0)
8020364e: e4ae         	sd	a1, 0x48(sp)
80203650: e8aa         	sd	a0, 0x50(sp)
80203652: b7d5         	j	0x80203636 <.Lpcrel_hi0+0x12>
80203654: 4505         	li	a0, 0x1
; /Users/lewis/.rustup/toolchains/stable-aarch64-apple-darwin/lib/rustlib/src/rust/library/core/src/macros/mod.rs:476
80203656: 04a10fa3     	sb	a0, 0x5f(sp)
8020365a: a029         	j	0x80203664 <.Lpcrel_hi0+0x40>
8020365c: 4501         	li	a0, 0x0
; /Users/lewis/.rustup/toolchains/stable-aarch64-apple-darwin/lib/rustlib/src/rust/library/core/src/macros/mod.rs:477
8020365e: 04a10fa3     	sb	a0, 0x5f(sp)
80203662: a009         	j	0x80203664 <.Lpcrel_hi0+0x40>
80203664: 4501         	li	a0, 0x0
; /Users/lewis/.rustup/toolchains/stable-aarch64-apple-darwin/lib/rustlib/src/rust/library/core/src/fmt/mod.rs:454
80203666: 08a103a3     	sb	a0, 0x87(sp)
8020366a: 08714503     	lbu	a0, 0x87(sp)
8020366e: 8905         	andi	a0, a0, 0x1
80203670: e119         	bnez	a0, 0x80203676 <.Lpcrel_hi0+0x52>
80203672: a009         	j	0x80203674 <.Lpcrel_hi0+0x50>
; /Users/lewis/.rustup/toolchains/stable-aarch64-apple-darwin/lib/rustlib/src/rust/library/core/src/fmt/mod.rs:223
80203674: a801         	j	0x80203684 <.Lpcrel_hi0+0x60>
; /Users/lewis/.rustup/toolchains/stable-aarch64-apple-darwin/lib/rustlib/src/rust/library/core/src/fmt/mod.rs:454
80203676: 65a6         	ld	a1, 0x48(sp)
80203678: 6546         	ld	a0, 0x50(sp)
8020367a: fc2e         	sd	a1, 0x38(sp)
8020367c: e0aa         	sd	a0, 0x40(sp)
; /Users/lewis/.rustup/toolchains/stable-aarch64-apple-darwin/lib/rustlib/src/rust/library/core/src/fmt/mod.rs:223
8020367e: 7562         	ld	a0, 0x38(sp)
80203680: ed05         	bnez	a0, 0x802036b8 <.Lpcrel_hi1+0x18>
80203682: a009         	j	0x80203684 <.Lpcrel_hi0+0x60>
80203684: 6542         	ld	a0, 0x10(sp)
80203686: 65a2         	ld	a1, 0x8(sp)
; /Users/lewis/.rustup/toolchains/stable-aarch64-apple-darwin/lib/rustlib/src/rust/library/core/src/fmt/mod.rs:226
80203688: 7590         	ld	a2, 0x28(a1)
8020368a: e1b2         	sd	a2, 0xc0(sp)
8020368c: 7190         	ld	a2, 0x20(a1)
8020368e: fd32         	sd	a2, 0xb8(sp)
80203690: 6d90         	ld	a2, 0x18(a1)
80203692: f932         	sd	a2, 0xb0(sp)
80203694: 6990         	ld	a2, 0x10(a1)
80203696: f532         	sd	a2, 0xa8(sp)
80203698: 6590         	ld	a2, 0x8(a1)
8020369a: f132         	sd	a2, 0xa0(sp)
8020369c: 618c         	ld	a1, 0x0(a1)
8020369e: ed2e         	sd	a1, 0x98(sp)

00000000802036a0 <.Lpcrel_hi1>:
; .Lpcrel_hi1():
; /Users/lewis/.rustup/toolchains/stable-aarch64-apple-darwin/lib/rustlib/src/rust/library/core/src/fmt/mod.rs:226
802036a0: 00004597     	auipc	a1, 0x4
802036a4: d9858593     	addi	a1, a1, -0x268
802036a8: 0930         	addi	a2, sp, 0x98
802036aa: 00001097     	auipc	ra, 0x1
802036ae: f20080e7     	jalr	-0xe0(ra) <core::fmt::write::h1d69cb434d0bed94>
802036b2: 02a10ba3     	sb	a0, 0x37(sp)
; /Users/lewis/.rustup/toolchains/stable-aarch64-apple-darwin/lib/rustlib/src/rust/library/core/src/fmt/mod.rs:223
802036b6: a829         	j	0x802036d0 <.Lpcrel_hi1+0x30>
802036b8: 6542         	ld	a0, 0x10(sp)
; /Users/lewis/.rustup/toolchains/stable-aarch64-apple-darwin/lib/rustlib/src/rust/library/core/src/fmt/mod.rs:223
802036ba: 75e2         	ld	a1, 0x38(sp)
802036bc: 6606         	ld	a2, 0x40(sp)
802036be: e52e         	sd	a1, 0x88(sp)
802036c0: e932         	sd	a2, 0x90(sp)
; /Users/lewis/.rustup/toolchains/stable-aarch64-apple-darwin/lib/rustlib/src/rust/library/core/src/fmt/mod.rs:224
802036c2: ffffd097     	auipc	ra, 0xffffd
802036c6: bda080e7     	jalr	-0x426(ra) <free_mem_start+0xff5f729c>
802036ca: 02a10ba3     	sb	a0, 0x37(sp)
802036ce: a009         	j	0x802036d0 <.Lpcrel_hi1+0x30>
; /Users/lewis/.rustup/toolchains/stable-aarch64-apple-darwin/lib/rustlib/src/rust/library/core/src/fmt/mod.rs:228
802036d0: 03714503     	lbu	a0, 0x37(sp)
802036d4: 8905         	andi	a0, a0, 0x1
802036d6: 60ae         	ld	ra, 0xc8(sp)
802036d8: 6169         	addi	sp, sp, 0xd0
802036da: 8082         	ret

00000000802036dc <_$LT$usize$u20$as$u20$core..slice..index..SliceIndex$LT$$u5b$T$u5d$$GT$$GT$::index::h6665eefb3bd59e84>:
; _$LT$usize$u20$as$u20$core..slice..index..SliceIndex$LT$$u5b$T$u5d$$GT$$GT$::index::h6665eefb3bd59e84():
; /Users/lewis/.rustup/toolchains/stable-aarch64-apple-darwin/lib/rustlib/src/rust/library/core/src/slice/index.rs:299
802036dc: 7139         	addi	sp, sp, -0x40
802036de: e436         	sd	a3, 0x8(sp)
802036e0: e832         	sd	a2, 0x10(sp)
802036e2: ec2e         	sd	a1, 0x18(sp)
802036e4: f02a         	sd	a0, 0x20(sp)
802036e6: f42a         	sd	a0, 0x28(sp)
802036e8: f82e         	sd	a1, 0x30(sp)
802036ea: fc32         	sd	a2, 0x38(sp)
; /Users/lewis/.rustup/toolchains/stable-aarch64-apple-darwin/lib/rustlib/src/rust/library/core/src/slice/index.rs:301
802036ec: 00c57963     	bgeu	a0, a2, 0x802036fe <_$LT$usize$u20$as$u20$core..slice..index..SliceIndex$LT$$u5b$T$u5d$$GT$$GT$::index::h6665eefb3bd59e84+0x22>
802036f0: a009         	j	0x802036f2 <_$LT$usize$u20$as$u20$core..slice..index..SliceIndex$LT$$u5b$T$u5d$$GT$$GT$::index::h6665eefb3bd59e84+0x16>
802036f2: 6562         	ld	a0, 0x18(sp)
802036f4: 7582         	ld	a1, 0x20(sp)
; /Users/lewis/.rustup/toolchains/stable-aarch64-apple-darwin/lib/rustlib/src/rust/library/core/src/slice/index.rs:301
802036f6: 058a         	slli	a1, a1, 0x2
802036f8: 952e         	add	a0, a0, a1
; /Users/lewis/.rustup/toolchains/stable-aarch64-apple-darwin/lib/rustlib/src/rust/library/core/src/slice/index.rs:302
802036fa: 6121         	addi	sp, sp, 0x40
802036fc: 8082         	ret
802036fe: 6622         	ld	a2, 0x8(sp)
80203700: 65c2         	ld	a1, 0x10(sp)
80203702: 7502         	ld	a0, 0x20(sp)
; /Users/lewis/.rustup/toolchains/stable-aarch64-apple-darwin/lib/rustlib/src/rust/library/core/src/slice/index.rs:301
80203704: 00001097     	auipc	ra, 0x1
80203708: cdc080e7     	jalr	-0x324(ra) <core::panicking::panic_bounds_check::h8cafb9a5881e4545>

000000008020370c <alloc::raw_vec::finish_grow::h3ea0fbd3aaf8470c>:
; alloc::raw_vec::finish_grow::h3ea0fbd3aaf8470c():
; /Users/lewis/.rustup/toolchains/stable-aarch64-apple-darwin/lib/rustlib/src/rust/library/alloc/src/raw_vec.rs:745
8020370c: 714d         	addi	sp, sp, -0x150
8020370e: e686         	sd	ra, 0x148(sp)
80203710: 87ba         	mv	a5, a4
80203712: ec3e         	sd	a5, 0x18(sp)
80203714: f036         	sd	a3, 0x20(sp)
80203716: 8832         	mv	a6, a2
80203718: 88ae         	mv	a7, a1
8020371a: f42a         	sd	a0, 0x28(sp)

000000008020371c <.Lpcrel_hi0>:
; .Lpcrel_hi0():
; /Users/lewis/.rustup/toolchains/stable-aarch64-apple-darwin/lib/rustlib/src/rust/library/alloc/src/raw_vec.rs:745
8020371c: 00003517     	auipc	a0, 0x3
80203720: a8450513     	addi	a0, a0, -0x57c
80203724: 6118         	ld	a4, 0x0(a0)
80203726: 6510         	ld	a2, 0x8(a0)

0000000080203728 <.Lpcrel_hi1>:
; .Lpcrel_hi1():
; /Users/lewis/.rustup/toolchains/stable-aarch64-apple-darwin/lib/rustlib/src/rust/library/alloc/src/raw_vec.rs:745
80203728: 00003517     	auipc	a0, 0x3
8020372c: a5850513     	addi	a0, a0, -0x5a8
80203730: 610c         	ld	a1, 0x0(a0)
80203732: 6508         	ld	a0, 0x8(a0)
80203734: f846         	sd	a7, 0x30(sp)
80203736: fc42         	sd	a6, 0x38(sp)
80203738: e93e         	sd	a5, 0x90(sp)
8020373a: 4781         	li	a5, 0x0
; /Users/lewis/.rustup/toolchains/stable-aarch64-apple-darwin/lib/rustlib/src/rust/library/alloc/src/raw_vec.rs:756
8020373c: 08f10fa3     	sb	a5, 0x9f(sp)
; /Users/lewis/.rustup/toolchains/stable-aarch64-apple-darwin/lib/rustlib/src/rust/library/core/src/convert/mod.rs:758
80203740: f13a         	sd	a4, 0xa0(sp)
80203742: f532         	sd	a2, 0xa8(sp)
; /Users/lewis/.rustup/toolchains/stable-aarch64-apple-darwin/lib/rustlib/src/rust/library/alloc/src/collections/mod.rs:113
80203744: f93a         	sd	a4, 0xb0(sp)
80203746: fd32         	sd	a2, 0xb8(sp)
; /Users/lewis/.rustup/toolchains/stable-aarch64-apple-darwin/lib/rustlib/src/rust/library/core/src/result.rs:1996
80203748: e1ae         	sd	a1, 0xc0(sp)
8020374a: e5aa         	sd	a0, 0xc8(sp)
; /Users/lewis/.rustup/toolchains/stable-aarch64-apple-darwin/lib/rustlib/src/rust/library/core/src/result.rs:1999
8020374c: edae         	sd	a1, 0xd8(sp)
8020374e: f1aa         	sd	a0, 0xe0(sp)
80203750: 1808         	addi	a0, sp, 0x30
; /Users/lewis/.rustup/toolchains/stable-aarch64-apple-darwin/lib/rustlib/src/rust/library/alloc/src/raw_vec.rs:753
80203752: f9aa         	sd	a0, 0xf0(sp)
; /Users/lewis/.rustup/toolchains/stable-aarch64-apple-darwin/lib/rustlib/src/rust/library/core/src/alloc/layout.rs:151
80203754: 7562         	ld	a0, 0x38(sp)
80203756: fdaa         	sd	a0, 0xf8(sp)
; /Users/lewis/.rustup/toolchains/stable-aarch64-apple-darwin/lib/rustlib/src/rust/library/alloc/src/raw_vec.rs:755
80203758: 6688         	ld	a0, 0x8(a3)
8020375a: cd0d         	beqz	a0, 0x80203794 <.Lpcrel_hi1+0x6c>
8020375c: a009         	j	0x8020375e <.Lpcrel_hi1+0x36>
8020375e: 7502         	ld	a0, 0x20(sp)
; /Users/lewis/.rustup/toolchains/stable-aarch64-apple-darwin/lib/rustlib/src/rust/library/alloc/src/raw_vec.rs:755
80203760: 610c         	ld	a1, 0x0(a0)
80203762: e42e         	sd	a1, 0x8(sp)
80203764: e22e         	sd	a1, 0x100(sp)
80203766: 650c         	ld	a1, 0x8(a0)
80203768: 6908         	ld	a0, 0x10(a0)
8020376a: e8ae         	sd	a1, 0x50(sp)
8020376c: ecaa         	sd	a0, 0x58(sp)
8020376e: 0888         	addi	a0, sp, 0x50
; /Users/lewis/.rustup/toolchains/stable-aarch64-apple-darwin/lib/rustlib/src/rust/library/alloc/src/raw_vec.rs:759
80203770: e62a         	sd	a0, 0x108(sp)
; /Users/lewis/.rustup/toolchains/stable-aarch64-apple-darwin/lib/rustlib/src/rust/library/core/src/alloc/layout.rs:164
80203772: 6546         	ld	a0, 0x50(sp)
80203774: ea2a         	sd	a0, 0x110(sp)
; /Users/lewis/.rustup/toolchains/stable-aarch64-apple-darwin/lib/rustlib/src/rust/library/core/src/ptr/alignment.rs:95
80203776: f8aa         	sd	a0, 0x70(sp)
80203778: 7546         	ld	a0, 0x70(sp)
8020377a: 180c         	addi	a1, sp, 0x30
; /Users/lewis/.rustup/toolchains/stable-aarch64-apple-darwin/lib/rustlib/src/rust/library/alloc/src/raw_vec.rs:759
8020377c: ee2e         	sd	a1, 0x118(sp)
; /Users/lewis/.rustup/toolchains/stable-aarch64-apple-darwin/lib/rustlib/src/rust/library/core/src/alloc/layout.rs:164
8020377e: 75c2         	ld	a1, 0x30(sp)
80203780: f22e         	sd	a1, 0x120(sp)
; /Users/lewis/.rustup/toolchains/stable-aarch64-apple-darwin/lib/rustlib/src/rust/library/core/src/ptr/alignment.rs:95
80203782: fcae         	sd	a1, 0x78(sp)
80203784: 75e6         	ld	a1, 0x78(sp)
; /Users/lewis/.rustup/toolchains/stable-aarch64-apple-darwin/lib/rustlib/src/rust/library/alloc/src/raw_vec.rs:759
80203786: 8d2d         	xor	a0, a0, a1
80203788: 00153513     	seqz	a0, a0
8020378c: e82a         	sd	a0, 0x10(sp)
8020378e: 12a107a3     	sb	a0, 0x12f(sp)
; /Users/lewis/.rustup/toolchains/stable-aarch64-apple-darwin/lib/rustlib/src/rust/library/core/src/ub_checks.rs:76
80203792: a819         	j	0x802037a8 <.Lpcrel_hi1+0x80>
80203794: 6562         	ld	a0, 0x18(sp)
; /Users/lewis/.rustup/toolchains/stable-aarch64-apple-darwin/lib/rustlib/src/rust/library/alloc/src/raw_vec.rs:763
80203796: 75c2         	ld	a1, 0x30(sp)
80203798: 7662         	ld	a2, 0x38(sp)
8020379a: ffffd097     	auipc	ra, 0xffffd
8020379e: 6e0080e7     	jalr	0x6e0(ra) <free_mem_start+0xff5f7e7a>
802037a2: e0aa         	sd	a0, 0x40(sp)
802037a4: e4ae         	sd	a1, 0x48(sp)
; /Users/lewis/.rustup/toolchains/stable-aarch64-apple-darwin/lib/rustlib/src/rust/library/alloc/src/raw_vec.rs:755
802037a6: a02d         	j	0x802037d0 <.Lpcrel_hi1+0xa8>
802037a8: 6542         	ld	a0, 0x10(sp)
; /Users/lewis/.rustup/toolchains/stable-aarch64-apple-darwin/lib/rustlib/src/rust/library/core/src/ub_checks.rs:77
802037aa: 8905         	andi	a0, a0, 0x1
802037ac: 00000097     	auipc	ra, 0x0
802037b0: 4a6080e7     	jalr	0x4a6(ra) <core::hint::assert_unchecked::precondition_check::ha977b864b150b540>
802037b4: a009         	j	0x802037b6 <.Lpcrel_hi1+0x8e>
802037b6: 65a2         	ld	a1, 0x8(sp)
802037b8: 6562         	ld	a0, 0x18(sp)
; /Users/lewis/.rustup/toolchains/stable-aarch64-apple-darwin/lib/rustlib/src/rust/library/alloc/src/raw_vec.rs:760
802037ba: 6646         	ld	a2, 0x50(sp)
802037bc: 66e6         	ld	a3, 0x58(sp)
802037be: 7742         	ld	a4, 0x30(sp)
802037c0: 77e2         	ld	a5, 0x38(sp)
802037c2: ffffd097     	auipc	ra, 0xffffd
802037c6: 698080e7     	jalr	0x698(ra) <free_mem_start+0xff5f7e5a>
802037ca: e0aa         	sd	a0, 0x40(sp)
802037cc: e4ae         	sd	a1, 0x48(sp)
; /Users/lewis/.rustup/toolchains/stable-aarch64-apple-darwin/lib/rustlib/src/rust/library/alloc/src/raw_vec.rs:755
802037ce: a009         	j	0x802037d0 <.Lpcrel_hi1+0xa8>
; /Users/lewis/.rustup/toolchains/stable-aarch64-apple-darwin/lib/rustlib/src/rust/library/alloc/src/raw_vec.rs:766
802037d0: 6586         	ld	a1, 0x40(sp)
802037d2: 6526         	ld	a0, 0x48(sp)
802037d4: f0ae         	sd	a1, 0x60(sp)
802037d6: f4aa         	sd	a0, 0x68(sp)
802037d8: 1808         	addi	a0, sp, 0x30
802037da: fa2a         	sd	a0, 0x130(sp)
; /Users/lewis/.rustup/toolchains/stable-aarch64-apple-darwin/lib/rustlib/src/rust/library/core/src/result.rs:854
802037dc: 7506         	ld	a0, 0x60(sp)
802037de: cd01         	beqz	a0, 0x802037f6 <.Lpcrel_hi1+0xce>
802037e0: a009         	j	0x802037e2 <.Lpcrel_hi1+0xba>
802037e2: 75a2         	ld	a1, 0x28(sp)
; /Users/lewis/.rustup/toolchains/stable-aarch64-apple-darwin/lib/rustlib/src/rust/library/core/src/result.rs:855
802037e4: 7606         	ld	a2, 0x60(sp)
802037e6: 7526         	ld	a0, 0x68(sp)
802037e8: fe32         	sd	a2, 0x138(sp)
802037ea: e2aa         	sd	a0, 0x140(sp)
802037ec: e590         	sd	a2, 0x8(a1)
802037ee: e988         	sd	a0, 0x10(a1)
802037f0: 4501         	li	a0, 0x0
802037f2: e188         	sd	a0, 0x0(a1)
; /Users/lewis/.rustup/toolchains/stable-aarch64-apple-darwin/lib/rustlib/src/rust/library/core/src/result.rs:858
802037f4: a829         	j	0x8020380e <.Lpcrel_hi1+0xe6>
802037f6: 75a2         	ld	a1, 0x28(sp)
; /Users/lewis/.rustup/toolchains/stable-aarch64-apple-darwin/lib/rustlib/src/rust/library/alloc/src/raw_vec.rs:766
802037f8: 7642         	ld	a2, 0x30(sp)
802037fa: 7562         	ld	a0, 0x38(sp)
802037fc: e132         	sd	a2, 0x80(sp)
802037fe: e52a         	sd	a0, 0x88(sp)
; /Users/lewis/.rustup/toolchains/stable-aarch64-apple-darwin/lib/rustlib/src/rust/library/alloc/src/collections/mod.rs:114
80203800: 660a         	ld	a2, 0x80(sp)
80203802: 652a         	ld	a0, 0x88(sp)
; /Users/lewis/.rustup/toolchains/stable-aarch64-apple-darwin/lib/rustlib/src/rust/library/core/src/result.rs:856
80203804: e590         	sd	a2, 0x8(a1)
80203806: e988         	sd	a0, 0x10(a1)
80203808: 4505         	li	a0, 0x1
8020380a: e188         	sd	a0, 0x0(a1)
8020380c: a009         	j	0x8020380e <.Lpcrel_hi1+0xe6>
8020380e: 60b6         	ld	ra, 0x148(sp)
; /Users/lewis/.rustup/toolchains/stable-aarch64-apple-darwin/lib/rustlib/src/rust/library/alloc/src/raw_vec.rs:767
80203810: 6171         	addi	sp, sp, 0x150
80203812: 8082         	ret

0000000080203814 <alloc::raw_vec::RawVec$LT$T$C$A$GT$::grow_one::h597f66820a32fb6a>:
; alloc::raw_vec::RawVec$LT$T$C$A$GT$::grow_one::h597f66820a32fb6a():
; /Users/lewis/.rustup/toolchains/stable-aarch64-apple-darwin/lib/rustlib/src/rust/library/alloc/src/raw_vec.rs:335
80203814: 715d         	addi	sp, sp, -0x50
80203816: e486         	sd	ra, 0x48(sp)
80203818: ec2a         	sd	a0, 0x18(sp)
8020381a: 4711         	li	a4, 0x4
; /Users/lewis/.rustup/toolchains/stable-aarch64-apple-darwin/lib/rustlib/src/rust/library/alloc/src/raw_vec.rs:553
8020381c: f03a         	sd	a4, 0x20(sp)
8020381e: f43a         	sd	a4, 0x28(sp)
; /Users/lewis/.rustup/toolchains/stable-aarch64-apple-darwin/lib/rustlib/src/rust/library/alloc/src/raw_vec.rs:336
80203820: f82a         	sd	a0, 0x30(sp)
; /Users/lewis/.rustup/toolchains/stable-aarch64-apple-darwin/lib/rustlib/src/rust/library/alloc/src/raw_vec.rs:554
80203822: 610c         	ld	a1, 0x0(a0)
80203824: 4605         	li	a2, 0x1
80203826: 86ba         	mv	a3, a4
80203828: 00000097     	auipc	ra, 0x0
8020382c: 110080e7     	jalr	0x110(ra) <alloc::raw_vec::RawVecInner$LT$A$GT$::grow_amortized::hcac3a75e0de627d5>
80203830: e42a         	sd	a0, 0x8(sp)
80203832: e82e         	sd	a1, 0x10(sp)
80203834: 6522         	ld	a0, 0x8(sp)
80203836: 55fd         	li	a1, -0x1
80203838: 15fe         	slli	a1, a1, 0x3f
8020383a: 0585         	addi	a1, a1, 0x1
8020383c: 00b50b63     	beq	a0, a1, 0x80203852 <alloc::raw_vec::RawVec$LT$T$C$A$GT$::grow_one::h597f66820a32fb6a+0x3e>
80203840: a009         	j	0x80203842 <alloc::raw_vec::RawVec$LT$T$C$A$GT$::grow_one::h597f66820a32fb6a+0x2e>
80203842: 6522         	ld	a0, 0x8(sp)
80203844: 65c2         	ld	a1, 0x10(sp)
80203846: fc2a         	sd	a0, 0x38(sp)
80203848: e0ae         	sd	a1, 0x40(sp)
; /Users/lewis/.rustup/toolchains/stable-aarch64-apple-darwin/lib/rustlib/src/rust/library/alloc/src/raw_vec.rs:555
8020384a: 00001097     	auipc	ra, 0x1
8020384e: 8a8080e7     	jalr	-0x758(ra) <alloc::raw_vec::handle_error::h3b3caef0534e22c8>
80203852: 60a6         	ld	ra, 0x48(sp)
; /Users/lewis/.rustup/toolchains/stable-aarch64-apple-darwin/lib/rustlib/src/rust/library/alloc/src/raw_vec.rs:337
80203854: 6161         	addi	sp, sp, 0x50
80203856: 8082         	ret

0000000080203858 <alloc::raw_vec::RawVecInner$LT$A$GT$::deallocate::h91d934a50299fa0f>:
; alloc::raw_vec::RawVecInner$LT$A$GT$::deallocate::h91d934a50299fa0f():
; /Users/lewis/.rustup/toolchains/stable-aarch64-apple-darwin/lib/rustlib/src/rust/library/alloc/src/raw_vec.rs:735
80203858: 711d         	addi	sp, sp, -0x60
8020385a: ec86         	sd	ra, 0x58(sp)
8020385c: 86b2         	mv	a3, a2
8020385e: 862e         	mv	a2, a1
80203860: 85aa         	mv	a1, a0
80203862: e42e         	sd	a1, 0x8(sp)
80203864: f42e         	sd	a1, 0x28(sp)
80203866: f832         	sd	a2, 0x30(sp)
80203868: fc36         	sd	a3, 0x38(sp)
8020386a: 0808         	addi	a0, sp, 0x10
; /Users/lewis/.rustup/toolchains/stable-aarch64-apple-darwin/lib/rustlib/src/rust/library/alloc/src/raw_vec.rs:736
8020386c: 00000097     	auipc	ra, 0x0
80203870: 02e080e7     	jalr	0x2e(ra) <alloc::raw_vec::RawVecInner$LT$A$GT$::current_memory::h9e92c7b31eadf9c7>
80203874: 6562         	ld	a0, 0x18(sp)
80203876: cd19         	beqz	a0, 0x80203894 <alloc::raw_vec::RawVecInner$LT$A$GT$::deallocate::h91d934a50299fa0f+0x3c>
80203878: a009         	j	0x8020387a <alloc::raw_vec::RawVecInner$LT$A$GT$::deallocate::h91d934a50299fa0f+0x22>
8020387a: 6522         	ld	a0, 0x8(sp)
; /Users/lewis/.rustup/toolchains/stable-aarch64-apple-darwin/lib/rustlib/src/rust/library/alloc/src/raw_vec.rs:736
8020387c: 65c2         	ld	a1, 0x10(sp)
8020387e: e0ae         	sd	a1, 0x40(sp)
80203880: 6662         	ld	a2, 0x18(sp)
80203882: 7682         	ld	a3, 0x20(sp)
80203884: e4b2         	sd	a2, 0x48(sp)
80203886: e8b6         	sd	a3, 0x50(sp)
; /Users/lewis/.rustup/toolchains/stable-aarch64-apple-darwin/lib/rustlib/src/rust/library/alloc/src/raw_vec.rs:738
80203888: 0541         	addi	a0, a0, 0x10
8020388a: ffffd097     	auipc	ra, 0xffffd
8020388e: 58a080e7     	jalr	0x58a(ra) <free_mem_start+0xff5f7e14>
; /Users/lewis/.rustup/toolchains/stable-aarch64-apple-darwin/lib/rustlib/src/rust/library/alloc/src/raw_vec.rs:736
80203892: a009         	j	0x80203894 <alloc::raw_vec::RawVecInner$LT$A$GT$::deallocate::h91d934a50299fa0f+0x3c>
80203894: 60e6         	ld	ra, 0x58(sp)
; /Users/lewis/.rustup/toolchains/stable-aarch64-apple-darwin/lib/rustlib/src/rust/library/alloc/src/raw_vec.rs:741
80203896: 6125         	addi	sp, sp, 0x60
80203898: 8082         	ret

000000008020389a <alloc::raw_vec::RawVecInner$LT$A$GT$::current_memory::h9e92c7b31eadf9c7>:
; alloc::raw_vec::RawVecInner$LT$A$GT$::current_memory::h9e92c7b31eadf9c7():
; /Users/lewis/.rustup/toolchains/stable-aarch64-apple-darwin/lib/rustlib/src/rust/library/alloc/src/raw_vec.rs:511
8020389a: 7131         	addi	sp, sp, -0xc0
8020389c: fd06         	sd	ra, 0xb8(sp)
8020389e: e42e         	sd	a1, 0x8(sp)
802038a0: e82a         	sd	a0, 0x10(sp)
802038a2: f032         	sd	a2, 0x20(sp)
802038a4: f436         	sd	a3, 0x28(sp)
802038a6: f0ae         	sd	a1, 0x60(sp)
802038a8: 1008         	addi	a0, sp, 0x20
; /Users/lewis/.rustup/toolchains/stable-aarch64-apple-darwin/lib/rustlib/src/rust/library/alloc/src/raw_vec.rs:512
802038aa: f4aa         	sd	a0, 0x68(sp)
; /Users/lewis/.rustup/toolchains/stable-aarch64-apple-darwin/lib/rustlib/src/rust/library/core/src/alloc/layout.rs:151
802038ac: 7522         	ld	a0, 0x28(sp)
802038ae: ec2a         	sd	a0, 0x18(sp)
802038b0: f8aa         	sd	a0, 0x70(sp)
; /Users/lewis/.rustup/toolchains/stable-aarch64-apple-darwin/lib/rustlib/src/rust/library/alloc/src/raw_vec.rs:512
802038b2: e511         	bnez	a0, 0x802038be <alloc::raw_vec::RawVecInner$LT$A$GT$::current_memory::h9e92c7b31eadf9c7+0x24>
802038b4: a009         	j	0x802038b6 <alloc::raw_vec::RawVecInner$LT$A$GT$::current_memory::h9e92c7b31eadf9c7+0x1c>
802038b6: 65c2         	ld	a1, 0x10(sp)
802038b8: 4501         	li	a0, 0x0
; /Users/lewis/.rustup/toolchains/stable-aarch64-apple-darwin/lib/rustlib/src/rust/library/alloc/src/raw_vec.rs:513
802038ba: e588         	sd	a0, 0x8(a1)
; /Users/lewis/.rustup/toolchains/stable-aarch64-apple-darwin/lib/rustlib/src/rust/library/alloc/src/raw_vec.rs:512
802038bc: a829         	j	0x802038d6 <alloc::raw_vec::RawVecInner$LT$A$GT$::current_memory::h9e92c7b31eadf9c7+0x3c>
802038be: 6522         	ld	a0, 0x8(sp)
; /Users/lewis/.rustup/toolchains/stable-aarch64-apple-darwin/lib/rustlib/src/rust/library/alloc/src/raw_vec.rs:512
802038c0: 6108         	ld	a0, 0x0(a0)
802038c2: e119         	bnez	a0, 0x802038c8 <alloc::raw_vec::RawVecInner$LT$A$GT$::current_memory::h9e92c7b31eadf9c7+0x2e>
802038c4: a009         	j	0x802038c6 <alloc::raw_vec::RawVecInner$LT$A$GT$::current_memory::h9e92c7b31eadf9c7+0x2c>
802038c6: bfc5         	j	0x802038b6 <alloc::raw_vec::RawVecInner$LT$A$GT$::current_memory::h9e92c7b31eadf9c7+0x1c>
802038c8: 6522         	ld	a0, 0x8(sp)
802038ca: 100c         	addi	a1, sp, 0x20
; /Users/lewis/.rustup/toolchains/stable-aarch64-apple-darwin/lib/rustlib/src/rust/library/alloc/src/raw_vec.rs:520
802038cc: fcae         	sd	a1, 0x78(sp)
802038ce: 6108         	ld	a0, 0x0(a0)
802038d0: e02a         	sd	a0, 0x0(sp)
802038d2: e12a         	sd	a0, 0x80(sp)
; /Users/lewis/.rustup/toolchains/stable-aarch64-apple-darwin/lib/rustlib/src/rust/library/core/src/ub_checks.rs:76
802038d4: a021         	j	0x802038dc <alloc::raw_vec::RawVecInner$LT$A$GT$::current_memory::h9e92c7b31eadf9c7+0x42>
802038d6: 70ea         	ld	ra, 0xb8(sp)
; /Users/lewis/.rustup/toolchains/stable-aarch64-apple-darwin/lib/rustlib/src/rust/library/alloc/src/raw_vec.rs:525
802038d8: 6129         	addi	sp, sp, 0xc0
802038da: 8082         	ret
802038dc: 6562         	ld	a0, 0x18(sp)
802038de: 6582         	ld	a1, 0x0(sp)
; /Users/lewis/.rustup/toolchains/stable-aarch64-apple-darwin/lib/rustlib/src/rust/library/core/src/ub_checks.rs:77
802038e0: 00000097     	auipc	ra, 0x0
802038e4: 98c080e7     	jalr	-0x674(ra) <core::num::_$LT$impl$u20$usize$GT$::unchecked_mul::precondition_check::h708286ed6a8f827e>
802038e8: 6582         	ld	a1, 0x0(sp)
802038ea: 6562         	ld	a0, 0x18(sp)
; /Users/lewis/.rustup/toolchains/stable-aarch64-apple-darwin/lib/rustlib/src/rust/library/core/src/num/uint_macros.rs:922
802038ec: 02b50533     	mul	a0, a0, a1
802038f0: f82a         	sd	a0, 0x30(sp)
; /Users/lewis/.rustup/toolchains/stable-aarch64-apple-darwin/lib/rustlib/src/rust/library/alloc/src/raw_vec.rs:521
802038f2: 7542         	ld	a0, 0x30(sp)
802038f4: e52a         	sd	a0, 0x88(sp)
802038f6: 1008         	addi	a0, sp, 0x20
802038f8: e92a         	sd	a0, 0x90(sp)
; /Users/lewis/.rustup/toolchains/stable-aarch64-apple-darwin/lib/rustlib/src/rust/library/core/src/alloc/layout.rs:164
802038fa: 7502         	ld	a0, 0x20(sp)
802038fc: ed2a         	sd	a0, 0x98(sp)
; /Users/lewis/.rustup/toolchains/stable-aarch64-apple-darwin/lib/rustlib/src/rust/library/core/src/ptr/alignment.rs:95
802038fe: ecaa         	sd	a0, 0x58(sp)
80203900: 6566         	ld	a0, 0x58(sp)
80203902: fc2a         	sd	a0, 0x38(sp)
; /Users/lewis/.rustup/toolchains/stable-aarch64-apple-darwin/lib/rustlib/src/rust/library/core/src/ub_checks.rs:76
80203904: a009         	j	0x80203906 <alloc::raw_vec::RawVecInner$LT$A$GT$::current_memory::h9e92c7b31eadf9c7+0x6c>
; /Users/lewis/.rustup/toolchains/stable-aarch64-apple-darwin/lib/rustlib/src/rust/library/core/src/ub_checks.rs:77
80203906: 7542         	ld	a0, 0x30(sp)
80203908: 75e2         	ld	a1, 0x38(sp)
8020390a: 00000097     	auipc	ra, 0x0
8020390e: 852080e7     	jalr	-0x7ae(ra) <core::alloc::layout::Layout::from_size_align_unchecked::precondition_check::hef6c16faa97b8dad>
80203912: a009         	j	0x80203914 <alloc::raw_vec::RawVecInner$LT$A$GT$::current_memory::h9e92c7b31eadf9c7+0x7a>
80203914: 65c2         	ld	a1, 0x10(sp)
80203916: 66a2         	ld	a3, 0x8(sp)
; /Users/lewis/.rustup/toolchains/stable-aarch64-apple-darwin/lib/rustlib/src/rust/library/core/src/alloc/layout.rs:142
80203918: 7662         	ld	a2, 0x38(sp)
8020391a: 7542         	ld	a0, 0x30(sp)
8020391c: f132         	sd	a2, 0xa0(sp)
8020391e: f52a         	sd	a0, 0xa8(sp)
; /Users/lewis/.rustup/toolchains/stable-aarch64-apple-darwin/lib/rustlib/src/rust/library/alloc/src/raw_vec.rs:522
80203920: 6694         	ld	a3, 0x8(a3)
80203922: f936         	sd	a3, 0xb0(sp)
80203924: e0b6         	sd	a3, 0x40(sp)
80203926: e4b2         	sd	a2, 0x48(sp)
80203928: e8aa         	sd	a0, 0x50(sp)
8020392a: 6546         	ld	a0, 0x50(sp)
8020392c: e988         	sd	a0, 0x10(a1)
8020392e: 6526         	ld	a0, 0x48(sp)
80203930: e588         	sd	a0, 0x8(a1)
80203932: 6506         	ld	a0, 0x40(sp)
80203934: e188         	sd	a0, 0x0(a1)
; /Users/lewis/.rustup/toolchains/stable-aarch64-apple-darwin/lib/rustlib/src/rust/library/alloc/src/raw_vec.rs:512
80203936: b745         	j	0x802038d6 <alloc::raw_vec::RawVecInner$LT$A$GT$::current_memory::h9e92c7b31eadf9c7+0x3c>

0000000080203938 <alloc::raw_vec::RawVecInner$LT$A$GT$::grow_amortized::hcac3a75e0de627d5>:
; alloc::raw_vec::RawVecInner$LT$A$GT$::grow_amortized::hcac3a75e0de627d5():
; /Users/lewis/.rustup/toolchains/stable-aarch64-apple-darwin/lib/rustlib/src/rust/library/alloc/src/raw_vec.rs:620
80203938: c9010113     	addi	sp, sp, -0x370
8020393c: 36113423     	sd	ra, 0x368(sp)
80203940: 87ba         	mv	a5, a4
80203942: 8836         	mv	a6, a3
80203944: f432         	sd	a2, 0x28(sp)
80203946: 86ae         	mv	a3, a1
80203948: f836         	sd	a3, 0x30(sp)
8020394a: 872a         	mv	a4, a0
8020394c: fc3a         	sd	a4, 0x38(sp)

000000008020394e <.Lpcrel_hi2>:
; .Lpcrel_hi2():
; /Users/lewis/.rustup/toolchains/stable-aarch64-apple-darwin/lib/rustlib/src/rust/library/alloc/src/raw_vec.rs:620
8020394e: 00003517     	auipc	a0, 0x3
80203952: 85250513     	addi	a0, a0, -0x7ae
80203956: 610c         	ld	a1, 0x0(a0)
80203958: 6508         	ld	a0, 0x8(a0)
8020395a: e4c2         	sd	a6, 0x48(sp)
8020395c: e8be         	sd	a5, 0x50(sp)
8020395e: f3ba         	sd	a4, 0x1e0(sp)
80203960: f7b6         	sd	a3, 0x1e8(sp)
80203962: fbb2         	sd	a2, 0x1f0(sp)
; /Users/lewis/.rustup/toolchains/stable-aarch64-apple-darwin/lib/rustlib/src/rust/library/core/src/convert/mod.rs:758
80203964: ffae         	sd	a1, 0x1f8(sp)
80203966: 20a13023     	sd	a0, 0x200(sp)
; /Users/lewis/.rustup/toolchains/stable-aarch64-apple-darwin/lib/rustlib/src/rust/library/alloc/src/collections/mod.rs:113
8020396a: 20b13423     	sd	a1, 0x208(sp)
8020396e: 20a13823     	sd	a0, 0x210(sp)
; /Users/lewis/.rustup/toolchains/stable-aarch64-apple-darwin/lib/rustlib/src/rust/library/core/src/option.rs:1246
80203972: 20b13c23     	sd	a1, 0x218(sp)
80203976: 22a13023     	sd	a0, 0x220(sp)
; /Users/lewis/.rustup/toolchains/stable-aarch64-apple-darwin/lib/rustlib/src/rust/library/core/src/convert/mod.rs:758
8020397a: 22b13823     	sd	a1, 0x230(sp)
8020397e: 22a13c23     	sd	a0, 0x238(sp)
; /Users/lewis/.rustup/toolchains/stable-aarch64-apple-darwin/lib/rustlib/src/rust/library/alloc/src/collections/mod.rs:113
80203982: 24b13023     	sd	a1, 0x240(sp)
80203986: 24a13423     	sd	a0, 0x248(sp)
8020398a: 00a8         	addi	a0, sp, 0x48
; /Users/lewis/.rustup/toolchains/stable-aarch64-apple-darwin/lib/rustlib/src/rust/library/alloc/src/raw_vec.rs:629
8020398c: 24a13823     	sd	a0, 0x250(sp)
; /Users/lewis/.rustup/toolchains/stable-aarch64-apple-darwin/lib/rustlib/src/rust/library/core/src/alloc/layout.rs:151
80203990: 6546         	ld	a0, 0x50(sp)
80203992: e0aa         	sd	a0, 0x40(sp)
80203994: 24a13c23     	sd	a0, 0x258(sp)
; /Users/lewis/.rustup/toolchains/stable-aarch64-apple-darwin/lib/rustlib/src/rust/library/alloc/src/raw_vec.rs:629
80203998: e919         	bnez	a0, 0x802039ae <.Lpcrel_hi3+0x12>
8020399a: a009         	j	0x8020399c <.Lpcrel_hi3>

000000008020399c <.Lpcrel_hi3>:
; .Lpcrel_hi3():
; /Users/lewis/.rustup/toolchains/stable-aarch64-apple-darwin/lib/rustlib/src/rust/library/alloc/src/raw_vec.rs:632
8020399c: 00003517     	auipc	a0, 0x3
802039a0: 80450513     	addi	a0, a0, -0x7fc
802039a4: 610c         	ld	a1, 0x0(a0)
802039a6: 6508         	ld	a0, 0x8(a0)
802039a8: ecae         	sd	a1, 0x58(sp)
802039aa: f0aa         	sd	a0, 0x60(sp)
802039ac: a829         	j	0x802039c6 <.Lpcrel_hi3+0x2a>
802039ae: 75c2         	ld	a1, 0x30(sp)
802039b0: 7522         	ld	a0, 0x28(sp)
; /Users/lewis/.rustup/toolchains/stable-aarch64-apple-darwin/lib/rustlib/src/rust/library/core/src/num/uint_macros.rs:494
802039b2: 952e         	add	a0, a0, a1
802039b4: 00b53533     	sltu	a0, a0, a1
; /Users/lewis/.rustup/toolchains/stable-aarch64-apple-darwin/lib/rustlib/src/rust/library/core/src/num/mod.rs:22
802039b8: 26a103a3     	sb	a0, 0x267(sp)
802039bc: 26714503     	lbu	a0, 0x267(sp)
802039c0: 8905         	andi	a0, a0, 0x1
802039c2: e53d         	bnez	a0, 0x80203a30 <.Lpcrel_hi4>
802039c4: a801         	j	0x802039d4 <.Lpcrel_hi3+0x38>
; /Users/lewis/.rustup/toolchains/stable-aarch64-apple-darwin/lib/rustlib/src/rust/library/alloc/src/raw_vec.rs:650
802039c6: 6566         	ld	a0, 0x58(sp)
802039c8: 7586         	ld	a1, 0x60(sp)
802039ca: 36813083     	ld	ra, 0x368(sp)
802039ce: 37010113     	addi	sp, sp, 0x370
802039d2: 8082         	ret
802039d4: 75e2         	ld	a1, 0x38(sp)
802039d6: 7542         	ld	a0, 0x30(sp)
802039d8: 7622         	ld	a2, 0x28(sp)
; /Users/lewis/.rustup/toolchains/stable-aarch64-apple-darwin/lib/rustlib/src/rust/library/core/src/num/uint_macros.rs:498
802039da: 9532         	add	a0, a0, a2
802039dc: e92a         	sd	a0, 0x90(sp)
802039de: 4505         	li	a0, 0x1
802039e0: e52a         	sd	a0, 0x88(sp)
; /Users/lewis/.rustup/toolchains/stable-aarch64-apple-darwin/lib/rustlib/src/rust/library/core/src/option.rs:1248
802039e2: 654a         	ld	a0, 0x90(sp)
802039e4: 26a13423     	sd	a0, 0x268(sp)
802039e8: e12a         	sd	a0, 0x80(sp)
802039ea: 557d         	li	a0, -0x1
802039ec: 157e         	slli	a0, a0, 0x3f
802039ee: 0505         	addi	a0, a0, 0x1
802039f0: fcaa         	sd	a0, 0x78(sp)
; /Users/lewis/.rustup/toolchains/stable-aarch64-apple-darwin/lib/rustlib/src/rust/library/core/src/result.rs:1998
802039f2: 660a         	ld	a2, 0x80(sp)
802039f4: 26c13823     	sd	a2, 0x270(sp)
802039f8: f8b2         	sd	a2, 0x70(sp)
802039fa: f4aa         	sd	a0, 0x68(sp)
; /Users/lewis/.rustup/toolchains/stable-aarch64-apple-darwin/lib/rustlib/src/rust/library/alloc/src/raw_vec.rs:636
802039fc: 7546         	ld	a0, 0x70(sp)
802039fe: f02a         	sd	a0, 0x20(sp)
80203a00: 26a13c23     	sd	a0, 0x278(sp)
; /Users/lewis/.rustup/toolchains/stable-aarch64-apple-darwin/lib/rustlib/src/rust/library/alloc/src/raw_vec.rs:640
80203a04: 618c         	ld	a1, 0x0(a1)
80203a06: 0586         	slli	a1, a1, 0x1
80203a08: f92e         	sd	a1, 0xb0(sp)
80203a0a: fd2a         	sd	a0, 0xb8(sp)
80203a0c: 1908         	addi	a0, sp, 0xb0
80203a0e: 192c         	addi	a1, sp, 0xb8
; /Users/lewis/.rustup/toolchains/stable-aarch64-apple-darwin/lib/rustlib/src/rust/library/core/src/cmp.rs:1513
80203a10: fffff097     	auipc	ra, 0xfffff
80203a14: 5b4080e7     	jalr	0x5b4(ra) <free_mem_start+0xff5f9fc4>
80203a18: 18a10b23     	sb	a0, 0x196(sp)
80203a1c: 19614503     	lbu	a0, 0x196(sp)
80203a20: 2505         	addiw	a0, a0, 0x1
80203a22: 0ff57513     	andi	a0, a0, 0xff
80203a26: 4589         	li	a1, 0x2
80203a28: 04b56a63     	bltu	a0, a1, 0x80203a7c <.Lpcrel_hi4+0x4c>
80203a2c: a009         	j	0x80203a2e <.Lpcrel_hi3+0x92>
80203a2e: a891         	j	0x80203a82 <.Lpcrel_hi4+0x52>

0000000080203a30 <.Lpcrel_hi4>:
; .Lpcrel_hi4():
; /Users/lewis/.rustup/toolchains/stable-aarch64-apple-darwin/lib/rustlib/src/rust/library/core/src/num/uint_macros.rs:495
80203a30: 00002517     	auipc	a0, 0x2
80203a34: 77050513     	addi	a0, a0, 0x770
80203a38: 6110         	ld	a2, 0x0(a0)
80203a3a: 650c         	ld	a1, 0x8(a0)
80203a3c: e532         	sd	a2, 0x88(sp)
80203a3e: e92e         	sd	a1, 0x90(sp)
; /Users/lewis/.rustup/toolchains/stable-aarch64-apple-darwin/lib/rustlib/src/rust/library/core/src/option.rs:1249
80203a40: 610c         	ld	a1, 0x0(a0)
80203a42: 6508         	ld	a0, 0x8(a0)
80203a44: fcae         	sd	a1, 0x78(sp)
80203a46: e12a         	sd	a0, 0x80(sp)
; /Users/lewis/.rustup/toolchains/stable-aarch64-apple-darwin/lib/rustlib/src/rust/library/core/src/result.rs:1999
80203a48: 75e6         	ld	a1, 0x78(sp)
80203a4a: 650a         	ld	a0, 0x80(sp)
80203a4c: 34b13423     	sd	a1, 0x348(sp)
80203a50: 34a13823     	sd	a0, 0x350(sp)
80203a54: e32e         	sd	a1, 0x180(sp)
80203a56: e72a         	sd	a0, 0x188(sp)
80203a58: 659a         	ld	a1, 0x180(sp)
80203a5a: 653a         	ld	a0, 0x188(sp)
80203a5c: f4ae         	sd	a1, 0x68(sp)
80203a5e: f8aa         	sd	a0, 0x70(sp)
; /Users/lewis/.rustup/toolchains/stable-aarch64-apple-darwin/lib/rustlib/src/rust/library/alloc/src/raw_vec.rs:636
80203a60: 75a6         	ld	a1, 0x68(sp)
80203a62: 7546         	ld	a0, 0x70(sp)
80203a64: ed2e         	sd	a1, 0x98(sp)
80203a66: f12a         	sd	a0, 0xa0(sp)
; /Users/lewis/.rustup/toolchains/stable-aarch64-apple-darwin/lib/rustlib/src/rust/library/core/src/result.rs:2010
80203a68: 65ea         	ld	a1, 0x98(sp)
80203a6a: 750a         	ld	a0, 0xa0(sp)
80203a6c: 34b13c23     	sd	a1, 0x358(sp)
80203a70: 36a13023     	sd	a0, 0x360(sp)
80203a74: ecae         	sd	a1, 0x58(sp)
80203a76: f0aa         	sd	a0, 0x60(sp)
80203a78: aae1         	j	0x80203c50 <.Lpcrel_hi6+0x4a>
80203a7a: 0000         	unimp
80203a7c: 7502         	ld	a0, 0x20(sp)
; /Users/lewis/.rustup/toolchains/stable-aarch64-apple-darwin/lib/rustlib/src/rust/library/core/src/cmp.rs:1514
80203a7e: f52a         	sd	a0, 0xa8(sp)
; /Users/lewis/.rustup/toolchains/stable-aarch64-apple-darwin/lib/rustlib/src/rust/library/core/src/cmp.rs:1517
80203a80: a021         	j	0x80203a88 <.Lpcrel_hi4+0x58>
; /Users/lewis/.rustup/toolchains/stable-aarch64-apple-darwin/lib/rustlib/src/rust/library/core/src/cmp.rs:1515
80203a82: 754a         	ld	a0, 0xb0(sp)
80203a84: f52a         	sd	a0, 0xa8(sp)
; /Users/lewis/.rustup/toolchains/stable-aarch64-apple-darwin/lib/rustlib/src/rust/library/core/src/cmp.rs:1517
80203a86: a009         	j	0x80203a88 <.Lpcrel_hi4+0x58>
80203a88: 6506         	ld	a0, 0x40(sp)
80203a8a: 00ac         	addi	a1, sp, 0x48
; /Users/lewis/.rustup/toolchains/stable-aarch64-apple-darwin/lib/rustlib/src/rust/library/alloc/src/raw_vec.rs:641
80203a8c: 28b13023     	sd	a1, 0x280(sp)
80203a90: 4585         	li	a1, 0x1
; /Users/lewis/.rustup/toolchains/stable-aarch64-apple-darwin/lib/rustlib/src/rust/library/alloc/src/raw_vec.rs:162
80203a92: 00b51663     	bne	a0, a1, 0x80203a9e <.Lpcrel_hi4+0x6e>
80203a96: a009         	j	0x80203a98 <.Lpcrel_hi4+0x68>
80203a98: 4521         	li	a0, 0x8
; /Users/lewis/.rustup/toolchains/stable-aarch64-apple-darwin/lib/rustlib/src/rust/library/alloc/src/raw_vec.rs:163
80203a9a: e5aa         	sd	a0, 0xc8(sp)
; /Users/lewis/.rustup/toolchains/stable-aarch64-apple-darwin/lib/rustlib/src/rust/library/alloc/src/raw_vec.rs:162
80203a9c: a039         	j	0x80203aaa <.Lpcrel_hi4+0x7a>
80203a9e: 6506         	ld	a0, 0x40(sp)
80203aa0: 40100593     	li	a1, 0x401
; /Users/lewis/.rustup/toolchains/stable-aarch64-apple-darwin/lib/rustlib/src/rust/library/alloc/src/raw_vec.rs:164
80203aa4: 02b56a63     	bltu	a0, a1, 0x80203ad8 <.Lpcrel_hi4+0xa8>
80203aa8: a02d         	j	0x80203ad2 <.Lpcrel_hi4+0xa2>
; /Users/lewis/.rustup/toolchains/stable-aarch64-apple-darwin/lib/rustlib/src/rust/library/alloc/src/raw_vec.rs:641
80203aaa: 752a         	ld	a0, 0xa8(sp)
80203aac: e9aa         	sd	a0, 0xd0(sp)
80203aae: 01a8         	addi	a0, sp, 0xc8
80203ab0: 098c         	addi	a1, sp, 0xd0
; /Users/lewis/.rustup/toolchains/stable-aarch64-apple-darwin/lib/rustlib/src/rust/library/core/src/cmp.rs:1513
80203ab2: fffff097     	auipc	ra, 0xfffff
80203ab6: 512080e7     	jalr	0x512(ra) <free_mem_start+0xff5f9fc4>
80203aba: 18a10ba3     	sb	a0, 0x197(sp)
80203abe: 19714503     	lbu	a0, 0x197(sp)
80203ac2: 2505         	addiw	a0, a0, 0x1
80203ac4: 0ff57513     	andi	a0, a0, 0xff
80203ac8: 4589         	li	a1, 0x2
80203aca: 00b56b63     	bltu	a0, a1, 0x80203ae0 <.Lpcrel_hi4+0xb0>
80203ace: a009         	j	0x80203ad0 <.Lpcrel_hi4+0xa0>
80203ad0: a819         	j	0x80203ae6 <.Lpcrel_hi4+0xb6>
80203ad2: 4505         	li	a0, 0x1
; /Users/lewis/.rustup/toolchains/stable-aarch64-apple-darwin/lib/rustlib/src/rust/library/alloc/src/raw_vec.rs:167
80203ad4: e5aa         	sd	a0, 0xc8(sp)
; /Users/lewis/.rustup/toolchains/stable-aarch64-apple-darwin/lib/rustlib/src/rust/library/alloc/src/raw_vec.rs:164
80203ad6: a021         	j	0x80203ade <.Lpcrel_hi4+0xae>
80203ad8: 4511         	li	a0, 0x4
; /Users/lewis/.rustup/toolchains/stable-aarch64-apple-darwin/lib/rustlib/src/rust/library/alloc/src/raw_vec.rs:165
80203ada: e5aa         	sd	a0, 0xc8(sp)
; /Users/lewis/.rustup/toolchains/stable-aarch64-apple-darwin/lib/rustlib/src/rust/library/alloc/src/raw_vec.rs:164
80203adc: a009         	j	0x80203ade <.Lpcrel_hi4+0xae>
; /Users/lewis/.rustup/toolchains/stable-aarch64-apple-darwin/lib/rustlib/src/rust/library/alloc/src/raw_vec.rs:162
80203ade: b7f1         	j	0x80203aaa <.Lpcrel_hi4+0x7a>
; /Users/lewis/.rustup/toolchains/stable-aarch64-apple-darwin/lib/rustlib/src/rust/library/core/src/cmp.rs:1514
80203ae0: 654e         	ld	a0, 0xd0(sp)
80203ae2: e1aa         	sd	a0, 0xc0(sp)
; /Users/lewis/.rustup/toolchains/stable-aarch64-apple-darwin/lib/rustlib/src/rust/library/core/src/cmp.rs:1517
80203ae4: a021         	j	0x80203aec <.Lpcrel_hi4+0xbc>
; /Users/lewis/.rustup/toolchains/stable-aarch64-apple-darwin/lib/rustlib/src/rust/library/core/src/cmp.rs:1515
80203ae6: 652e         	ld	a0, 0xc8(sp)
80203ae8: e1aa         	sd	a0, 0xc0(sp)
; /Users/lewis/.rustup/toolchains/stable-aarch64-apple-darwin/lib/rustlib/src/rust/library/core/src/cmp.rs:1517
80203aea: a009         	j	0x80203aec <.Lpcrel_hi4+0xbc>
; /Users/lewis/.rustup/toolchains/stable-aarch64-apple-darwin/lib/rustlib/src/rust/library/alloc/src/raw_vec.rs:643
80203aec: 660e         	ld	a2, 0xc0(sp)
80203aee: 28c13423     	sd	a2, 0x288(sp)
80203af2: 65a6         	ld	a1, 0x48(sp)
80203af4: 6546         	ld	a0, 0x50(sp)
80203af6: e62e         	sd	a1, 0x108(sp)
80203af8: ea2a         	sd	a0, 0x110(sp)
80203afa: 1328         	addi	a0, sp, 0x1a8
80203afc: 022c         	addi	a1, sp, 0x108
; /Users/lewis/.rustup/toolchains/stable-aarch64-apple-darwin/lib/rustlib/src/rust/library/alloc/src/raw_vec.rs:799
80203afe: fffff097     	auipc	ra, 0xfffff
80203b02: 6a6080e7     	jalr	0x6a6(ra) <free_mem_start+0xff5fa1a4>
; /Users/lewis/.rustup/toolchains/stable-aarch64-apple-darwin/lib/rustlib/src/rust/library/core/src/result.rs:772
80203b06: 753a         	ld	a0, 0x1a8(sp)
80203b08: cd3d         	beqz	a0, 0x80203b86 <.Lpcrel_hi5>
80203b0a: a009         	j	0x80203b0c <.Lpcrel_hi4+0xdc>
80203b0c: 75e2         	ld	a1, 0x38(sp)
; /Users/lewis/.rustup/toolchains/stable-aarch64-apple-darwin/lib/rustlib/src/rust/library/core/src/result.rs:773
80203b0e: 763a         	ld	a2, 0x1a8(sp)
80203b10: 755a         	ld	a0, 0x1b0(sp)
80203b12: 28c13823     	sd	a2, 0x290(sp)
80203b16: 28a13c23     	sd	a0, 0x298(sp)
80203b1a: 76fa         	ld	a3, 0x1b8(sp)
80203b1c: 2ad13023     	sd	a3, 0x2a0(sp)
80203b20: ef32         	sd	a2, 0x198(sp)
80203b22: f32a         	sd	a0, 0x1a0(sp)
; /Users/lewis/.rustup/toolchains/stable-aarch64-apple-darwin/lib/rustlib/src/rust/library/core/src/result.rs:855
80203b24: 667a         	ld	a2, 0x198(sp)
80203b26: 751a         	ld	a0, 0x1a0(sp)
80203b28: 2ac13423     	sd	a2, 0x2a8(sp)
80203b2c: 2aa13823     	sd	a0, 0x2b0(sp)
80203b30: fdb2         	sd	a2, 0xf8(sp)
80203b32: e22a         	sd	a0, 0x100(sp)
80203b34: 4501         	li	a0, 0x0
80203b36: f9aa         	sd	a0, 0xf0(sp)
; /Users/lewis/.rustup/toolchains/stable-aarch64-apple-darwin/lib/rustlib/src/rust/library/core/src/result.rs:1998
80203b38: 76ee         	ld	a3, 0xf8(sp)
80203b3a: 6612         	ld	a2, 0x100(sp)
80203b3c: 2ad13c23     	sd	a3, 0x2b8(sp)
80203b40: 2cc13023     	sd	a2, 0x2c0(sp)
80203b44: f1b6         	sd	a3, 0xe0(sp)
80203b46: f5b2         	sd	a2, 0xe8(sp)
80203b48: edaa         	sd	a0, 0xd8(sp)
; /Users/lewis/.rustup/toolchains/stable-aarch64-apple-darwin/lib/rustlib/src/rust/library/alloc/src/raw_vec.rs:643
80203b4a: 760e         	ld	a2, 0xe0(sp)
80203b4c: e432         	sd	a2, 0x8(sp)
80203b4e: 752e         	ld	a0, 0xe8(sp)
80203b50: e82a         	sd	a0, 0x10(sp)
80203b52: 2cc13423     	sd	a2, 0x2c8(sp)
80203b56: 2ca13823     	sd	a0, 0x2d0(sp)
; /Users/lewis/.rustup/toolchains/stable-aarch64-apple-darwin/lib/rustlib/src/rust/library/alloc/src/raw_vec.rs:645
80203b5a: 6626         	ld	a2, 0x48(sp)
80203b5c: 66c6         	ld	a3, 0x50(sp)
80203b5e: 0aa8         	addi	a0, sp, 0x158
80203b60: ec2a         	sd	a0, 0x18(sp)
80203b62: 00000097     	auipc	ra, 0x0
80203b66: d38080e7     	jalr	-0x2c8(ra) <alloc::raw_vec::RawVecInner$LT$A$GT$::current_memory::h9e92c7b31eadf9c7>
80203b6a: 7562         	ld	a0, 0x38(sp)
80203b6c: 65a2         	ld	a1, 0x8(sp)
80203b6e: 6642         	ld	a2, 0x10(sp)
80203b70: 66e2         	ld	a3, 0x18(sp)
80203b72: 01050713     	addi	a4, a0, 0x10
80203b76: 0288         	addi	a0, sp, 0x140
80203b78: 00000097     	auipc	ra, 0x0
80203b7c: b94080e7     	jalr	-0x46c(ra) <alloc::raw_vec::finish_grow::h3ea0fbd3aaf8470c>
; /Users/lewis/.rustup/toolchains/stable-aarch64-apple-darwin/lib/rustlib/src/rust/library/core/src/result.rs:1997
80203b80: 6516         	ld	a0, 0x140(sp)
80203b82: c931         	beqz	a0, 0x80203bd6 <.Lpcrel_hi5+0x50>
80203b84: a851         	j	0x80203c18 <.Lpcrel_hi6+0x12>

0000000080203b86 <.Lpcrel_hi5>:
; .Lpcrel_hi5():
; /Users/lewis/.rustup/toolchains/stable-aarch64-apple-darwin/lib/rustlib/src/rust/library/core/src/result.rs:774
80203b86: 00002517     	auipc	a0, 0x2
80203b8a: 61a50513     	addi	a0, a0, 0x61a
80203b8e: 6110         	ld	a2, 0x0(a0)
80203b90: 650c         	ld	a1, 0x8(a0)
80203b92: ef32         	sd	a2, 0x198(sp)
80203b94: f32e         	sd	a1, 0x1a0(sp)
; /Users/lewis/.rustup/toolchains/stable-aarch64-apple-darwin/lib/rustlib/src/rust/library/core/src/result.rs:856
80203b96: 610c         	ld	a1, 0x0(a0)
80203b98: 6508         	ld	a0, 0x8(a0)
80203b9a: fdae         	sd	a1, 0xf8(sp)
80203b9c: e22a         	sd	a0, 0x100(sp)
80203b9e: 4505         	li	a0, 0x1
80203ba0: f9aa         	sd	a0, 0xf0(sp)
; /Users/lewis/.rustup/toolchains/stable-aarch64-apple-darwin/lib/rustlib/src/rust/library/core/src/result.rs:1999
80203ba2: 766e         	ld	a2, 0xf8(sp)
80203ba4: 6592         	ld	a1, 0x100(sp)
80203ba6: 32c13423     	sd	a2, 0x328(sp)
80203baa: 32b13823     	sd	a1, 0x330(sp)
80203bae: e3b2         	sd	a2, 0x1c0(sp)
80203bb0: e7ae         	sd	a1, 0x1c8(sp)
80203bb2: 661e         	ld	a2, 0x1c0(sp)
80203bb4: 65be         	ld	a1, 0x1c8(sp)
80203bb6: f1b2         	sd	a2, 0xe0(sp)
80203bb8: f5ae         	sd	a1, 0xe8(sp)
80203bba: edaa         	sd	a0, 0xd8(sp)
; /Users/lewis/.rustup/toolchains/stable-aarch64-apple-darwin/lib/rustlib/src/rust/library/alloc/src/raw_vec.rs:643
80203bbc: 758e         	ld	a1, 0xe0(sp)
80203bbe: 752e         	ld	a0, 0xe8(sp)
80203bc0: ee2e         	sd	a1, 0x118(sp)
80203bc2: f22a         	sd	a0, 0x120(sp)
; /Users/lewis/.rustup/toolchains/stable-aarch64-apple-darwin/lib/rustlib/src/rust/library/core/src/result.rs:2010
80203bc4: 65f2         	ld	a1, 0x118(sp)
80203bc6: 7512         	ld	a0, 0x120(sp)
80203bc8: 32b13c23     	sd	a1, 0x338(sp)
80203bcc: 34a13023     	sd	a0, 0x340(sp)
80203bd0: ecae         	sd	a1, 0x58(sp)
80203bd2: f0aa         	sd	a0, 0x60(sp)
80203bd4: a8ad         	j	0x80203c4e <.Lpcrel_hi6+0x48>
80203bd6: 75e2         	ld	a1, 0x38(sp)
; /Users/lewis/.rustup/toolchains/stable-aarch64-apple-darwin/lib/rustlib/src/rust/library/core/src/result.rs:1998
80203bd8: 6636         	ld	a2, 0x148(sp)
80203bda: 6556         	ld	a0, 0x150(sp)
80203bdc: 2cc13c23     	sd	a2, 0x2d8(sp)
80203be0: 2ea13023     	sd	a0, 0x2e0(sp)
80203be4: fa32         	sd	a2, 0x130(sp)
80203be6: fe2a         	sd	a0, 0x138(sp)
80203be8: 4501         	li	a0, 0x0
80203bea: f62a         	sd	a0, 0x128(sp)
; /Users/lewis/.rustup/toolchains/stable-aarch64-apple-darwin/lib/rustlib/src/rust/library/alloc/src/raw_vec.rs:645
80203bec: 7652         	ld	a2, 0x130(sp)
80203bee: 7572         	ld	a0, 0x138(sp)
80203bf0: 2ec13423     	sd	a2, 0x2e8(sp)
80203bf4: 2ea13823     	sd	a0, 0x2f0(sp)
; /Users/lewis/.rustup/toolchains/stable-aarch64-apple-darwin/lib/rustlib/src/rust/library/alloc/src/raw_vec.rs:648
80203bf8: 650e         	ld	a0, 0xc0(sp)
80203bfa: 2ea13c23     	sd	a0, 0x2f8(sp)
; /Users/lewis/.rustup/toolchains/stable-aarch64-apple-darwin/lib/rustlib/src/rust/library/core/src/ptr/non_null.rs:427
80203bfe: 30c13023     	sd	a2, 0x300(sp)
; /Users/lewis/.rustup/toolchains/stable-aarch64-apple-darwin/lib/rustlib/src/rust/library/alloc/src/raw_vec.rs:616
80203c02: e590         	sd	a2, 0x8(a1)
; /Users/lewis/.rustup/toolchains/stable-aarch64-apple-darwin/lib/rustlib/src/rust/library/alloc/src/raw_vec.rs:617
80203c04: e188         	sd	a0, 0x0(a1)

0000000080203c06 <.Lpcrel_hi6>:
; .Lpcrel_hi6():
; /Users/lewis/.rustup/toolchains/stable-aarch64-apple-darwin/lib/rustlib/src/rust/library/alloc/src/raw_vec.rs:649
80203c06: 00002517     	auipc	a0, 0x2
80203c0a: 57a50513     	addi	a0, a0, 0x57a
80203c0e: 610c         	ld	a1, 0x0(a0)
80203c10: 6508         	ld	a0, 0x8(a0)
80203c12: ecae         	sd	a1, 0x58(sp)
80203c14: f0aa         	sd	a0, 0x60(sp)
; /Users/lewis/.rustup/toolchains/stable-aarch64-apple-darwin/lib/rustlib/src/rust/library/alloc/src/raw_vec.rs:650
80203c16: bb45         	j	0x802039c6 <.Lpcrel_hi3+0x2a>
; /Users/lewis/.rustup/toolchains/stable-aarch64-apple-darwin/lib/rustlib/src/rust/library/core/src/result.rs:1999
80203c18: 65b6         	ld	a1, 0x148(sp)
80203c1a: 6556         	ld	a0, 0x150(sp)
80203c1c: 30b13423     	sd	a1, 0x308(sp)
80203c20: 30a13823     	sd	a0, 0x310(sp)
80203c24: ebae         	sd	a1, 0x1d0(sp)
80203c26: efaa         	sd	a0, 0x1d8(sp)
80203c28: 65de         	ld	a1, 0x1d0(sp)
80203c2a: 657e         	ld	a0, 0x1d8(sp)
80203c2c: fa2e         	sd	a1, 0x130(sp)
80203c2e: fe2a         	sd	a0, 0x138(sp)
80203c30: 4505         	li	a0, 0x1
80203c32: f62a         	sd	a0, 0x128(sp)
; /Users/lewis/.rustup/toolchains/stable-aarch64-apple-darwin/lib/rustlib/src/rust/library/alloc/src/raw_vec.rs:645
80203c34: 75d2         	ld	a1, 0x130(sp)
80203c36: 7572         	ld	a0, 0x138(sp)
80203c38: faae         	sd	a1, 0x170(sp)
80203c3a: feaa         	sd	a0, 0x178(sp)
; /Users/lewis/.rustup/toolchains/stable-aarch64-apple-darwin/lib/rustlib/src/rust/library/core/src/result.rs:2010
80203c3c: 75d6         	ld	a1, 0x170(sp)
80203c3e: 7576         	ld	a0, 0x178(sp)
80203c40: 30b13c23     	sd	a1, 0x318(sp)
80203c44: 32a13023     	sd	a0, 0x320(sp)
80203c48: ecae         	sd	a1, 0x58(sp)
80203c4a: f0aa         	sd	a0, 0x60(sp)
80203c4c: a009         	j	0x80203c4e <.Lpcrel_hi6+0x48>
80203c4e: a009         	j	0x80203c50 <.Lpcrel_hi6+0x4a>
80203c50: bb9d         	j	0x802039c6 <.Lpcrel_hi3+0x2a>

0000000080203c52 <core::hint::assert_unchecked::precondition_check::ha977b864b150b540>:
; core::hint::assert_unchecked::precondition_check::ha977b864b150b540():
; /Users/lewis/.rustup/toolchains/stable-aarch64-apple-darwin/lib/rustlib/src/rust/library/core/src/ub_checks.rs:68
80203c52: 1141         	addi	sp, sp, -0x10
80203c54: 00a107a3     	sb	a0, 0xf(sp)
; /Users/lewis/.rustup/toolchains/stable-aarch64-apple-darwin/lib/rustlib/src/rust/library/core/src/hint.rs:206
80203c58: ed01         	bnez	a0, 0x80203c70 <.Lpcrel_hi0+0x14>
80203c5a: a009         	j	0x80203c5c <.Lpcrel_hi0>

0000000080203c5c <.Lpcrel_hi0>:
; .Lpcrel_hi0():
; /Users/lewis/.rustup/toolchains/stable-aarch64-apple-darwin/lib/rustlib/src/rust/library/core/src/ub_checks.rs:70
80203c5c: 00004517     	auipc	a0, 0x4
80203c60: 80c50513     	addi	a0, a0, -0x7f4
80203c64: 06800593     	li	a1, 0x68
80203c68: 00000097     	auipc	ra, 0x0
80203c6c: 736080e7     	jalr	0x736(ra) <core::panicking::panic_nounwind::h92acbb232d24bc37>
; /Users/lewis/.rustup/toolchains/stable-aarch64-apple-darwin/lib/rustlib/src/rust/library/core/src/ub_checks.rs:74
80203c70: 0141         	addi	sp, sp, 0x10
80203c72: 8082         	ret

0000000080203c74 <core::hint::unreachable_unchecked::precondition_check::h56ee0eec944eac16>:
; core::hint::unreachable_unchecked::precondition_check::h56ee0eec944eac16():
; /Users/lewis/.rustup/toolchains/stable-aarch64-apple-darwin/lib/rustlib/src/rust/library/core/src/ub_checks.rs:70
80203c74: 00004517     	auipc	a0, 0x4
80203c78: 85c50513     	addi	a0, a0, -0x7a4
80203c7c: 05200593     	li	a1, 0x52
80203c80: 00000097     	auipc	ra, 0x0
80203c84: 71e080e7     	jalr	0x71e(ra) <core::panicking::panic_nounwind::h92acbb232d24bc37>

0000000080203c88 <core::result::Result$LT$T$C$E$GT$::ok::he963c1803336adcc>:
; core::result::Result$LT$T$C$E$GT$::ok::he963c1803336adcc():
; /Users/lewis/.rustup/toolchains/stable-aarch64-apple-darwin/lib/rustlib/src/rust/library/core/src/result.rs:657
80203c88: 1101         	addi	sp, sp, -0x20
80203c8a: e42a         	sd	a0, 0x8(sp)
; /Users/lewis/.rustup/toolchains/stable-aarch64-apple-darwin/lib/rustlib/src/rust/library/core/src/result.rs:658
80203c8c: 6522         	ld	a0, 0x8(sp)
80203c8e: c511         	beqz	a0, 0x80203c9a <core::result::Result$LT$T$C$E$GT$::ok::he963c1803336adcc+0x12>
80203c90: a009         	j	0x80203c92 <core::result::Result$LT$T$C$E$GT$::ok::he963c1803336adcc+0xa>
; /Users/lewis/.rustup/toolchains/stable-aarch64-apple-darwin/lib/rustlib/src/rust/library/core/src/result.rs:659
80203c92: 6522         	ld	a0, 0x8(sp)
80203c94: ec2a         	sd	a0, 0x18(sp)
80203c96: e82a         	sd	a0, 0x10(sp)
80203c98: a021         	j	0x80203ca0 <core::result::Result$LT$T$C$E$GT$::ok::he963c1803336adcc+0x18>
80203c9a: 4501         	li	a0, 0x0
; /Users/lewis/.rustup/toolchains/stable-aarch64-apple-darwin/lib/rustlib/src/rust/library/core/src/result.rs:660
80203c9c: e82a         	sd	a0, 0x10(sp)
80203c9e: a009         	j	0x80203ca0 <core::result::Result$LT$T$C$E$GT$::ok::he963c1803336adcc+0x18>
; /Users/lewis/.rustup/toolchains/stable-aarch64-apple-darwin/lib/rustlib/src/rust/library/core/src/result.rs:662
80203ca0: 6522         	ld	a0, 0x8(sp)
80203ca2: c509         	beqz	a0, 0x80203cac <core::result::Result$LT$T$C$E$GT$::ok::he963c1803336adcc+0x24>
80203ca4: a009         	j	0x80203ca6 <core::result::Result$LT$T$C$E$GT$::ok::he963c1803336adcc+0x1e>
80203ca6: 6542         	ld	a0, 0x10(sp)
80203ca8: 6105         	addi	sp, sp, 0x20
80203caa: 8082         	ret
80203cac: bfed         	j	0x80203ca6 <core::result::Result$LT$T$C$E$GT$::ok::he963c1803336adcc+0x1e>

0000000080203cae <core::result::Result$LT$T$C$E$GT$::is_err::h7ecd1e2d27598032>:
; core::result::Result$LT$T$C$E$GT$::is_err::h7ecd1e2d27598032():
; /Users/lewis/.rustup/toolchains/stable-aarch64-apple-darwin/lib/rustlib/src/rust/library/core/src/result.rs:606
80203cae: 1141         	addi	sp, sp, -0x10
80203cb0: e42a         	sd	a0, 0x8(sp)
; /Users/lewis/.rustup/toolchains/stable-aarch64-apple-darwin/lib/rustlib/src/rust/library/core/src/macros/mod.rs:475
80203cb2: 00054503     	lbu	a0, 0x0(a0)
80203cb6: 8905         	andi	a0, a0, 0x1
80203cb8: e511         	bnez	a0, 0x80203cc4 <core::result::Result$LT$T$C$E$GT$::is_err::h7ecd1e2d27598032+0x16>
80203cba: a009         	j	0x80203cbc <core::result::Result$LT$T$C$E$GT$::is_err::h7ecd1e2d27598032+0xe>
80203cbc: 4505         	li	a0, 0x1
; /Users/lewis/.rustup/toolchains/stable-aarch64-apple-darwin/lib/rustlib/src/rust/library/core/src/macros/mod.rs:476
80203cbe: 00a103a3     	sb	a0, 0x7(sp)
80203cc2: a029         	j	0x80203ccc <core::result::Result$LT$T$C$E$GT$::is_err::h7ecd1e2d27598032+0x1e>
80203cc4: 4501         	li	a0, 0x0
; /Users/lewis/.rustup/toolchains/stable-aarch64-apple-darwin/lib/rustlib/src/rust/library/core/src/macros/mod.rs:477
80203cc6: 00a103a3     	sb	a0, 0x7(sp)
80203cca: a009         	j	0x80203ccc <core::result::Result$LT$T$C$E$GT$::is_err::h7ecd1e2d27598032+0x1e>
; /Users/lewis/.rustup/toolchains/stable-aarch64-apple-darwin/lib/rustlib/src/rust/library/core/src/result.rs:607
80203ccc: 00714503     	lbu	a0, 0x7(sp)
80203cd0: fff54513     	not	a0, a0
; /Users/lewis/.rustup/toolchains/stable-aarch64-apple-darwin/lib/rustlib/src/rust/library/core/src/result.rs:608
80203cd4: 8905         	andi	a0, a0, 0x1
80203cd6: 0141         	addi	sp, sp, 0x10
80203cd8: 8082         	ret

0000000080203cda <rust_main>:
; rust_main():
; /Users/lewis/Github/rust-to-riscv-asm/src/main.rs:27
80203cda: 7155         	addi	sp, sp, -0xd0
80203cdc: e586         	sd	ra, 0xc8(sp)
; /Users/lewis/Github/rust-to-riscv-asm/src/main.rs:28
80203cde: 00000097     	auipc	ra, 0x0
80203ce2: 0d8080e7     	jalr	0xd8(ra) <rust_to_riscv_asm::clear_bss::hfc6f85f5a27650cf>

0000000080203ce6 <.Lpcrel_hi1>:
; .Lpcrel_hi1():
; /Users/lewis/Github/rust-to-riscv-asm/src/console.rs:26
80203ce6: 00a04517     	auipc	a0, 0xa04
80203cea: 84a50593     	addi	a1, a0, -0x7b6
80203cee: 0828         	addi	a0, sp, 0x18
80203cf0: e42a         	sd	a0, 0x8(sp)
80203cf2: 00000097     	auipc	ra, 0x0
80203cf6: 0ee080e7     	jalr	0xee(ra) <core::fmt::Arguments::new_const::h7f957f627d51b1e8>
80203cfa: 6522         	ld	a0, 0x8(sp)
80203cfc: ffffc097     	auipc	ra, 0xffffc
80203d00: 5fa080e7     	jalr	0x5fa(ra) <free_mem_start+0xff5f72f6>
; /Users/lewis/Github/rust-to-riscv-asm/src/main.rs:30
80203d04: ffffc097     	auipc	ra, 0xffffc
80203d08: 6c8080e7     	jalr	0x6c8(ra) <free_mem_start+0xff5f73cc>
80203d0c: 4505         	li	a0, 0x1
80203d0e: 4589         	li	a1, 0x2
; /Users/lewis/Github/rust-to-riscv-asm/src/main.rs:32
80203d10: 00000097     	auipc	ra, 0x0
80203d14: 072080e7     	jalr	0x72(ra) <add_number>
80203d18: c6aa         	sw	a0, 0x4c(sp)
80203d1a: 00ec         	addi	a1, sp, 0x4c
80203d1c: f92e         	sd	a1, 0xb0(sp)

0000000080203d1e <.Lpcrel_hi2>:
; .Lpcrel_hi2():
; /Users/lewis/.rustup/toolchains/stable-aarch64-apple-darwin/lib/rustlib/src/rust/library/core/src/fmt/rt.rs:114
80203d1e: 00001517     	auipc	a0, 0x1
80203d22: 3fe50513     	addi	a0, a0, 0x3fe
80203d26: fd2a         	sd	a0, 0xb8(sp)
; /Users/lewis/.rustup/toolchains/stable-aarch64-apple-darwin/lib/rustlib/src/rust/library/core/src/ptr/non_null.rs:1767
80203d28: e1ae         	sd	a1, 0xc0(sp)
; /Users/lewis/.rustup/toolchains/stable-aarch64-apple-darwin/lib/rustlib/src/rust/library/core/src/fmt/rt.rs:103
80203d2a: f12e         	sd	a1, 0xa0(sp)
80203d2c: f52a         	sd	a0, 0xa8(sp)
; /Users/lewis/.rustup/toolchains/stable-aarch64-apple-darwin/lib/rustlib/src/rust/library/core/src/fmt/rt.rs:100
80203d2e: 752a         	ld	a0, 0xa8(sp)
80203d30: ed2a         	sd	a0, 0x98(sp)
80203d32: 750a         	ld	a0, 0xa0(sp)
80203d34: e92a         	sd	a0, 0x90(sp)
; /Users/lewis/Github/rust-to-riscv-asm/src/console.rs:26
80203d36: 656a         	ld	a0, 0x98(sp)
80203d38: e52a         	sd	a0, 0x88(sp)
80203d3a: 654a         	ld	a0, 0x90(sp)
80203d3c: e12a         	sd	a0, 0x80(sp)

0000000080203d3e <.Lpcrel_hi3>:
; .Lpcrel_hi3():
; /Users/lewis/Github/rust-to-riscv-asm/src/console.rs:26
80203d3e: 00a04517     	auipc	a0, 0xa04
80203d42: 80a50593     	addi	a1, a0, -0x7f6
80203d46: 0888         	addi	a0, sp, 0x50
80203d48: e82a         	sd	a0, 0x10(sp)
80203d4a: 0110         	addi	a2, sp, 0x80
80203d4c: ffffe097     	auipc	ra, 0xffffe
80203d50: f7c080e7     	jalr	-0x84(ra) <free_mem_start+0xff5f8cc8>
80203d54: 6542         	ld	a0, 0x10(sp)
80203d56: ffffc097     	auipc	ra, 0xffffc
80203d5a: 5a0080e7     	jalr	0x5a0(ra) <free_mem_start+0xff5f72f6>
; /Users/lewis/Github/rust-to-riscv-asm/src/main.rs:35
80203d5e: ffffd097     	auipc	ra, 0xffffd
80203d62: c06080e7     	jalr	-0x3fa(ra) <free_mem_start+0xff5f7964>

0000000080203d66 <.Lpcrel_hi4>:
; .Lpcrel_hi4():
; /Users/lewis/Github/rust-to-riscv-asm/src/main.rs:36
80203d66: 00a04517     	auipc	a0, 0xa04
80203d6a: 80250513     	addi	a0, a0, -0x7fe

0000000080203d6e <.Lpcrel_hi5>:
; .Lpcrel_hi5():
; /Users/lewis/Github/rust-to-riscv-asm/src/main.rs:36
80203d6e: 00a04597     	auipc	a1, 0xa04
80203d72: 83258613     	addi	a2, a1, -0x7ce
80203d76: 02800593     	li	a1, 0x28
80203d7a: 00000097     	auipc	ra, 0x0
80203d7e: 5ea080e7     	jalr	0x5ea(ra) <core::panicking::panic::h06ccfc350ab1daef>

0000000080203d82 <add_number>:
; add_number():
; /Users/lewis/Github/rust-to-riscv-asm/src/main.rs:41
80203d82: 1141         	addi	sp, sp, -0x10
80203d84: 86aa         	mv	a3, a0
80203d86: 0005861b     	sext.w	a2, a1
80203d8a: 0006851b     	sext.w	a0, a3
80203d8e: c436         	sw	a3, 0x8(sp)
80203d90: c62e         	sw	a1, 0xc(sp)
; /Users/lewis/Github/rust-to-riscv-asm/src/main.rs:42
80203d92: 00c505b3     	add	a1, a0, a2
80203d96: e02e         	sd	a1, 0x0(sp)
80203d98: 9d31         	addw	a0, a0, a2
80203d9a: 00b51663     	bne	a0, a1, 0x80203da6 <.Lpcrel_hi6>
80203d9e: a009         	j	0x80203da0 <add_number+0x1e>
80203da0: 6502         	ld	a0, 0x0(sp)
; /Users/lewis/Github/rust-to-riscv-asm/src/main.rs:43
80203da2: 0141         	addi	sp, sp, 0x10
80203da4: 8082         	ret

0000000080203da6 <.Lpcrel_hi6>:
; .Lpcrel_hi6():
; /Users/lewis/Github/rust-to-riscv-asm/src/main.rs:42
80203da6: 00a04517     	auipc	a0, 0xa04
80203daa: 81250513     	addi	a0, a0, -0x7ee
80203dae: 00001097     	auipc	ra, 0x1
80203db2: 084080e7     	jalr	0x84(ra) <core::panicking::panic_const::panic_const_add_overflow::h1eeea1441bfc0f05>

0000000080203db6 <rust_to_riscv_asm::clear_bss::hfc6f85f5a27650cf>:
; rust_to_riscv_asm::clear_bss::hfc6f85f5a27650cf():
; /Users/lewis/Github/rust-to-riscv-asm/src/main.rs:46
80203db6: 1141         	addi	sp, sp, -0x10
80203db8: e406         	sd	ra, 0x8(sp)

0000000080203dba <.Lpcrel_hi7>:
; .Lpcrel_hi7():
; /Users/lewis/Github/rust-to-riscv-asm/src/main.rs:51
80203dba: 00a04517     	auipc	a0, 0xa04
80203dbe: 24650513     	addi	a0, a0, 0x246

0000000080203dc2 <.Lpcrel_hi8>:
; .Lpcrel_hi8():
; /Users/lewis/Github/rust-to-riscv-asm/src/main.rs:51
80203dc2: 00a05597     	auipc	a1, 0xa05
80203dc6: 23e58593     	addi	a1, a1, 0x23e
80203dca: ffffd097     	auipc	ra, 0xffffd
80203dce: 49e080e7     	jalr	0x49e(ra) <free_mem_start+0xff5f8268>
80203dd2: 60a2         	ld	ra, 0x8(sp)
; /Users/lewis/Github/rust-to-riscv-asm/src/main.rs:52
80203dd4: 0141         	addi	sp, sp, 0x10
80203dd6: 8082         	ret

0000000080203dd8 <__rust_alloc_error_handler>:
; __rust_alloc_error_handler():
80203dd8: 00000317     	auipc	t1, 0x0
80203ddc: 34a30067     	jr	0x34a(t1) <__rdl_oom>

0000000080203de0 <core::fmt::Arguments::new_const::h7f957f627d51b1e8>:
; core::fmt::Arguments::new_const::h7f957f627d51b1e8():
; /Users/lewis/.rustup/toolchains/stable-aarch64-apple-darwin/lib/rustlib/src/rust/library/core/src/fmt/mod.rs:337
80203de0: 1141         	addi	sp, sp, -0x10
80203de2: e02e         	sd	a1, 0x0(sp)
80203de4: 85aa         	mv	a1, a0
80203de6: 6502         	ld	a0, 0x0(sp)
80203de8: e42a         	sd	a0, 0x8(sp)
; /Users/lewis/.rustup/toolchains/stable-aarch64-apple-darwin/lib/rustlib/src/rust/library/core/src/fmt/mod.rs:339
80203dea: e188         	sd	a0, 0x0(a1)
80203dec: 4505         	li	a0, 0x1
80203dee: e588         	sd	a0, 0x8(a1)

0000000080203df0 <.Lpcrel_hi0>:
; .Lpcrel_hi0():
; /Users/lewis/.rustup/toolchains/stable-aarch64-apple-darwin/lib/rustlib/src/rust/library/core/src/fmt/mod.rs:339
80203df0: 00002517     	auipc	a0, 0x2
80203df4: 3b050513     	addi	a0, a0, 0x3b0
80203df8: 6110         	ld	a2, 0x0(a0)
80203dfa: 6508         	ld	a0, 0x8(a0)
80203dfc: f190         	sd	a2, 0x20(a1)
80203dfe: f588         	sd	a0, 0x28(a1)
80203e00: 4521         	li	a0, 0x8
80203e02: e988         	sd	a0, 0x10(a1)
80203e04: 4501         	li	a0, 0x0
80203e06: ed88         	sd	a0, 0x18(a1)
; /Users/lewis/.rustup/toolchains/stable-aarch64-apple-darwin/lib/rustlib/src/rust/library/core/src/fmt/mod.rs:340
80203e08: 0141         	addi	sp, sp, 0x10
80203e0a: 8082         	ret

0000000080203e0c <core::ptr::mut_ptr::_$LT$impl$u20$$BP$mut$u20$T$GT$::is_null::hee799e25dfb30a10>:
; core::ptr::mut_ptr::_$LT$impl$u20$$BP$mut$u20$T$GT$::is_null::hee799e25dfb30a10():
; /Users/lewis/.rustup/toolchains/stable-aarch64-apple-darwin/lib/rustlib/src/rust/library/core/src/ptr/mut_ptr.rs:35
80203e0c: 1101         	addi	sp, sp, -0x20
80203e0e: e42a         	sd	a0, 0x8(sp)
; /Users/lewis/.rustup/toolchains/stable-aarch64-apple-darwin/lib/rustlib/src/rust/library/core/src/ptr/mut_ptr.rs:102
80203e10: e82a         	sd	a0, 0x10(sp)
; /Users/lewis/.rustup/toolchains/stable-aarch64-apple-darwin/lib/rustlib/src/rust/library/core/src/ptr/const_ptr.rs:54
80203e12: ec2a         	sd	a0, 0x18(sp)
; /Users/lewis/.rustup/toolchains/stable-aarch64-apple-darwin/lib/rustlib/src/rust/library/core/src/ptr/const_ptr.rs:38
80203e14: 00153513     	seqz	a0, a0
; /Users/lewis/.rustup/toolchains/stable-aarch64-apple-darwin/lib/rustlib/src/rust/library/core/src/ptr/mut_ptr.rs:37
80203e18: 6105         	addi	sp, sp, 0x20
80203e1a: 8082         	ret

0000000080203e1c <buddy_system_allocator::linked_list::LinkedList::is_empty::hb572f91918e6919d>:
; buddy_system_allocator::linked_list::LinkedList::is_empty::hb572f91918e6919d():
; /Users/lewis/.cargo/registry/src/rsproxy.cn-0dccff568467c15b/buddy_system_allocator-0.11.0/src/linked_list.rs:28
80203e1c: 1141         	addi	sp, sp, -0x10
80203e1e: e406         	sd	ra, 0x8(sp)
80203e20: e02a         	sd	a0, 0x0(sp)
; /Users/lewis/.cargo/registry/src/rsproxy.cn-0dccff568467c15b/buddy_system_allocator-0.11.0/src/linked_list.rs:29
80203e22: 6108         	ld	a0, 0x0(a0)
80203e24: 00000097     	auipc	ra, 0x0
80203e28: fe8080e7     	jalr	-0x18(ra) <core::ptr::mut_ptr::_$LT$impl$u20$$BP$mut$u20$T$GT$::is_null::hee799e25dfb30a10>
80203e2c: 60a2         	ld	ra, 0x8(sp)
; /Users/lewis/.cargo/registry/src/rsproxy.cn-0dccff568467c15b/buddy_system_allocator-0.11.0/src/linked_list.rs:30
80203e2e: 0141         	addi	sp, sp, 0x10
80203e30: 8082         	ret

0000000080203e32 <buddy_system_allocator::linked_list::LinkedList::push::hc7fcdf3c1c5c954a>:
; buddy_system_allocator::linked_list::LinkedList::push::hc7fcdf3c1c5c954a():
; /Users/lewis/.cargo/registry/src/rsproxy.cn-0dccff568467c15b/buddy_system_allocator-0.11.0/src/linked_list.rs:33
80203e32: 1141         	addi	sp, sp, -0x10
80203e34: e02a         	sd	a0, 0x0(sp)
80203e36: e42e         	sd	a1, 0x8(sp)
; /Users/lewis/.cargo/registry/src/rsproxy.cn-0dccff568467c15b/buddy_system_allocator-0.11.0/src/linked_list.rs:34
80203e38: 6110         	ld	a2, 0x0(a0)
80203e3a: e190         	sd	a2, 0x0(a1)
; /Users/lewis/.cargo/registry/src/rsproxy.cn-0dccff568467c15b/buddy_system_allocator-0.11.0/src/linked_list.rs:35
80203e3c: e10c         	sd	a1, 0x0(a0)
; /Users/lewis/.cargo/registry/src/rsproxy.cn-0dccff568467c15b/buddy_system_allocator-0.11.0/src/linked_list.rs:36
80203e3e: 0141         	addi	sp, sp, 0x10
80203e40: 8082         	ret

0000000080203e42 <buddy_system_allocator::linked_list::LinkedList::pop::h07db9aab40f7699a>:
; buddy_system_allocator::linked_list::LinkedList::pop::h07db9aab40f7699a():
; /Users/lewis/.cargo/registry/src/rsproxy.cn-0dccff568467c15b/buddy_system_allocator-0.11.0/src/linked_list.rs:39
80203e42: 7179         	addi	sp, sp, -0x30
80203e44: f406         	sd	ra, 0x28(sp)
80203e46: e02a         	sd	a0, 0x0(sp)
80203e48: ec2a         	sd	a0, 0x18(sp)
; /Users/lewis/.cargo/registry/src/rsproxy.cn-0dccff568467c15b/buddy_system_allocator-0.11.0/src/linked_list.rs:40
80203e4a: 00000097     	auipc	ra, 0x0
80203e4e: fd2080e7     	jalr	-0x2e(ra) <buddy_system_allocator::linked_list::LinkedList::is_empty::hb572f91918e6919d>
80203e52: e919         	bnez	a0, 0x80203e68 <buddy_system_allocator::linked_list::LinkedList::pop::h07db9aab40f7699a+0x26>
80203e54: a009         	j	0x80203e56 <buddy_system_allocator::linked_list::LinkedList::pop::h07db9aab40f7699a+0x14>
80203e56: 6602         	ld	a2, 0x0(sp)
; /Users/lewis/.cargo/registry/src/rsproxy.cn-0dccff568467c15b/buddy_system_allocator-0.11.0/src/linked_list.rs:44
80203e58: 6208         	ld	a0, 0x0(a2)
80203e5a: f02a         	sd	a0, 0x20(sp)
; /Users/lewis/.cargo/registry/src/rsproxy.cn-0dccff568467c15b/buddy_system_allocator-0.11.0/src/linked_list.rs:45
80203e5c: 610c         	ld	a1, 0x0(a0)
80203e5e: e20c         	sd	a1, 0x0(a2)
; /Users/lewis/.cargo/registry/src/rsproxy.cn-0dccff568467c15b/buddy_system_allocator-0.11.0/src/linked_list.rs:46
80203e60: e82a         	sd	a0, 0x10(sp)
80203e62: 4505         	li	a0, 0x1
80203e64: e42a         	sd	a0, 0x8(sp)
; /Users/lewis/.cargo/registry/src/rsproxy.cn-0dccff568467c15b/buddy_system_allocator-0.11.0/src/linked_list.rs:47
80203e66: a021         	j	0x80203e6e <buddy_system_allocator::linked_list::LinkedList::pop::h07db9aab40f7699a+0x2c>
80203e68: 4501         	li	a0, 0x0
; /Users/lewis/.cargo/registry/src/rsproxy.cn-0dccff568467c15b/buddy_system_allocator-0.11.0/src/linked_list.rs:41
80203e6a: e42a         	sd	a0, 0x8(sp)
80203e6c: a009         	j	0x80203e6e <buddy_system_allocator::linked_list::LinkedList::pop::h07db9aab40f7699a+0x2c>
; /Users/lewis/.cargo/registry/src/rsproxy.cn-0dccff568467c15b/buddy_system_allocator-0.11.0/src/linked_list.rs:49
80203e6e: 6522         	ld	a0, 0x8(sp)
80203e70: 65c2         	ld	a1, 0x10(sp)
80203e72: 70a2         	ld	ra, 0x28(sp)
80203e74: 6145         	addi	sp, sp, 0x30
80203e76: 8082         	ret

0000000080203e78 <buddy_system_allocator::linked_list::LinkedList::iter_mut::h3a991e759082e3ea>:
; buddy_system_allocator::linked_list::LinkedList::iter_mut::h3a991e759082e3ea():
; /Users/lewis/.cargo/registry/src/rsproxy.cn-0dccff568467c15b/buddy_system_allocator-0.11.0/src/linked_list.rs:60
80203e78: 1141         	addi	sp, sp, -0x10
80203e7a: e42a         	sd	a0, 0x8(sp)
; /Users/lewis/.cargo/registry/src/rsproxy.cn-0dccff568467c15b/buddy_system_allocator-0.11.0/src/linked_list.rs:63
80203e7c: 610c         	ld	a1, 0x0(a0)
; /Users/lewis/.cargo/registry/src/rsproxy.cn-0dccff568467c15b/buddy_system_allocator-0.11.0/src/linked_list.rs:66
80203e7e: 0141         	addi	sp, sp, 0x10
80203e80: 8082         	ret

0000000080203e82 <buddy_system_allocator::linked_list::ListNode::pop::h2f3da1ae45a0f1bd>:
; buddy_system_allocator::linked_list::ListNode::pop::h2f3da1ae45a0f1bd():
; /Users/lewis/.cargo/registry/src/rsproxy.cn-0dccff568467c15b/buddy_system_allocator-0.11.0/src/linked_list.rs:104
80203e82: 1141         	addi	sp, sp, -0x10
80203e84: e02a         	sd	a0, 0x0(sp)
80203e86: e42e         	sd	a1, 0x8(sp)
; /Users/lewis/.cargo/registry/src/rsproxy.cn-0dccff568467c15b/buddy_system_allocator-0.11.0/src/linked_list.rs:107
80203e88: 6522         	ld	a0, 0x8(sp)
80203e8a: 6108         	ld	a0, 0x0(a0)
80203e8c: 6582         	ld	a1, 0x0(sp)
80203e8e: e188         	sd	a0, 0x0(a1)
; /Users/lewis/.cargo/registry/src/rsproxy.cn-0dccff568467c15b/buddy_system_allocator-0.11.0/src/linked_list.rs:109
80203e90: 6522         	ld	a0, 0x8(sp)
; /Users/lewis/.cargo/registry/src/rsproxy.cn-0dccff568467c15b/buddy_system_allocator-0.11.0/src/linked_list.rs:110
80203e92: 0141         	addi	sp, sp, 0x10
80203e94: 8082         	ret

0000000080203e96 <buddy_system_allocator::linked_list::ListNode::value::hfa4011b9d9c24fbe>:
; buddy_system_allocator::linked_list::ListNode::value::hfa4011b9d9c24fbe():
; /Users/lewis/.cargo/registry/src/rsproxy.cn-0dccff568467c15b/buddy_system_allocator-0.11.0/src/linked_list.rs:113
80203e96: 1141         	addi	sp, sp, -0x10
80203e98: e42a         	sd	a0, 0x8(sp)
; /Users/lewis/.cargo/registry/src/rsproxy.cn-0dccff568467c15b/buddy_system_allocator-0.11.0/src/linked_list.rs:114
80203e9a: 6508         	ld	a0, 0x8(a0)
; /Users/lewis/.cargo/registry/src/rsproxy.cn-0dccff568467c15b/buddy_system_allocator-0.11.0/src/linked_list.rs:115
80203e9c: 0141         	addi	sp, sp, 0x10
80203e9e: 8082         	ret

0000000080203ea0 <_$LT$buddy_system_allocator..linked_list..IterMut$u20$as$u20$core..iter..traits..iterator..Iterator$GT$::next::h01c9fb2ddbf39201>:
; _$LT$buddy_system_allocator..linked_list..IterMut$u20$as$u20$core..iter..traits..iterator..Iterator$GT$::next::h01c9fb2ddbf39201():
; /Users/lewis/.cargo/registry/src/rsproxy.cn-0dccff568467c15b/buddy_system_allocator-0.11.0/src/linked_list.rs:128
80203ea0: 7179         	addi	sp, sp, -0x30
80203ea2: f406         	sd	ra, 0x28(sp)
80203ea4: e02e         	sd	a1, 0x0(sp)
80203ea6: e42a         	sd	a0, 0x8(sp)
80203ea8: e82e         	sd	a1, 0x10(sp)
; /Users/lewis/.cargo/registry/src/rsproxy.cn-0dccff568467c15b/buddy_system_allocator-0.11.0/src/linked_list.rs:129
80203eaa: 6588         	ld	a0, 0x8(a1)
80203eac: 00000097     	auipc	ra, 0x0
80203eb0: f60080e7     	jalr	-0xa0(ra) <core::ptr::mut_ptr::_$LT$impl$u20$$BP$mut$u20$T$GT$::is_null::hee799e25dfb30a10>
80203eb4: e115         	bnez	a0, 0x80203ed8 <_$LT$buddy_system_allocator..linked_list..IterMut$u20$as$u20$core..iter..traits..iterator..Iterator$GT$::next::h01c9fb2ddbf39201+0x38>
80203eb6: a009         	j	0x80203eb8 <_$LT$buddy_system_allocator..linked_list..IterMut$u20$as$u20$core..iter..traits..iterator..Iterator$GT$::next::h01c9fb2ddbf39201+0x18>
80203eb8: 65a2         	ld	a1, 0x8(sp)
80203eba: 6702         	ld	a4, 0x0(sp)
; /Users/lewis/.cargo/registry/src/rsproxy.cn-0dccff568467c15b/buddy_system_allocator-0.11.0/src/linked_list.rs:133
80203ebc: 6310         	ld	a2, 0x0(a4)
; /Users/lewis/.cargo/registry/src/rsproxy.cn-0dccff568467c15b/buddy_system_allocator-0.11.0/src/linked_list.rs:134
80203ebe: 6708         	ld	a0, 0x8(a4)
; /Users/lewis/.cargo/registry/src/rsproxy.cn-0dccff568467c15b/buddy_system_allocator-0.11.0/src/linked_list.rs:132
80203ec0: ec32         	sd	a2, 0x18(sp)
80203ec2: f02a         	sd	a0, 0x20(sp)
; /Users/lewis/.cargo/registry/src/rsproxy.cn-0dccff568467c15b/buddy_system_allocator-0.11.0/src/linked_list.rs:136
80203ec4: 6714         	ld	a3, 0x8(a4)
80203ec6: e314         	sd	a3, 0x0(a4)
; /Users/lewis/.cargo/registry/src/rsproxy.cn-0dccff568467c15b/buddy_system_allocator-0.11.0/src/linked_list.rs:137
80203ec8: 6714         	ld	a3, 0x8(a4)
80203eca: 6294         	ld	a3, 0x0(a3)
80203ecc: e714         	sd	a3, 0x8(a4)
; /Users/lewis/.cargo/registry/src/rsproxy.cn-0dccff568467c15b/buddy_system_allocator-0.11.0/src/linked_list.rs:138
80203ece: e590         	sd	a2, 0x8(a1)
80203ed0: e988         	sd	a0, 0x10(a1)
80203ed2: 4505         	li	a0, 0x1
80203ed4: e188         	sd	a0, 0x0(a1)
; /Users/lewis/.cargo/registry/src/rsproxy.cn-0dccff568467c15b/buddy_system_allocator-0.11.0/src/linked_list.rs:129
80203ed6: a029         	j	0x80203ee0 <_$LT$buddy_system_allocator..linked_list..IterMut$u20$as$u20$core..iter..traits..iterator..Iterator$GT$::next::h01c9fb2ddbf39201+0x40>
80203ed8: 65a2         	ld	a1, 0x8(sp)
80203eda: 4501         	li	a0, 0x0
; /Users/lewis/.cargo/registry/src/rsproxy.cn-0dccff568467c15b/buddy_system_allocator-0.11.0/src/linked_list.rs:130
80203edc: e188         	sd	a0, 0x0(a1)
; /Users/lewis/.cargo/registry/src/rsproxy.cn-0dccff568467c15b/buddy_system_allocator-0.11.0/src/linked_list.rs:129
80203ede: a009         	j	0x80203ee0 <_$LT$buddy_system_allocator..linked_list..IterMut$u20$as$u20$core..iter..traits..iterator..Iterator$GT$::next::h01c9fb2ddbf39201+0x40>
80203ee0: 70a2         	ld	ra, 0x28(sp)
; /Users/lewis/.cargo/registry/src/rsproxy.cn-0dccff568467c15b/buddy_system_allocator-0.11.0/src/linked_list.rs:140
80203ee2: 6145         	addi	sp, sp, 0x30
80203ee4: 8082         	ret

0000000080203ee6 <buddy_system_allocator::prev_power_of_two::h4f58665e0670c1c9>:
; buddy_system_allocator::prev_power_of_two::h4f58665e0670c1c9():
; /Users/lewis/.cargo/registry/src/rsproxy.cn-0dccff568467c15b/buddy_system_allocator-0.11.0/src/lib.rs:343
80203ee6: 7179         	addi	sp, sp, -0x30
80203ee8: ec2a         	sd	a0, 0x18(sp)
80203eea: f02a         	sd	a0, 0x20(sp)
; /Users/lewis/.rustup/toolchains/stable-aarch64-apple-darwin/lib/rustlib/src/rust/library/core/src/num/uint_macros.rs:136
80203eec: 00155593     	srli	a1, a0, 0x1
80203ef0: 8d4d         	or	a0, a0, a1
80203ef2: 00255593     	srli	a1, a0, 0x2
80203ef6: 8d4d         	or	a0, a0, a1
80203ef8: 00455593     	srli	a1, a0, 0x4
80203efc: 8d4d         	or	a0, a0, a1
80203efe: 00855593     	srli	a1, a0, 0x8
80203f02: 8d4d         	or	a0, a0, a1
80203f04: 01055593     	srli	a1, a0, 0x10
80203f08: 8d4d         	or	a0, a0, a1
80203f0a: 02055593     	srli	a1, a0, 0x20
80203f0e: 8d4d         	or	a0, a0, a1
80203f10: fff54513     	not	a0, a0
80203f14: 00155593     	srli	a1, a0, 0x1
80203f18: 55555637     	lui	a2, 0x55555
80203f1c: 5556061b     	addiw	a2, a2, 0x555
80203f20: 02061693     	slli	a3, a2, 0x20
80203f24: 9636         	add	a2, a2, a3
80203f26: 8df1         	and	a1, a1, a2
80203f28: 40b505b3     	sub	a1, a0, a1
80203f2c: 33333537     	lui	a0, 0x33333
80203f30: 3335051b     	addiw	a0, a0, 0x333
80203f34: 02051613     	slli	a2, a0, 0x20
80203f38: 962a         	add	a2, a2, a0
80203f3a: 00c5f533     	and	a0, a1, a2
80203f3e: 8189         	srli	a1, a1, 0x2
80203f40: 8df1         	and	a1, a1, a2
80203f42: 952e         	add	a0, a0, a1
80203f44: 00455593     	srli	a1, a0, 0x4
80203f48: 952e         	add	a0, a0, a1
80203f4a: 0f0f15b7     	lui	a1, 0xf0f1
80203f4e: f0f5859b     	addiw	a1, a1, -0xf1
80203f52: 02059613     	slli	a2, a1, 0x20
80203f56: 95b2         	add	a1, a1, a2
80203f58: 8d6d         	and	a0, a0, a1
80203f5a: 010105b7     	lui	a1, 0x1010
80203f5e: 1015859b     	addiw	a1, a1, 0x101
80203f62: 02059613     	slli	a2, a1, 0x20
80203f66: 95b2         	add	a1, a1, a2
80203f68: 02b50533     	mul	a0, a0, a1
80203f6c: 9161         	srli	a0, a0, 0x38
80203f6e: d62a         	sw	a0, 0x2c(sp)
80203f70: 02c16583     	lwu	a1, 0x2c(sp)
80203f74: 04000513     	li	a0, 0x40
; /Users/lewis/.cargo/registry/src/rsproxy.cn-0dccff568467c15b/buddy_system_allocator-0.11.0/src/lib.rs:344
80203f78: 40b50633     	sub	a2, a0, a1
80203f7c: e832         	sd	a2, 0x10(sp)
80203f7e: 00b56963     	bltu	a0, a1, 0x80203f90 <.Lpcrel_hi1>
80203f82: a009         	j	0x80203f84 <buddy_system_allocator::prev_power_of_two::h4f58665e0670c1c9+0x9e>
80203f84: 6542         	ld	a0, 0x10(sp)
; /Users/lewis/.cargo/registry/src/rsproxy.cn-0dccff568467c15b/buddy_system_allocator-0.11.0/src/lib.rs:344
80203f86: fff50593     	addi	a1, a0, -0x1
80203f8a: e42e         	sd	a1, 0x8(sp)
80203f8c: c105         	beqz	a0, 0x80203fac <.Lpcrel_hi2>
80203f8e: a809         	j	0x80203fa0 <.Lpcrel_hi1+0x10>

0000000080203f90 <.Lpcrel_hi1>:
; .Lpcrel_hi1():
; /Users/lewis/.cargo/registry/src/rsproxy.cn-0dccff568467c15b/buddy_system_allocator-0.11.0/src/lib.rs:344
80203f90: 00a03517     	auipc	a0, 0xa03
80203f94: 6a850513     	addi	a0, a0, 0x6a8
80203f98: 00001097     	auipc	ra, 0x1
80203f9c: ed0080e7     	jalr	-0x130(ra) <core::panicking::panic_const::panic_const_sub_overflow::hfc9e186cc78b3e6c>
80203fa0: 6522         	ld	a0, 0x8(sp)
80203fa2: 04000593     	li	a1, 0x40
; /Users/lewis/.cargo/registry/src/rsproxy.cn-0dccff568467c15b/buddy_system_allocator-0.11.0/src/lib.rs:344
80203fa6: 00b56b63     	bltu	a0, a1, 0x80203fbc <.Lpcrel_hi2+0x10>
80203faa: a839         	j	0x80203fc8 <.Lpcrel_hi3>

0000000080203fac <.Lpcrel_hi2>:
; .Lpcrel_hi2():
; /Users/lewis/.cargo/registry/src/rsproxy.cn-0dccff568467c15b/buddy_system_allocator-0.11.0/src/lib.rs:344
80203fac: 00a03517     	auipc	a0, 0xa03
80203fb0: 6a450513     	addi	a0, a0, 0x6a4
80203fb4: 00001097     	auipc	ra, 0x1
80203fb8: eb4080e7     	jalr	-0x14c(ra) <core::panicking::panic_const::panic_const_sub_overflow::hfc9e186cc78b3e6c>
80203fbc: 65a2         	ld	a1, 0x8(sp)
80203fbe: 4505         	li	a0, 0x1
; /Users/lewis/.cargo/registry/src/rsproxy.cn-0dccff568467c15b/buddy_system_allocator-0.11.0/src/lib.rs:344
80203fc0: 00b51533     	sll	a0, a0, a1
; /Users/lewis/.cargo/registry/src/rsproxy.cn-0dccff568467c15b/buddy_system_allocator-0.11.0/src/lib.rs:345
80203fc4: 6145         	addi	sp, sp, 0x30
80203fc6: 8082         	ret

0000000080203fc8 <.Lpcrel_hi3>:
; .Lpcrel_hi3():
; /Users/lewis/.cargo/registry/src/rsproxy.cn-0dccff568467c15b/buddy_system_allocator-0.11.0/src/lib.rs:344
80203fc8: 00a03517     	auipc	a0, 0xa03
80203fcc: 6a050513     	addi	a0, a0, 0x6a0
80203fd0: 00001097     	auipc	ra, 0x1
80203fd4: f04080e7     	jalr	-0xfc(ra) <core::panicking::panic_const::panic_const_shl_overflow::h2aedb2ea5169edc7>

0000000080203fd8 <core::sync::atomic::atomic_store::h9da352ac0a8a7bae>:
; core::sync::atomic::atomic_store::h9da352ac0a8a7bae():
; /Users/lewis/.rustup/toolchains/stable-aarch64-apple-darwin/lib/rustlib/src/rust/library/core/src/sync/atomic.rs:3310
80203fd8: 7135         	addi	sp, sp, -0xa0
80203fda: e02a         	sd	a0, 0x0(sp)
80203fdc: 86ae         	mv	a3, a1
80203fde: e436         	sd	a3, 0x8(sp)
80203fe0: 00c10fa3     	sb	a2, 0x1f(sp)
80203fe4: e12a         	sd	a0, 0x80(sp)
80203fe6: 08b107a3     	sb	a1, 0x8f(sp)

0000000080203fea <.Lpcrel_hi0>:
; .Lpcrel_hi0():
; /Users/lewis/.rustup/toolchains/stable-aarch64-apple-darwin/lib/rustlib/src/rust/library/core/src/fmt/mod.rs:337
80203fea: 00a03517     	auipc	a0, 0xa03
80203fee: 6f650513     	addi	a0, a0, 0x6f6
80203ff2: e92a         	sd	a0, 0x90(sp)

0000000080203ff4 <.Lpcrel_hi1>:
; .Lpcrel_hi1():
; /Users/lewis/.rustup/toolchains/stable-aarch64-apple-darwin/lib/rustlib/src/rust/library/core/src/fmt/mod.rs:337
80203ff4: 00a03517     	auipc	a0, 0xa03
80203ff8: 72c50513     	addi	a0, a0, 0x72c
80203ffc: ed2a         	sd	a0, 0x98(sp)
; /Users/lewis/.rustup/toolchains/stable-aarch64-apple-darwin/lib/rustlib/src/rust/library/core/src/sync/atomic.rs:3313
80203ffe: 01f14503     	lbu	a0, 0x1f(sp)
80204002: e82a         	sd	a0, 0x10(sp)
80204004: 6542         	ld	a0, 0x10(sp)
; /Users/lewis/.rustup/toolchains/stable-aarch64-apple-darwin/lib/rustlib/src/rust/library/core/src/sync/atomic.rs:3313
80204006: 050e         	slli	a0, a0, 0x3

0000000080204008 <.Lpcrel_hi2>:
; .Lpcrel_hi2():
; /Users/lewis/.rustup/toolchains/stable-aarch64-apple-darwin/lib/rustlib/src/rust/library/core/src/sync/atomic.rs:3313
80204008: 00a03597     	auipc	a1, 0xa03
8020400c: 67858593     	addi	a1, a1, 0x678
80204010: 952e         	add	a0, a0, a1
80204012: 6108         	ld	a0, 0x0(a0)
80204014: 8502         	jr	a0
80204016: 0000         	unimp
80204018: 6522         	ld	a0, 0x8(sp)
8020401a: 6582         	ld	a1, 0x0(sp)
; /Users/lewis/.rustup/toolchains/stable-aarch64-apple-darwin/lib/rustlib/src/rust/library/core/src/sync/atomic.rs:3314
8020401c: 00a58023     	sb	a0, 0x0(a1)
80204020: a849         	j	0x802040b2 <.Lpcrel_hi8+0x24>
80204022: 6522         	ld	a0, 0x8(sp)
80204024: 6582         	ld	a1, 0x0(sp)
; /Users/lewis/.rustup/toolchains/stable-aarch64-apple-darwin/lib/rustlib/src/rust/library/core/src/sync/atomic.rs:3315
80204026: 0310000f     	fence	rw, w
8020402a: 00a58023     	sb	a0, 0x0(a1)
8020402e: a051         	j	0x802040b2 <.Lpcrel_hi8+0x24>

0000000080204030 <.Lpcrel_hi3>:
; .Lpcrel_hi3():
; /Users/lewis/.rustup/toolchains/stable-aarch64-apple-darwin/lib/rustlib/src/rust/library/core/src/fmt/mod.rs:339
80204030: 00a03517     	auipc	a0, 0xa03
80204034: 6f050513     	addi	a0, a0, 0x6f0
80204038: f02a         	sd	a0, 0x20(sp)
8020403a: 4505         	li	a0, 0x1
8020403c: f42a         	sd	a0, 0x28(sp)

000000008020403e <.Lpcrel_hi4>:
; .Lpcrel_hi4():
; /Users/lewis/.rustup/toolchains/stable-aarch64-apple-darwin/lib/rustlib/src/rust/library/core/src/fmt/mod.rs:339
8020403e: 00002517     	auipc	a0, 0x2
80204042: 16250513     	addi	a0, a0, 0x162
80204046: 610c         	ld	a1, 0x0(a0)
80204048: 6508         	ld	a0, 0x8(a0)
8020404a: e0ae         	sd	a1, 0x40(sp)
8020404c: e4aa         	sd	a0, 0x48(sp)
8020404e: 4521         	li	a0, 0x8
80204050: f82a         	sd	a0, 0x30(sp)
80204052: 4501         	li	a0, 0x0
80204054: fc2a         	sd	a0, 0x38(sp)

0000000080204056 <.Lpcrel_hi5>:
; .Lpcrel_hi5():
; /Users/lewis/.rustup/toolchains/stable-aarch64-apple-darwin/lib/rustlib/src/rust/library/core/src/sync/atomic.rs:3317
80204056: 00a03517     	auipc	a0, 0xa03
8020405a: 74a50593     	addi	a1, a0, 0x74a
8020405e: 1008         	addi	a0, sp, 0x20
80204060: 00000097     	auipc	ra, 0x0
80204064: 296080e7     	jalr	0x296(ra) <core::panicking::panic_fmt::hd74e2a0fb7381b7e>

0000000080204068 <.Lpcrel_hi6>:
; .Lpcrel_hi6():
; /Users/lewis/.rustup/toolchains/stable-aarch64-apple-darwin/lib/rustlib/src/rust/library/core/src/fmt/mod.rs:339
80204068: 00a03517     	auipc	a0, 0xa03
8020406c: 67850513     	addi	a0, a0, 0x678
80204070: e8aa         	sd	a0, 0x50(sp)
80204072: 4505         	li	a0, 0x1
80204074: ecaa         	sd	a0, 0x58(sp)

0000000080204076 <.Lpcrel_hi7>:
; .Lpcrel_hi7():
; /Users/lewis/.rustup/toolchains/stable-aarch64-apple-darwin/lib/rustlib/src/rust/library/core/src/fmt/mod.rs:339
80204076: 00002517     	auipc	a0, 0x2
8020407a: 12a50513     	addi	a0, a0, 0x12a
8020407e: 610c         	ld	a1, 0x0(a0)
80204080: 6508         	ld	a0, 0x8(a0)
80204082: f8ae         	sd	a1, 0x70(sp)
80204084: fcaa         	sd	a0, 0x78(sp)
80204086: 4521         	li	a0, 0x8
80204088: f0aa         	sd	a0, 0x60(sp)
8020408a: 4501         	li	a0, 0x0
8020408c: f4aa         	sd	a0, 0x68(sp)

000000008020408e <.Lpcrel_hi8>:
; .Lpcrel_hi8():
; /Users/lewis/.rustup/toolchains/stable-aarch64-apple-darwin/lib/rustlib/src/rust/library/core/src/sync/atomic.rs:3318
8020408e: 00a03517     	auipc	a0, 0xa03
80204092: 72a50593     	addi	a1, a0, 0x72a
80204096: 0888         	addi	a0, sp, 0x50
80204098: 00000097     	auipc	ra, 0x0
8020409c: 25e080e7     	jalr	0x25e(ra) <core::panicking::panic_fmt::hd74e2a0fb7381b7e>
802040a0: 6522         	ld	a0, 0x8(sp)
802040a2: 6582         	ld	a1, 0x0(sp)
; /Users/lewis/.rustup/toolchains/stable-aarch64-apple-darwin/lib/rustlib/src/rust/library/core/src/sync/atomic.rs:3316
802040a4: 0310000f     	fence	rw, w
802040a8: 00a58023     	sb	a0, 0x0(a1)
802040ac: 0330000f     	fence	rw, rw
802040b0: a009         	j	0x802040b2 <.Lpcrel_hi8+0x24>
; /Users/lewis/.rustup/toolchains/stable-aarch64-apple-darwin/lib/rustlib/src/rust/library/core/src/sync/atomic.rs:3321
802040b2: 610d         	addi	sp, sp, 0xa0
802040b4: 8082         	ret

00000000802040b6 <alloc::raw_vec::capacity_overflow::h838704fee9cb5ff2>:
; alloc::raw_vec::capacity_overflow::h838704fee9cb5ff2():
; /rustc/90b35a6239c3d8bdabc530a6a0816f7ff89a0aaf/library/alloc/src/raw_vec.rs:23
802040b6: 7139         	addi	sp, sp, -0x40
802040b8: fc06         	sd	ra, 0x38(sp)
802040ba: f822         	sd	s0, 0x30(sp)
802040bc: 0080         	addi	s0, sp, 0x40

00000000802040be <.Lpcrel_hi5>:
; .Lpcrel_hi5():
; /rustc/90b35a6239c3d8bdabc530a6a0816f7ff89a0aaf/library/core/src/fmt/mod.rs:339
802040be: 00a03517     	auipc	a0, 0xa03
802040c2: 72a50513     	addi	a0, a0, 0x72a
802040c6: fca43023     	sd	a0, -0x40(s0)
802040ca: 4505         	li	a0, 0x1
802040cc: fca43423     	sd	a0, -0x38(s0)
802040d0: fe043023     	sd	zero, -0x20(s0)
802040d4: 4521         	li	a0, 0x8
802040d6: fca43823     	sd	a0, -0x30(s0)
802040da: fc043c23     	sd	zero, -0x28(s0)

00000000802040de <.Lpcrel_hi6>:
; .Lpcrel_hi6():
; /rustc/90b35a6239c3d8bdabc530a6a0816f7ff89a0aaf/library/alloc/src/raw_vec.rs:24
802040de: 00a03517     	auipc	a0, 0xa03
802040e2: 73250593     	addi	a1, a0, 0x732
802040e6: fc040513     	addi	a0, s0, -0x40
802040ea: 00000097     	auipc	ra, 0x0
802040ee: 20c080e7     	jalr	0x20c(ra) <core::panicking::panic_fmt::hd74e2a0fb7381b7e>

00000000802040f2 <alloc::raw_vec::handle_error::h3b3caef0534e22c8>:
; alloc::raw_vec::handle_error::h3b3caef0534e22c8():
; /rustc/90b35a6239c3d8bdabc530a6a0816f7ff89a0aaf/library/alloc/src/raw_vec.rs:773
802040f2: 1141         	addi	sp, sp, -0x10
802040f4: e406         	sd	ra, 0x8(sp)
802040f6: e022         	sd	s0, 0x0(sp)
802040f8: 0800         	addi	s0, sp, 0x10
; /rustc/90b35a6239c3d8bdabc530a6a0816f7ff89a0aaf/library/alloc/src/collections/mod.rs:77
802040fa: e509         	bnez	a0, 0x80204104 <alloc::raw_vec::handle_error::h3b3caef0534e22c8+0x12>
; /rustc/90b35a6239c3d8bdabc530a6a0816f7ff89a0aaf/library/alloc/src/raw_vec.rs:775
802040fc: 00000097     	auipc	ra, 0x0
80204100: fba080e7     	jalr	-0x46(ra) <alloc::raw_vec::capacity_overflow::h838704fee9cb5ff2>
; /rustc/90b35a6239c3d8bdabc530a6a0816f7ff89a0aaf/library/alloc/src/raw_vec.rs:776
80204104: 00000097     	auipc	ra, 0x0
80204108: 008080e7     	jalr	0x8(ra) <alloc::alloc::handle_alloc_error::h7a4292de8334c102>

000000008020410c <alloc::alloc::handle_alloc_error::h7a4292de8334c102>:
; alloc::alloc::handle_alloc_error::h7a4292de8334c102():
; /rustc/90b35a6239c3d8bdabc530a6a0816f7ff89a0aaf/library/alloc/src/alloc.rs:395
8020410c: 1141         	addi	sp, sp, -0x10
8020410e: e406         	sd	ra, 0x8(sp)
80204110: e022         	sd	s0, 0x0(sp)
80204112: 0800         	addi	s0, sp, 0x10
80204114: 862a         	mv	a2, a0
; /rustc/90b35a6239c3d8bdabc530a6a0816f7ff89a0aaf/library/alloc/src/alloc.rs:403
80204116: 852e         	mv	a0, a1
80204118: 85b2         	mv	a1, a2
8020411a: 00000097     	auipc	ra, 0x0
8020411e: cbe080e7     	jalr	-0x342(ra) <__rust_alloc_error_handler>

0000000080204122 <__rdl_oom>:
; __rdl_oom():
; /rustc/90b35a6239c3d8bdabc530a6a0816f7ff89a0aaf/library/alloc/src/alloc.rs:428
80204122: 711d         	addi	sp, sp, -0x60
80204124: ec86         	sd	ra, 0x58(sp)
80204126: e8a2         	sd	s0, 0x50(sp)
80204128: 1080         	addi	s0, sp, 0x60

000000008020412a <.Lpcrel_hi11>:
; .Lpcrel_hi11():
; /rustc/90b35a6239c3d8bdabc530a6a0816f7ff89a0aaf/library/alloc/src/alloc.rs:435
8020412a: 00a04597     	auipc	a1, 0xa04
8020412e: ff65c583     	lbu	a1, -0xa(a1)
80204132: faa43423     	sd	a0, -0x58(s0)
80204136: fa840513     	addi	a0, s0, -0x58
8020413a: e5a9         	bnez	a1, 0x80204184 <.Lpcrel_hi14+0x14>
; /rustc/90b35a6239c3d8bdabc530a6a0816f7ff89a0aaf/library/alloc/src/alloc.rs:439
8020413c: fea43023     	sd	a0, -0x20(s0)

0000000080204140 <.Lpcrel_hi12>:
; .Lpcrel_hi12():
; /rustc/90b35a6239c3d8bdabc530a6a0816f7ff89a0aaf/library/alloc/src/alloc.rs:439
80204140: 00001517     	auipc	a0, 0x1
80204144: 2c250513     	addi	a0, a0, 0x2c2
80204148: fea43423     	sd	a0, -0x18(s0)

000000008020414c <.Lpcrel_hi13>:
; .Lpcrel_hi13():
; /rustc/90b35a6239c3d8bdabc530a6a0816f7ff89a0aaf/library/core/src/fmt/mod.rs:350
8020414c: 00a03517     	auipc	a0, 0xa03
80204150: 71450513     	addi	a0, a0, 0x714
80204154: faa43823     	sd	a0, -0x50(s0)
80204158: 4509         	li	a0, 0x2
8020415a: faa43c23     	sd	a0, -0x48(s0)
8020415e: fc043823     	sd	zero, -0x30(s0)
80204162: fe040513     	addi	a0, s0, -0x20
80204166: fca43023     	sd	a0, -0x40(s0)
8020416a: 4505         	li	a0, 0x1
8020416c: fca43423     	sd	a0, -0x38(s0)

0000000080204170 <.Lpcrel_hi14>:
; .Lpcrel_hi14():
; /rustc/90b35a6239c3d8bdabc530a6a0816f7ff89a0aaf/library/alloc/src/alloc.rs:438
80204170: 00a03517     	auipc	a0, 0xa03
80204174: 71050613     	addi	a2, a0, 0x710
80204178: fb040513     	addi	a0, s0, -0x50
8020417c: 00000097     	auipc	ra, 0x0
80204180: 19c080e7     	jalr	0x19c(ra) <core::panicking::panic_nounwind_fmt::h5d22e60db10db3ef>
; /rustc/90b35a6239c3d8bdabc530a6a0816f7ff89a0aaf/library/alloc/src/alloc.rs:436
80204184: fea43023     	sd	a0, -0x20(s0)

0000000080204188 <.Lpcrel_hi15>:
; .Lpcrel_hi15():
; /rustc/90b35a6239c3d8bdabc530a6a0816f7ff89a0aaf/library/alloc/src/alloc.rs:436
80204188: 00001517     	auipc	a0, 0x1
8020418c: 27a50513     	addi	a0, a0, 0x27a
80204190: fea43423     	sd	a0, -0x18(s0)

0000000080204194 <.Lpcrel_hi16>:
; .Lpcrel_hi16():
; /rustc/90b35a6239c3d8bdabc530a6a0816f7ff89a0aaf/library/core/src/fmt/mod.rs:350
80204194: 00a03517     	auipc	a0, 0xa03
80204198: 6cc50513     	addi	a0, a0, 0x6cc
8020419c: faa43823     	sd	a0, -0x50(s0)
802041a0: 4509         	li	a0, 0x2
802041a2: faa43c23     	sd	a0, -0x48(s0)
802041a6: fc043823     	sd	zero, -0x30(s0)
802041aa: fe040513     	addi	a0, s0, -0x20
802041ae: fca43023     	sd	a0, -0x40(s0)
802041b2: 4505         	li	a0, 0x1
802041b4: fca43423     	sd	a0, -0x38(s0)

00000000802041b8 <.Lpcrel_hi17>:
; .Lpcrel_hi17():
; /rustc/90b35a6239c3d8bdabc530a6a0816f7ff89a0aaf/library/alloc/src/alloc.rs:436
802041b8: 00a03517     	auipc	a0, 0xa03
802041bc: 6e050593     	addi	a1, a0, 0x6e0
802041c0: fb040513     	addi	a0, s0, -0x50
802041c4: 00000097     	auipc	ra, 0x0
802041c8: 132080e7     	jalr	0x132(ra) <core::panicking::panic_fmt::hd74e2a0fb7381b7e>

00000000802041cc <core::char::methods::encode_utf8_raw::panic_at_rt::h34e53256f212e3ba>:
; core::char::methods::encode_utf8_raw::panic_at_rt::h34e53256f212e3ba():
; /rustc/90b35a6239c3d8bdabc530a6a0816f7ff89a0aaf/library/core/src/char/methods.rs:1784
802041cc: 7169         	addi	sp, sp, -0x130
802041ce: f606         	sd	ra, 0x128(sp)
802041d0: f222         	sd	s0, 0x120(sp)
802041d2: 1a00         	addi	s0, sp, 0x130
802041d4: eca42a23     	sw	a0, -0x12c(s0)
802041d8: ecb43c23     	sd	a1, -0x128(s0)
802041dc: eec43023     	sd	a2, -0x120(s0)
802041e0: ed840513     	addi	a0, s0, -0x128
; /rustc/90b35a6239c3d8bdabc530a6a0816f7ff89a0aaf/library/core/src/char/methods.rs:1785
802041e4: f0a43c23     	sd	a0, -0xe8(s0)

00000000802041e8 <.Lpcrel_hi239>:
; .Lpcrel_hi239():
; /rustc/90b35a6239c3d8bdabc530a6a0816f7ff89a0aaf/library/core/src/char/methods.rs:1785
802041e8: 00001517     	auipc	a0, 0x1
802041ec: 21a50513     	addi	a0, a0, 0x21a
802041f0: f2a43023     	sd	a0, -0xe0(s0)
802041f4: ed440593     	addi	a1, s0, -0x12c
802041f8: f2b43423     	sd	a1, -0xd8(s0)

00000000802041fc <.Lpcrel_hi240>:
; .Lpcrel_hi240():
; /rustc/90b35a6239c3d8bdabc530a6a0816f7ff89a0aaf/library/core/src/char/methods.rs:1785
802041fc: 00001597     	auipc	a1, 0x1
80204200: dbc58593     	addi	a1, a1, -0x244
80204204: f2b43823     	sd	a1, -0xd0(s0)
80204208: ee040593     	addi	a1, s0, -0x120
8020420c: f2b43c23     	sd	a1, -0xc8(s0)
80204210: f4a43023     	sd	a0, -0xc0(s0)
80204214: 4509         	li	a0, 0x2
80204216: f4a43423     	sd	a0, -0xb8(s0)
8020421a: f4a43c23     	sd	a0, -0xa8(s0)
8020421e: f6043423     	sd	zero, -0x98(s0)
80204222: 02000593     	li	a1, 0x20
80204226: f6b43823     	sd	a1, -0x90(s0)
8020422a: 460d         	li	a2, 0x3
8020422c: f6c40c23     	sb	a2, -0x88(s0)
80204230: f8a43023     	sd	a0, -0x80(s0)
80204234: f8043823     	sd	zero, -0x70(s0)
80204238: 4691         	li	a3, 0x4
8020423a: f8d43c23     	sd	a3, -0x68(s0)
8020423e: 4685         	li	a3, 0x1
80204240: fad43023     	sd	a3, -0x60(s0)
80204244: 168e         	slli	a3, a3, 0x23
80204246: 02068693     	addi	a3, a3, 0x20
8020424a: fad43423     	sd	a3, -0x58(s0)
8020424e: fac40823     	sb	a2, -0x50(s0)
80204252: faa43c23     	sd	a0, -0x48(s0)
80204256: fca43423     	sd	a0, -0x38(s0)
8020425a: fca43c23     	sd	a0, -0x28(s0)
8020425e: feb43023     	sd	a1, -0x20(s0)
80204262: fec40423     	sb	a2, -0x18(s0)

0000000080204266 <.Lpcrel_hi241>:
; .Lpcrel_hi241():
; /rustc/90b35a6239c3d8bdabc530a6a0816f7ff89a0aaf/library/core/src/fmt/mod.rs:367
80204266: 00a03517     	auipc	a0, 0xa03
8020426a: 77a50513     	addi	a0, a0, 0x77a
8020426e: eea43423     	sd	a0, -0x118(s0)
80204272: eec43823     	sd	a2, -0x110(s0)
80204276: f4840513     	addi	a0, s0, -0xb8
8020427a: f0a43423     	sd	a0, -0xf8(s0)
8020427e: f0c43823     	sd	a2, -0xf0(s0)
80204282: f1840513     	addi	a0, s0, -0xe8
80204286: eea43c23     	sd	a0, -0x108(s0)
8020428a: f0c43023     	sd	a2, -0x100(s0)

000000008020428e <.Lpcrel_hi242>:
; .Lpcrel_hi242():
; /rustc/90b35a6239c3d8bdabc530a6a0816f7ff89a0aaf/library/core/src/char/methods.rs:1785
8020428e: 00a03517     	auipc	a0, 0xa03
80204292: 78250593     	addi	a1, a0, 0x782
80204296: ee840513     	addi	a0, s0, -0x118
8020429a: 00000097     	auipc	ra, 0x0
8020429e: 05c080e7     	jalr	0x5c(ra) <core::panicking::panic_fmt::hd74e2a0fb7381b7e>

00000000802042a2 <core::option::expect_failed::h101be3311630821f>:
; core::option::expect_failed::h101be3311630821f():
; /rustc/90b35a6239c3d8bdabc530a6a0816f7ff89a0aaf/library/core/src/option.rs:2020
802042a2: 711d         	addi	sp, sp, -0x60
802042a4: ec86         	sd	ra, 0x58(sp)
802042a6: e8a2         	sd	s0, 0x50(sp)
802042a8: 1080         	addi	s0, sp, 0x60
802042aa: faa43023     	sd	a0, -0x60(s0)
802042ae: fab43423     	sd	a1, -0x58(s0)
802042b2: fa040513     	addi	a0, s0, -0x60
; /rustc/90b35a6239c3d8bdabc530a6a0816f7ff89a0aaf/library/core/src/panicking.rs:264
802042b6: fea43023     	sd	a0, -0x20(s0)

00000000802042ba <.Lpcrel_hi345>:
; .Lpcrel_hi345():
; /rustc/90b35a6239c3d8bdabc530a6a0816f7ff89a0aaf/library/core/src/panicking.rs:264
802042ba: 00001517     	auipc	a0, 0x1
802042be: 2d850513     	addi	a0, a0, 0x2d8
802042c2: fea43423     	sd	a0, -0x18(s0)

00000000802042c6 <.Lpcrel_hi346>:
; .Lpcrel_hi346():
; /rustc/90b35a6239c3d8bdabc530a6a0816f7ff89a0aaf/library/core/src/fmt/mod.rs:350
802042c6: 00002517     	auipc	a0, 0x2
802042ca: eca50513     	addi	a0, a0, -0x136
802042ce: faa43823     	sd	a0, -0x50(s0)
802042d2: 4505         	li	a0, 0x1
802042d4: faa43c23     	sd	a0, -0x48(s0)
802042d8: fc043823     	sd	zero, -0x30(s0)
802042dc: fe040593     	addi	a1, s0, -0x20
802042e0: fcb43023     	sd	a1, -0x40(s0)
802042e4: fca43423     	sd	a0, -0x38(s0)
; /rustc/90b35a6239c3d8bdabc530a6a0816f7ff89a0aaf/library/core/src/panicking.rs:264
802042e8: fb040513     	addi	a0, s0, -0x50
802042ec: 85b2         	mv	a1, a2
802042ee: 00000097     	auipc	ra, 0x0
802042f2: 008080e7     	jalr	0x8(ra) <core::panicking::panic_fmt::hd74e2a0fb7381b7e>

00000000802042f6 <core::panicking::panic_fmt::hd74e2a0fb7381b7e>:
; core::panicking::panic_fmt::hd74e2a0fb7381b7e():
; /rustc/90b35a6239c3d8bdabc530a6a0816f7ff89a0aaf/library/core/src/panicking.rs:54
802042f6: 7179         	addi	sp, sp, -0x30
802042f8: f406         	sd	ra, 0x28(sp)
802042fa: f022         	sd	s0, 0x20(sp)
802042fc: 1800         	addi	s0, sp, 0x30
; /rustc/90b35a6239c3d8bdabc530a6a0816f7ff89a0aaf/library/core/src/panic/panic_info.rs:40
802042fe: fca43c23     	sd	a0, -0x28(s0)
80204302: feb43023     	sd	a1, -0x20(s0)
80204306: 4505         	li	a0, 0x1
80204308: fea41423     	sh	a0, -0x18(s0)
; /rustc/90b35a6239c3d8bdabc530a6a0816f7ff89a0aaf/library/core/src/panicking.rs:74
8020430c: fd840513     	addi	a0, s0, -0x28
80204310: ffffd097     	auipc	ra, 0xffffd
80204314: 18e080e7     	jalr	0x18e(ra) <free_mem_start+0xff5f849e>

0000000080204318 <core::panicking::panic_nounwind_fmt::h5d22e60db10db3ef>:
; core::panicking::panic_nounwind_fmt::h5d22e60db10db3ef():
; /rustc/90b35a6239c3d8bdabc530a6a0816f7ff89a0aaf/library/core/src/panicking.rs:88
80204318: 711d         	addi	sp, sp, -0x60
8020431a: ec86         	sd	ra, 0x58(sp)
8020431c: e8a2         	sd	s0, 0x50(sp)
8020431e: 1080         	addi	s0, sp, 0x60
; /rustc/90b35a6239c3d8bdabc530a6a0816f7ff89a0aaf/library/core/src/panicking.rs:122
80204320: 7514         	ld	a3, 0x28(a0)
80204322: 7118         	ld	a4, 0x20(a0)
80204324: fcd43823     	sd	a3, -0x30(s0)
80204328: fce43423     	sd	a4, -0x38(s0)
8020432c: 6d14         	ld	a3, 0x18(a0)
8020432e: 6918         	ld	a4, 0x10(a0)
80204330: 651c         	ld	a5, 0x8(a0)
80204332: 6108         	ld	a0, 0x0(a0)
80204334: fcd43023     	sd	a3, -0x40(s0)
80204338: fae43c23     	sd	a4, -0x48(s0)
8020433c: faf43823     	sd	a5, -0x50(s0)
80204340: faa43423     	sd	a0, -0x58(s0)
80204344: fa840513     	addi	a0, s0, -0x58
; /rustc/90b35a6239c3d8bdabc530a6a0816f7ff89a0aaf/library/core/src/panic/panic_info.rs:40
80204348: fca43c23     	sd	a0, -0x28(s0)
8020434c: fec43023     	sd	a2, -0x20(s0)
80204350: fe040423     	sb	zero, -0x18(s0)
80204354: feb404a3     	sb	a1, -0x17(s0)
; /rustc/90b35a6239c3d8bdabc530a6a0816f7ff89a0aaf/library/core/src/panicking.rs:112
80204358: fd840513     	addi	a0, s0, -0x28
8020435c: ffffd097     	auipc	ra, 0xffffd
80204360: 142080e7     	jalr	0x142(ra) <free_mem_start+0xff5f849e>

0000000080204364 <core::panicking::panic::h06ccfc350ab1daef>:
; core::panicking::panic::h06ccfc350ab1daef():
; /rustc/90b35a6239c3d8bdabc530a6a0816f7ff89a0aaf/library/core/src/panicking.rs:136
80204364: 715d         	addi	sp, sp, -0x50
80204366: e486         	sd	ra, 0x48(sp)
80204368: e0a2         	sd	s0, 0x40(sp)
8020436a: 0880         	addi	s0, sp, 0x50
; /rustc/90b35a6239c3d8bdabc530a6a0816f7ff89a0aaf/library/core/src/panicking.rs:148
8020436c: fea43023     	sd	a0, -0x20(s0)
80204370: feb43423     	sd	a1, -0x18(s0)
80204374: fe040513     	addi	a0, s0, -0x20
; /rustc/90b35a6239c3d8bdabc530a6a0816f7ff89a0aaf/library/core/src/fmt/mod.rs:339
80204378: faa43823     	sd	a0, -0x50(s0)
8020437c: 4505         	li	a0, 0x1
8020437e: faa43c23     	sd	a0, -0x48(s0)
80204382: fc043823     	sd	zero, -0x30(s0)
80204386: 4521         	li	a0, 0x8
80204388: fca43023     	sd	a0, -0x40(s0)
8020438c: fc043423     	sd	zero, -0x38(s0)
; /rustc/90b35a6239c3d8bdabc530a6a0816f7ff89a0aaf/library/core/src/panicking.rs:148
80204390: fb040513     	addi	a0, s0, -0x50
80204394: 85b2         	mv	a1, a2
80204396: 00000097     	auipc	ra, 0x0
8020439a: f60080e7     	jalr	-0xa0(ra) <core::panicking::panic_fmt::hd74e2a0fb7381b7e>

000000008020439e <core::panicking::panic_nounwind::h92acbb232d24bc37>:
; core::panicking::panic_nounwind::h92acbb232d24bc37():
; /rustc/90b35a6239c3d8bdabc530a6a0816f7ff89a0aaf/library/core/src/panicking.rs:220
8020439e: 715d         	addi	sp, sp, -0x50
802043a0: e486         	sd	ra, 0x48(sp)
802043a2: e0a2         	sd	s0, 0x40(sp)
802043a4: 0880         	addi	s0, sp, 0x50
; /rustc/90b35a6239c3d8bdabc530a6a0816f7ff89a0aaf/library/core/src/panicking.rs:221
802043a6: fea43023     	sd	a0, -0x20(s0)
802043aa: feb43423     	sd	a1, -0x18(s0)
802043ae: fe040513     	addi	a0, s0, -0x20
; /rustc/90b35a6239c3d8bdabc530a6a0816f7ff89a0aaf/library/core/src/fmt/mod.rs:339
802043b2: faa43823     	sd	a0, -0x50(s0)
802043b6: 4505         	li	a0, 0x1
802043b8: faa43c23     	sd	a0, -0x48(s0)
802043bc: fc043823     	sd	zero, -0x30(s0)
802043c0: 4521         	li	a0, 0x8
802043c2: fca43023     	sd	a0, -0x40(s0)
802043c6: fc043423     	sd	zero, -0x38(s0)

00000000802043ca <.Lpcrel_hi352>:
; .Lpcrel_hi352():
; /rustc/90b35a6239c3d8bdabc530a6a0816f7ff89a0aaf/library/core/src/panicking.rs:221
802043ca: 00a03517     	auipc	a0, 0xa03
802043ce: 67650613     	addi	a2, a0, 0x676
802043d2: fb040513     	addi	a0, s0, -0x50
802043d6: 4581         	li	a1, 0x0
802043d8: 00000097     	auipc	ra, 0x0
802043dc: f40080e7     	jalr	-0xc0(ra) <core::panicking::panic_nounwind_fmt::h5d22e60db10db3ef>

00000000802043e0 <core::panicking::panic_bounds_check::h8cafb9a5881e4545>:
; core::panicking::panic_bounds_check::h8cafb9a5881e4545():
; /rustc/90b35a6239c3d8bdabc530a6a0816f7ff89a0aaf/library/core/src/panicking.rs:271
802043e0: 7159         	addi	sp, sp, -0x70
802043e2: f486         	sd	ra, 0x68(sp)
802043e4: f0a2         	sd	s0, 0x60(sp)
802043e6: 1880         	addi	s0, sp, 0x70
802043e8: f0040693     	addi	a3, s0, -0x100
802043ec: eac8         	sd	a0, 0x90(a3)
802043ee: eecc         	sd	a1, 0x98(a3)
802043f0: f9840513     	addi	a0, s0, -0x68
; /rustc/90b35a6239c3d8bdabc530a6a0816f7ff89a0aaf/library/core/src/panicking.rs:276
802043f4: eae8         	sd	a0, 0xd0(a3)

00000000802043f6 <.Lpcrel_hi357>:
; .Lpcrel_hi357():
; /rustc/90b35a6239c3d8bdabc530a6a0816f7ff89a0aaf/library/core/src/panicking.rs:276
802043f6: 00001517     	auipc	a0, 0x1
802043fa: 00c50513     	addi	a0, a0, 0xc
802043fe: eee8         	sd	a0, 0xd8(a3)
80204400: f9040593     	addi	a1, s0, -0x70
80204404: f2ec         	sd	a1, 0xe0(a3)
80204406: f6e8         	sd	a0, 0xe8(a3)

0000000080204408 <.Lpcrel_hi358>:
; .Lpcrel_hi358():
; /rustc/90b35a6239c3d8bdabc530a6a0816f7ff89a0aaf/library/core/src/fmt/mod.rs:350
80204408: 00a03517     	auipc	a0, 0xa03
8020440c: 68850513     	addi	a0, a0, 0x688
80204410: f2c8         	sd	a0, 0xa0(a3)
80204412: 4509         	li	a0, 0x2
80204414: f6c8         	sd	a0, 0xa8(a3)
80204416: fc043023     	sd	zero, -0x40(s0)
8020441a: fd040593     	addi	a1, s0, -0x30
8020441e: facc         	sd	a1, 0xb0(a3)
80204420: fec8         	sd	a0, 0xb8(a3)
; /rustc/90b35a6239c3d8bdabc530a6a0816f7ff89a0aaf/library/core/src/panicking.rs:276
80204422: fa040513     	addi	a0, s0, -0x60
80204426: 85b2         	mv	a1, a2
80204428: 00000097     	auipc	ra, 0x0
8020442c: ece080e7     	jalr	-0x132(ra) <core::panicking::panic_fmt::hd74e2a0fb7381b7e>

0000000080204430 <core::panicking::assert_failed_inner::h72bd04ff092a00cb>:
; core::panicking::assert_failed_inner::h72bd04ff092a00cb():
; /rustc/90b35a6239c3d8bdabc530a6a0816f7ff89a0aaf/library/core/src/panicking.rs:394
80204430: 7151         	addi	sp, sp, -0xf0
80204432: f586         	sd	ra, 0xe8(sp)
80204434: f1a2         	sd	s0, 0xe0(sp)
80204436: eda6         	sd	s1, 0xd8(sp)
80204438: e9ca         	sd	s2, 0xd0(sp)
8020443a: 1980         	addi	s0, sp, 0xf0
8020443c: 8942         	mv	s2, a6
8020443e: f0040493     	addi	s1, s0, -0x100
80204442: e88c         	sd	a1, 0x10(s1)
80204444: ec90         	sd	a2, 0x18(s1)
80204446: f094         	sd	a3, 0x20(s1)
80204448: 0ff57513     	andi	a0, a0, 0xff
8020444c: f498         	sd	a4, 0x28(s1)
; /rustc/90b35a6239c3d8bdabc530a6a0816f7ff89a0aaf/library/core/src/panicking.rs:400
8020444e: c909         	beqz	a0, 0x80204460 <.Lpcrel_hi370>
80204450: 4585         	li	a1, 0x1
; /rustc/90b35a6239c3d8bdabc530a6a0816f7ff89a0aaf/library/core/src/panicking.rs:400
80204452: 00b51f63     	bne	a0, a1, 0x80204470 <.Lpcrel_hi372>

0000000080204456 <.Lpcrel_hi371>:
; .Lpcrel_hi371():
; /rustc/90b35a6239c3d8bdabc530a6a0816f7ff89a0aaf/library/core/src/panicking.rs:402
80204456: 00a03517     	auipc	a0, 0xa03
8020445a: 65c50513     	addi	a0, a0, 0x65c
8020445e: a029         	j	0x80204468 <.Lpcrel_hi370+0x8>

0000000080204460 <.Lpcrel_hi370>:
; .Lpcrel_hi370():
; /rustc/90b35a6239c3d8bdabc530a6a0816f7ff89a0aaf/library/core/src/panicking.rs:401
80204460: 00a03517     	auipc	a0, 0xa03
80204464: 65050513     	addi	a0, a0, 0x650
80204468: f2a43823     	sd	a0, -0xd0(s0)
8020446c: 4509         	li	a0, 0x2
; /rustc/90b35a6239c3d8bdabc530a6a0816f7ff89a0aaf/library/core/src/panicking.rs:401
8020446e: a801         	j	0x8020447e <.Lpcrel_hi372+0xe>

0000000080204470 <.Lpcrel_hi372>:
; .Lpcrel_hi372():
; /rustc/90b35a6239c3d8bdabc530a6a0816f7ff89a0aaf/library/core/src/panicking.rs:403
80204470: 00a03517     	auipc	a0, 0xa03
80204474: 64450513     	addi	a0, a0, 0x644
80204478: f2a43823     	sd	a0, -0xd0(s0)
8020447c: 451d         	li	a0, 0x7
; /rustc/90b35a6239c3d8bdabc530a6a0816f7ff89a0aaf/library/core/src/panicking.rs:406
8020447e: 638c         	ld	a1, 0x0(a5)
80204480: f2a43c23     	sd	a0, -0xc8(s0)
; /rustc/90b35a6239c3d8bdabc530a6a0816f7ff89a0aaf/library/core/src/panicking.rs:406
80204484: ed95         	bnez	a1, 0x802044c0 <.Lpcrel_hi375+0xe>
80204486: f3040513     	addi	a0, s0, -0xd0
; /rustc/90b35a6239c3d8bdabc530a6a0816f7ff89a0aaf/library/core/src/panicking.rs:412
8020448a: f0040613     	addi	a2, s0, -0x100
8020448e: fa28         	sd	a0, 0x70(a2)

0000000080204490 <.Lpcrel_hi373>:
; .Lpcrel_hi373():
; /rustc/90b35a6239c3d8bdabc530a6a0816f7ff89a0aaf/library/core/src/panicking.rs:412
80204490: 00001517     	auipc	a0, 0x1
80204494: 10250513     	addi	a0, a0, 0x102
80204498: fe28         	sd	a0, 0x78(a2)
8020449a: f1040513     	addi	a0, s0, -0xf0
8020449e: e248         	sd	a0, 0x80(a2)

00000000802044a0 <.Lpcrel_hi374>:
; .Lpcrel_hi374():
; /rustc/90b35a6239c3d8bdabc530a6a0816f7ff89a0aaf/library/core/src/panicking.rs:412
802044a0: 00001517     	auipc	a0, 0x1
802044a4: 0dc50513     	addi	a0, a0, 0xdc
802044a8: e648         	sd	a0, 0x88(a2)
802044aa: f2040593     	addi	a1, s0, -0xe0
802044ae: ea4c         	sd	a1, 0x90(a2)
802044b0: ee48         	sd	a0, 0x98(a2)

00000000802044b2 <.Lpcrel_hi375>:
; .Lpcrel_hi375():
; /rustc/90b35a6239c3d8bdabc530a6a0816f7ff89a0aaf/library/core/src/fmt/mod.rs:350
802044b2: 00a03517     	auipc	a0, 0xa03
802044b6: 62e50513     	addi	a0, a0, 0x62e
802044ba: fa48         	sd	a0, 0xb0(a2)
802044bc: 450d         	li	a0, 0x3
802044be: a8b1         	j	0x8020451a <.Lpcrel_hi379+0xc>
; /rustc/90b35a6239c3d8bdabc530a6a0816f7ff89a0aaf/library/core/src/panicking.rs:407
802044c0: f4040513     	addi	a0, s0, -0xc0
802044c4: 03000613     	li	a2, 0x30
802044c8: f4040493     	addi	s1, s0, -0xc0
802044cc: 85be         	mv	a1, a5
802044ce: 00001097     	auipc	ra, 0x1
802044d2: 158080e7     	jalr	0x158(ra) <memcpy>
802044d6: f3040513     	addi	a0, s0, -0xd0
802044da: f0040613     	addi	a2, s0, -0x100
802044de: fa28         	sd	a0, 0x70(a2)

00000000802044e0 <.Lpcrel_hi376>:
; .Lpcrel_hi376():
; /rustc/90b35a6239c3d8bdabc530a6a0816f7ff89a0aaf/library/core/src/panicking.rs:407
802044e0: 00001517     	auipc	a0, 0x1
802044e4: 0b250513     	addi	a0, a0, 0xb2
802044e8: fe28         	sd	a0, 0x78(a2)
802044ea: e244         	sd	s1, 0x80(a2)

00000000802044ec <.Lpcrel_hi377>:
; .Lpcrel_hi377():
; /rustc/90b35a6239c3d8bdabc530a6a0816f7ff89a0aaf/library/core/src/panicking.rs:407
802044ec: 00000517     	auipc	a0, 0x0
802044f0: 0be50513     	addi	a0, a0, 0xbe
802044f4: e648         	sd	a0, 0x88(a2)
802044f6: f1040513     	addi	a0, s0, -0xf0
802044fa: ea48         	sd	a0, 0x90(a2)

00000000802044fc <.Lpcrel_hi378>:
; .Lpcrel_hi378():
; /rustc/90b35a6239c3d8bdabc530a6a0816f7ff89a0aaf/library/core/src/panicking.rs:407
802044fc: 00001517     	auipc	a0, 0x1
80204500: 08050513     	addi	a0, a0, 0x80
80204504: ee48         	sd	a0, 0x98(a2)
80204506: f2040593     	addi	a1, s0, -0xe0
8020450a: f24c         	sd	a1, 0xa0(a2)
8020450c: f648         	sd	a0, 0xa8(a2)

000000008020450e <.Lpcrel_hi379>:
; .Lpcrel_hi379():
; /rustc/90b35a6239c3d8bdabc530a6a0816f7ff89a0aaf/library/core/src/fmt/mod.rs:350
8020450e: 00a03517     	auipc	a0, 0xa03
80204512: 61250513     	addi	a0, a0, 0x612
80204516: fa48         	sd	a0, 0xb0(a2)
80204518: 4511         	li	a0, 0x4
; /rustc/90b35a6239c3d8bdabc530a6a0816f7ff89a0aaf/library/core/src/panicking.rs:107
8020451a: f0040613     	addi	a2, s0, -0x100
8020451e: fe48         	sd	a0, 0xb8(a2)
80204520: fc043823     	sd	zero, -0x30(s0)
80204524: f7040593     	addi	a1, s0, -0x90
80204528: e26c         	sd	a1, 0xc0(a2)
8020452a: e668         	sd	a0, 0xc8(a2)
8020452c: fb040513     	addi	a0, s0, -0x50
80204530: 85ca         	mv	a1, s2
80204532: 00000097     	auipc	ra, 0x0
80204536: dc4080e7     	jalr	-0x23c(ra) <core::panicking::panic_fmt::hd74e2a0fb7381b7e>

000000008020453a <core::result::unwrap_failed::hf18ad24dd5556ab7>:
; core::result::unwrap_failed::hf18ad24dd5556ab7():
; /rustc/90b35a6239c3d8bdabc530a6a0816f7ff89a0aaf/library/core/src/result.rs:1699
8020453a: 7119         	addi	sp, sp, -0x80
8020453c: fc86         	sd	ra, 0x78(sp)
8020453e: f8a2         	sd	s0, 0x70(sp)
80204540: 0100         	addi	s0, sp, 0x80
80204542: f8a43023     	sd	a0, -0x80(s0)
80204546: f8b43423     	sd	a1, -0x78(s0)
8020454a: f8c43823     	sd	a2, -0x70(s0)
8020454e: f8d43c23     	sd	a3, -0x68(s0)
80204552: f8040513     	addi	a0, s0, -0x80
; /rustc/90b35a6239c3d8bdabc530a6a0816f7ff89a0aaf/library/core/src/result.rs:1700
80204556: fca43823     	sd	a0, -0x30(s0)

000000008020455a <.Lpcrel_hi380>:
; .Lpcrel_hi380():
; /rustc/90b35a6239c3d8bdabc530a6a0816f7ff89a0aaf/library/core/src/result.rs:1700
8020455a: 00001517     	auipc	a0, 0x1
8020455e: 03850513     	addi	a0, a0, 0x38
80204562: fca43c23     	sd	a0, -0x28(s0)
80204566: f9040513     	addi	a0, s0, -0x70
8020456a: fea43023     	sd	a0, -0x20(s0)

000000008020456e <.Lpcrel_hi381>:
; .Lpcrel_hi381():
; /rustc/90b35a6239c3d8bdabc530a6a0816f7ff89a0aaf/library/core/src/result.rs:1700
8020456e: 00001517     	auipc	a0, 0x1
80204572: 00e50513     	addi	a0, a0, 0xe
80204576: fea43423     	sd	a0, -0x18(s0)

000000008020457a <.Lpcrel_hi382>:
; .Lpcrel_hi382():
; /rustc/90b35a6239c3d8bdabc530a6a0816f7ff89a0aaf/library/core/src/fmt/mod.rs:350
8020457a: 00a03517     	auipc	a0, 0xa03
8020457e: 5ee50513     	addi	a0, a0, 0x5ee
80204582: faa43023     	sd	a0, -0x60(s0)
80204586: 4509         	li	a0, 0x2
80204588: faa43423     	sd	a0, -0x58(s0)
8020458c: fc043023     	sd	zero, -0x40(s0)
80204590: fd040593     	addi	a1, s0, -0x30
80204594: fab43823     	sd	a1, -0x50(s0)
80204598: faa43c23     	sd	a0, -0x48(s0)
; /rustc/90b35a6239c3d8bdabc530a6a0816f7ff89a0aaf/library/core/src/result.rs:1700
8020459c: fa040513     	addi	a0, s0, -0x60
802045a0: 85ba         	mv	a1, a4
802045a2: 00000097     	auipc	ra, 0x0
802045a6: d54080e7     	jalr	-0x2ac(ra) <core::panicking::panic_fmt::hd74e2a0fb7381b7e>

00000000802045aa <_$LT$core..fmt..Arguments$u20$as$u20$core..fmt..Display$GT$::fmt::he179e436ec5992b2>:
; _$LT$core..fmt..Arguments$u20$as$u20$core..fmt..Display$GT$::fmt::he179e436ec5992b2():
; /rustc/90b35a6239c3d8bdabc530a6a0816f7ff89a0aaf/library/core/src/fmt/mod.rs:473
802045aa: 1141         	addi	sp, sp, -0x10
802045ac: e406         	sd	ra, 0x8(sp)
802045ae: e022         	sd	s0, 0x0(sp)
802045b0: 0800         	addi	s0, sp, 0x10
; /rustc/90b35a6239c3d8bdabc530a6a0816f7ff89a0aaf/library/core/src/fmt/mod.rs:474
802045b2: 7190         	ld	a2, 0x20(a1)
802045b4: 758c         	ld	a1, 0x28(a1)
802045b6: 86aa         	mv	a3, a0
802045b8: 8532         	mv	a0, a2
802045ba: 8636         	mv	a2, a3
802045bc: 60a2         	ld	ra, 0x8(sp)
802045be: 6402         	ld	s0, 0x0(sp)
802045c0: 0141         	addi	sp, sp, 0x10
802045c2: 00000317     	auipc	t1, 0x0
802045c6: 00830067     	jr	0x8(t1) <core::fmt::write::h1d69cb434d0bed94>

00000000802045ca <core::fmt::write::h1d69cb434d0bed94>:
; core::fmt::write::h1d69cb434d0bed94():
; /rustc/90b35a6239c3d8bdabc530a6a0816f7ff89a0aaf/library/core/src/fmt/mod.rs:1168
802045ca: 7175         	addi	sp, sp, -0x90
802045cc: e506         	sd	ra, 0x88(sp)
802045ce: e122         	sd	s0, 0x80(sp)
802045d0: fca6         	sd	s1, 0x78(sp)
802045d2: f8ca         	sd	s2, 0x70(sp)
802045d4: f4ce         	sd	s3, 0x68(sp)
802045d6: f0d2         	sd	s4, 0x60(sp)
802045d8: ecd6         	sd	s5, 0x58(sp)
802045da: e8da         	sd	s6, 0x50(sp)
802045dc: e4de         	sd	s7, 0x48(sp)
802045de: e0e2         	sd	s8, 0x40(sp)
802045e0: 0900         	addi	s0, sp, 0x90
802045e2: 89b2         	mv	s3, a2
802045e4: 02000613     	li	a2, 0x20
; /rustc/90b35a6239c3d8bdabc530a6a0816f7ff89a0aaf/library/core/src/fmt/mod.rs:283
802045e8: fac43023     	sd	a2, -0x60(s0)
802045ec: 460d         	li	a2, 0x3
802045ee: fac40423     	sb	a2, -0x58(s0)
; /rustc/90b35a6239c3d8bdabc530a6a0816f7ff89a0aaf/library/core/src/fmt/mod.rs:1172
802045f2: 0209b483     	ld	s1, 0x20(s3)
; /rustc/90b35a6239c3d8bdabc530a6a0816f7ff89a0aaf/library/core/src/fmt/mod.rs:283
802045f6: f6043823     	sd	zero, -0x90(s0)
802045fa: f8043023     	sd	zero, -0x80(s0)
802045fe: f8a43823     	sd	a0, -0x70(s0)
80204602: f8b43c23     	sd	a1, -0x68(s0)
; /rustc/90b35a6239c3d8bdabc530a6a0816f7ff89a0aaf/library/core/src/fmt/mod.rs:1172
80204606: cce1         	beqz	s1, 0x802046de <core::fmt::write::h1d69cb434d0bed94+0x114>
; /rustc/90b35a6239c3d8bdabc530a6a0816f7ff89a0aaf/library/core/src/fmt/mod.rs:1191
80204608: 0289b503     	ld	a0, 0x28(s3)
; /rustc/90b35a6239c3d8bdabc530a6a0816f7ff89a0aaf/library/core/src/slice/iter/macros.rs:25
8020460c: 12050463     	beqz	a0, 0x80204734 <core::fmt::write::h1d69cb434d0bed94+0x16a>
80204610: 0009bb03     	ld	s6, 0x0(s3)
80204614: 0109ba03     	ld	s4, 0x10(s3)
; /rustc/90b35a6239c3d8bdabc530a6a0816f7ff89a0aaf/library/core/src/slice/iter/macros.rs:25
80204618: fff50593     	addi	a1, a0, -0x1
8020461c: 058e         	slli	a1, a1, 0x3
8020461e: 818d         	srli	a1, a1, 0x3
80204620: 00158913     	addi	s2, a1, 0x1
80204624: 0b21         	addi	s6, s6, 0x8
80204626: 00351593     	slli	a1, a0, 0x3
8020462a: 051a         	slli	a0, a0, 0x6
8020462c: 40b50ab3     	sub	s5, a0, a1
80204630: 04e1         	addi	s1, s1, 0x18
80204632: 4b89         	li	s7, 0x2
80204634: 4c05         	li	s8, 0x1
; /rustc/90b35a6239c3d8bdabc530a6a0816f7ff89a0aaf/library/core/src/fmt/mod.rs:1198
80204636: 000b3603     	ld	a2, 0x0(s6)
8020463a: ca19         	beqz	a2, 0x80204650 <core::fmt::write::h1d69cb434d0bed94+0x86>
; /rustc/90b35a6239c3d8bdabc530a6a0816f7ff89a0aaf/library/core/src/fmt/mod.rs:1199
8020463c: f9843683     	ld	a3, -0x68(s0)
80204640: f9043503     	ld	a0, -0x70(s0)
80204644: ff8b3583     	ld	a1, -0x8(s6)
80204648: 6e94         	ld	a3, 0x18(a3)
8020464a: 9682         	jalr	a3
8020464c: 10051863     	bnez	a0, 0x8020475c <core::fmt::write::h1d69cb434d0bed94+0x192>
; /rustc/90b35a6239c3d8bdabc530a6a0816f7ff89a0aaf/library/core/src/fmt/mod.rs:1218
80204650: 6888         	ld	a0, 0x10(s1)
80204652: faa43023     	sd	a0, -0x60(s0)
; /rustc/90b35a6239c3d8bdabc530a6a0816f7ff89a0aaf/library/core/src/fmt/mod.rs:1219
80204656: 0184c603     	lbu	a2, 0x18(s1)
; /rustc/90b35a6239c3d8bdabc530a6a0816f7ff89a0aaf/library/core/src/fmt/mod.rs:1224
8020465a: ff84b583     	ld	a1, -0x8(s1)
8020465e: 6088         	ld	a0, 0x0(s1)
; /rustc/90b35a6239c3d8bdabc530a6a0816f7ff89a0aaf/library/core/src/fmt/mod.rs:1219
80204660: fac40423     	sb	a2, -0x58(s0)
80204664: c18d         	beqz	a1, 0x80204686 <core::fmt::write::h1d69cb434d0bed94+0xbc>
80204666: 01859663     	bne	a1, s8, 0x80204672 <core::fmt::write::h1d69cb434d0bed94+0xa8>
; /rustc/90b35a6239c3d8bdabc530a6a0816f7ff89a0aaf/library/core/src/slice/index.rs:117
8020466a: 0512         	slli	a0, a0, 0x4
8020466c: 9552         	add	a0, a0, s4
; /rustc/90b35a6239c3d8bdabc530a6a0816f7ff89a0aaf/library/core/src/fmt/rt.rs:185
8020466e: 610c         	ld	a1, 0x0(a0)
80204670: c991         	beqz	a1, 0x80204684 <core::fmt::write::h1d69cb434d0bed94+0xba>
; /rustc/90b35a6239c3d8bdabc530a6a0816f7ff89a0aaf/library/core/src/fmt/mod.rs:1225
80204672: fe84b603     	ld	a2, -0x18(s1)
; /rustc/90b35a6239c3d8bdabc530a6a0816f7ff89a0aaf/library/core/src/fmt/mod.rs:1224
80204676: f6043823     	sd	zero, -0x90(s0)
8020467a: f6a43c23     	sd	a0, -0x88(s0)
; /rustc/90b35a6239c3d8bdabc530a6a0816f7ff89a0aaf/library/core/src/fmt/mod.rs:1240
8020467e: 01761d63     	bne	a2, s7, 0x80204698 <core::fmt::write::h1d69cb434d0bed94+0xce>
80204682: a025         	j	0x802046aa <core::fmt::write::h1d69cb434d0bed94+0xe0>
; /rustc/90b35a6239c3d8bdabc530a6a0816f7ff89a0aaf/library/core/src/fmt/rt.rs:186
80204684: 6508         	ld	a0, 0x8(a0)
80204686: 4585         	li	a1, 0x1
; /rustc/90b35a6239c3d8bdabc530a6a0816f7ff89a0aaf/library/core/src/fmt/mod.rs:1225
80204688: fe84b603     	ld	a2, -0x18(s1)
; /rustc/90b35a6239c3d8bdabc530a6a0816f7ff89a0aaf/library/core/src/fmt/mod.rs:1224
8020468c: f6b43823     	sd	a1, -0x90(s0)
80204690: f6a43c23     	sd	a0, -0x88(s0)
; /rustc/90b35a6239c3d8bdabc530a6a0816f7ff89a0aaf/library/core/src/fmt/mod.rs:1240
80204694: 01760b63     	beq	a2, s7, 0x802046aa <core::fmt::write::h1d69cb434d0bed94+0xe0>
; /rustc/90b35a6239c3d8bdabc530a6a0816f7ff89a0aaf/library/core/src/fmt/mod.rs:1225
80204698: ff04b583     	ld	a1, -0x10(s1)
; /rustc/90b35a6239c3d8bdabc530a6a0816f7ff89a0aaf/library/core/src/fmt/mod.rs:1240
8020469c: 01861a63     	bne	a2, s8, 0x802046b0 <core::fmt::write::h1d69cb434d0bed94+0xe6>
; /rustc/90b35a6239c3d8bdabc530a6a0816f7ff89a0aaf/library/core/src/slice/index.rs:117
802046a0: 00459513     	slli	a0, a1, 0x4
802046a4: 9552         	add	a0, a0, s4
; /rustc/90b35a6239c3d8bdabc530a6a0816f7ff89a0aaf/library/core/src/fmt/rt.rs:185
802046a6: 610c         	ld	a1, 0x0(a0)
802046a8: c199         	beqz	a1, 0x802046ae <core::fmt::write::h1d69cb434d0bed94+0xe4>
802046aa: 4601         	li	a2, 0x0
; /rustc/90b35a6239c3d8bdabc530a6a0816f7ff89a0aaf/library/core/src/fmt/mod.rs:1240
802046ac: a019         	j	0x802046b2 <core::fmt::write::h1d69cb434d0bed94+0xe8>
; /rustc/90b35a6239c3d8bdabc530a6a0816f7ff89a0aaf/library/core/src/fmt/rt.rs:186
802046ae: 650c         	ld	a1, 0x8(a0)
802046b0: 4605         	li	a2, 0x1
; /rustc/90b35a6239c3d8bdabc530a6a0816f7ff89a0aaf/library/core/src/fmt/mod.rs:1232
802046b2: 6488         	ld	a0, 0x8(s1)
; /rustc/90b35a6239c3d8bdabc530a6a0816f7ff89a0aaf/library/core/src/slice/index.rs:117
802046b4: 0512         	slli	a0, a0, 0x4
802046b6: 00aa06b3     	add	a3, s4, a0
; /rustc/90b35a6239c3d8bdabc530a6a0816f7ff89a0aaf/library/core/src/fmt/rt.rs:169
802046ba: 6288         	ld	a0, 0x0(a3)
; /rustc/90b35a6239c3d8bdabc530a6a0816f7ff89a0aaf/library/core/src/fmt/rt.rs:177
802046bc: 6694         	ld	a3, 0x8(a3)
; /rustc/90b35a6239c3d8bdabc530a6a0816f7ff89a0aaf/library/core/src/fmt/mod.rs:1225
802046be: f8c43023     	sd	a2, -0x80(s0)
802046c2: f8b43423     	sd	a1, -0x78(s0)
; /rustc/90b35a6239c3d8bdabc530a6a0816f7ff89a0aaf/library/core/src/fmt/rt.rs:177
802046c6: f7040593     	addi	a1, s0, -0x90
802046ca: 9682         	jalr	a3
; /rustc/90b35a6239c3d8bdabc530a6a0816f7ff89a0aaf/library/core/src/fmt/mod.rs:1203
802046cc: e941         	bnez	a0, 0x8020475c <core::fmt::write::h1d69cb434d0bed94+0x192>
; /rustc/90b35a6239c3d8bdabc530a6a0816f7ff89a0aaf/library/core/src/ptr/non_null.rs:1709
802046ce: 0b41         	addi	s6, s6, 0x10
802046d0: fc8a8a93     	addi	s5, s5, -0x38
802046d4: 03848493     	addi	s1, s1, 0x38
802046d8: f40a9fe3     	bnez	s5, 0x80204636 <core::fmt::write::h1d69cb434d0bed94+0x6c>
802046dc: a0b9         	j	0x8020472a <core::fmt::write::h1d69cb434d0bed94+0x160>
; /rustc/90b35a6239c3d8bdabc530a6a0816f7ff89a0aaf/library/core/src/fmt/mod.rs:1175
802046de: 0189b503     	ld	a0, 0x18(s3)
; /rustc/90b35a6239c3d8bdabc530a6a0816f7ff89a0aaf/library/core/src/slice/iter/macros.rs:25
802046e2: c929         	beqz	a0, 0x80204734 <core::fmt::write::h1d69cb434d0bed94+0x16a>
802046e4: 0109b483     	ld	s1, 0x10(s3)
802046e8: 00451a13     	slli	s4, a0, 0x4
802046ec: 9a26         	add	s4, s4, s1
802046ee: 0009ba83     	ld	s5, 0x0(s3)
; /rustc/90b35a6239c3d8bdabc530a6a0816f7ff89a0aaf/library/core/src/slice/iter/macros.rs:25
802046f2: 157d         	addi	a0, a0, -0x1
802046f4: 0512         	slli	a0, a0, 0x4
802046f6: 8111         	srli	a0, a0, 0x4
802046f8: 00150913     	addi	s2, a0, 0x1
802046fc: 0aa1         	addi	s5, s5, 0x8
; /rustc/90b35a6239c3d8bdabc530a6a0816f7ff89a0aaf/library/core/src/fmt/mod.rs:1179
802046fe: 000ab603     	ld	a2, 0x0(s5)
80204702: ca11         	beqz	a2, 0x80204716 <core::fmt::write::h1d69cb434d0bed94+0x14c>
; /rustc/90b35a6239c3d8bdabc530a6a0816f7ff89a0aaf/library/core/src/fmt/mod.rs:1180
80204704: f9843683     	ld	a3, -0x68(s0)
80204708: f9043503     	ld	a0, -0x70(s0)
8020470c: ff8ab583     	ld	a1, -0x8(s5)
80204710: 6e94         	ld	a3, 0x18(a3)
80204712: 9682         	jalr	a3
80204714: e521         	bnez	a0, 0x8020475c <core::fmt::write::h1d69cb434d0bed94+0x192>
; /rustc/90b35a6239c3d8bdabc530a6a0816f7ff89a0aaf/library/core/src/fmt/rt.rs:169
80204716: 6088         	ld	a0, 0x0(s1)
; /rustc/90b35a6239c3d8bdabc530a6a0816f7ff89a0aaf/library/core/src/fmt/rt.rs:177
80204718: 6490         	ld	a2, 0x8(s1)
8020471a: f7040593     	addi	a1, s0, -0x90
8020471e: 9602         	jalr	a2
; /rustc/90b35a6239c3d8bdabc530a6a0816f7ff89a0aaf/library/core/src/fmt/mod.rs:1186
80204720: ed15         	bnez	a0, 0x8020475c <core::fmt::write::h1d69cb434d0bed94+0x192>
; /rustc/90b35a6239c3d8bdabc530a6a0816f7ff89a0aaf/library/core/src/ptr/non_null.rs:1709
80204722: 04c1         	addi	s1, s1, 0x10
80204724: 0ac1         	addi	s5, s5, 0x10
; /rustc/90b35a6239c3d8bdabc530a6a0816f7ff89a0aaf/library/core/src/slice/iter/macros.rs:25
80204726: fd449ce3     	bne	s1, s4, 0x802046fe <core::fmt::write::h1d69cb434d0bed94+0x134>
; /rustc/90b35a6239c3d8bdabc530a6a0816f7ff89a0aaf/library/core/src/fmt/mod.rs:1210
8020472a: 0089b503     	ld	a0, 0x8(s3)
8020472e: 00a96863     	bltu	s2, a0, 0x8020473e <core::fmt::write::h1d69cb434d0bed94+0x174>
80204732: a03d         	j	0x80204760 <core::fmt::write::h1d69cb434d0bed94+0x196>
80204734: 4901         	li	s2, 0x0
; /rustc/90b35a6239c3d8bdabc530a6a0816f7ff89a0aaf/library/core/src/fmt/mod.rs:1210
80204736: 0089b503     	ld	a0, 0x8(s3)
8020473a: 02a07363     	bgeu	zero, a0, 0x80204760 <core::fmt::write::h1d69cb434d0bed94+0x196>
; /rustc/90b35a6239c3d8bdabc530a6a0816f7ff89a0aaf/library/core/src/slice/index.rs:255
8020473e: 0009b503     	ld	a0, 0x0(s3)
80204742: 0912         	slli	s2, s2, 0x4
80204744: 992a         	add	s2, s2, a0
; /rustc/90b35a6239c3d8bdabc530a6a0816f7ff89a0aaf/library/core/src/fmt/mod.rs:1211
80204746: f9843683     	ld	a3, -0x68(s0)
8020474a: f9043503     	ld	a0, -0x70(s0)
8020474e: 00093583     	ld	a1, 0x0(s2)
80204752: 00893603     	ld	a2, 0x8(s2)
80204756: 6e94         	ld	a3, 0x18(a3)
80204758: 9682         	jalr	a3
8020475a: c119         	beqz	a0, 0x80204760 <core::fmt::write::h1d69cb434d0bed94+0x196>
8020475c: 4505         	li	a0, 0x1
; /rustc/90b35a6239c3d8bdabc530a6a0816f7ff89a0aaf/library/core/src/fmt/mod.rs:1215
8020475e: a011         	j	0x80204762 <core::fmt::write::h1d69cb434d0bed94+0x198>
80204760: 4501         	li	a0, 0x0
80204762: 60aa         	ld	ra, 0x88(sp)
80204764: 640a         	ld	s0, 0x80(sp)
80204766: 74e6         	ld	s1, 0x78(sp)
80204768: 7946         	ld	s2, 0x70(sp)
8020476a: 79a6         	ld	s3, 0x68(sp)
8020476c: 7a06         	ld	s4, 0x60(sp)
8020476e: 6ae6         	ld	s5, 0x58(sp)
80204770: 6b46         	ld	s6, 0x50(sp)
80204772: 6ba6         	ld	s7, 0x48(sp)
80204774: 6c06         	ld	s8, 0x40(sp)
; /rustc/90b35a6239c3d8bdabc530a6a0816f7ff89a0aaf/library/core/src/fmt/mod.rs:1215
80204776: 6149         	addi	sp, sp, 0x90
80204778: 8082         	ret

000000008020477a <core::fmt::Formatter::pad_integral::hf8a5cc02ce52cbd4>:
; core::fmt::Formatter::pad_integral::hf8a5cc02ce52cbd4():
; /rustc/90b35a6239c3d8bdabc530a6a0816f7ff89a0aaf/library/core/src/fmt/mod.rs:1340
8020477a: 7159         	addi	sp, sp, -0x70
8020477c: f486         	sd	ra, 0x68(sp)
8020477e: f0a2         	sd	s0, 0x60(sp)
80204780: eca6         	sd	s1, 0x58(sp)
80204782: e8ca         	sd	s2, 0x50(sp)
80204784: e4ce         	sd	s3, 0x48(sp)
80204786: e0d2         	sd	s4, 0x40(sp)
80204788: fc56         	sd	s5, 0x38(sp)
8020478a: f85a         	sd	s6, 0x30(sp)
8020478c: f45e         	sd	s7, 0x28(sp)
8020478e: f062         	sd	s8, 0x20(sp)
80204790: ec66         	sd	s9, 0x18(sp)
80204792: e86a         	sd	s10, 0x10(sp)
80204794: e46e         	sd	s11, 0x8(sp)
80204796: 1880         	addi	s0, sp, 0x70
80204798: 89be         	mv	s3, a5
8020479a: 893a         	mv	s2, a4
8020479c: 8a36         	mv	s4, a3
8020479e: 8b32         	mv	s6, a2
; /rustc/90b35a6239c3d8bdabc530a6a0816f7ff89a0aaf/library/core/src/fmt/mod.rs:1344
802047a0: c5b9         	beqz	a1, 0x802047ee <core::fmt::Formatter::pad_integral::hf8a5cc02ce52cbd4+0x74>
; /rustc/90b35a6239c3d8bdabc530a6a0816f7ff89a0aaf/library/core/src/fmt/mod.rs:1845
802047a2: 03456483     	lwu	s1, 0x34(a0)
; /rustc/90b35a6239c3d8bdabc530a6a0816f7ff89a0aaf/library/core/src/fmt/mod.rs:1347
802047a6: 0014fc13     	andi	s8, s1, 0x1
802047aa: 00110ab7     	lui	s5, 0x110
802047ae: 000c0463     	beqz	s8, 0x802047b6 <core::fmt::Formatter::pad_integral::hf8a5cc02ce52cbd4+0x3c>
802047b2: 02b00a93     	li	s5, 0x2b
; /rustc/90b35a6239c3d8bdabc530a6a0816f7ff89a0aaf/library/core/src/fmt/mod.rs:1347
802047b6: 9c4e         	add	s8, s8, s3
; /rustc/90b35a6239c3d8bdabc530a6a0816f7ff89a0aaf/library/core/src/fmt/mod.rs:1902
802047b8: 0044f593     	andi	a1, s1, 0x4
; /rustc/90b35a6239c3d8bdabc530a6a0816f7ff89a0aaf/library/core/src/fmt/mod.rs:1352
802047bc: c1a9         	beqz	a1, 0x802047fe <core::fmt::Formatter::pad_integral::hf8a5cc02ce52cbd4+0x84>
802047be: 02000593     	li	a1, 0x20
; /rustc/90b35a6239c3d8bdabc530a6a0816f7ff89a0aaf/library/core/src/str/count.rs:28
802047c2: 04ba7263     	bgeu	s4, a1, 0x80204806 <core::fmt::Formatter::pad_integral::hf8a5cc02ce52cbd4+0x8c>
802047c6: 4581         	li	a1, 0x0
; /rustc/90b35a6239c3d8bdabc530a6a0816f7ff89a0aaf/library/core/src/slice/iter/macros.rs:25
802047c8: 000a0f63     	beqz	s4, 0x802047e6 <core::fmt::Formatter::pad_integral::hf8a5cc02ce52cbd4+0x6c>
; /rustc/90b35a6239c3d8bdabc530a6a0816f7ff89a0aaf/library/core/src/slice/iter/macros.rs:237
802047cc: 014b0633     	add	a2, s6, s4
802047d0: 86da         	mv	a3, s6
; /rustc/90b35a6239c3d8bdabc530a6a0816f7ff89a0aaf/library/core/src/slice/iter/macros.rs:232
802047d2: 00068703     	lb	a4, 0x0(a3)
; /rustc/90b35a6239c3d8bdabc530a6a0816f7ff89a0aaf/library/core/src/str/validations.rs:24
802047d6: fc072713     	slti	a4, a4, -0x40
802047da: 00174713     	xori	a4, a4, 0x1
; /rustc/90b35a6239c3d8bdabc530a6a0816f7ff89a0aaf/library/core/src/slice/iter/macros.rs:237
802047de: 0685         	addi	a3, a3, 0x1
; /rustc/90b35a6239c3d8bdabc530a6a0816f7ff89a0aaf/library/core/src/iter/traits/accum.rs:53
802047e0: 95ba         	add	a1, a1, a4
; /rustc/90b35a6239c3d8bdabc530a6a0816f7ff89a0aaf/library/core/src/slice/iter/macros.rs:237
802047e2: fec698e3     	bne	a3, a2, 0x802047d2 <core::fmt::Formatter::pad_integral::hf8a5cc02ce52cbd4+0x58>
; /rustc/90b35a6239c3d8bdabc530a6a0816f7ff89a0aaf/library/core/src/fmt/mod.rs:1353
802047e6: 9c2e         	add	s8, s8, a1
; /rustc/90b35a6239c3d8bdabc530a6a0816f7ff89a0aaf/library/core/src/fmt/mod.rs:1369
802047e8: 610c         	ld	a1, 0x0(a0)
802047ea: c9b1         	beqz	a1, 0x8020483e <core::fmt::Formatter::pad_integral::hf8a5cc02ce52cbd4+0xc4>
802047ec: a815         	j	0x80204820 <core::fmt::Formatter::pad_integral::hf8a5cc02ce52cbd4+0xa6>
; /rustc/90b35a6239c3d8bdabc530a6a0816f7ff89a0aaf/library/core/src/fmt/mod.rs:1902
802047ee: 5944         	lw	s1, 0x34(a0)
; /rustc/90b35a6239c3d8bdabc530a6a0816f7ff89a0aaf/library/core/src/fmt/mod.rs:1346
802047f0: 00198c13     	addi	s8, s3, 0x1
802047f4: 02d00a93     	li	s5, 0x2d
; /rustc/90b35a6239c3d8bdabc530a6a0816f7ff89a0aaf/library/core/src/fmt/mod.rs:1902
802047f8: 0044f593     	andi	a1, s1, 0x4
; /rustc/90b35a6239c3d8bdabc530a6a0816f7ff89a0aaf/library/core/src/fmt/mod.rs:1352
802047fc: f1e9         	bnez	a1, 0x802047be <core::fmt::Formatter::pad_integral::hf8a5cc02ce52cbd4+0x44>
802047fe: 4b01         	li	s6, 0x0
; /rustc/90b35a6239c3d8bdabc530a6a0816f7ff89a0aaf/library/core/src/fmt/mod.rs:1369
80204800: 610c         	ld	a1, 0x0(a0)
80204802: ed99         	bnez	a1, 0x80204820 <core::fmt::Formatter::pad_integral::hf8a5cc02ce52cbd4+0xa6>
80204804: a82d         	j	0x8020483e <core::fmt::Formatter::pad_integral::hf8a5cc02ce52cbd4+0xc4>
80204806: 8baa         	mv	s7, a0
; /rustc/90b35a6239c3d8bdabc530a6a0816f7ff89a0aaf/library/core/src/str/count.rs:35
80204808: 855a         	mv	a0, s6
8020480a: 85d2         	mv	a1, s4
8020480c: 00000097     	auipc	ra, 0x0
80204810: 448080e7     	jalr	0x448(ra) <core::str::count::do_count_chars::hdb8f07b07354a3bb>
80204814: 85aa         	mv	a1, a0
80204816: 855e         	mv	a0, s7
; /rustc/90b35a6239c3d8bdabc530a6a0816f7ff89a0aaf/library/core/src/fmt/mod.rs:1353
80204818: 9c2e         	add	s8, s8, a1
; /rustc/90b35a6239c3d8bdabc530a6a0816f7ff89a0aaf/library/core/src/fmt/mod.rs:1369
8020481a: 000bb583     	ld	a1, 0x0(s7)
8020481e: c185         	beqz	a1, 0x8020483e <core::fmt::Formatter::pad_integral::hf8a5cc02ce52cbd4+0xc4>
; /rustc/90b35a6239c3d8bdabc530a6a0816f7ff89a0aaf/library/core/src/fmt/mod.rs:1378
80204820: 00853c83     	ld	s9, 0x8(a0)
80204824: 019c7d63     	bgeu	s8, s9, 0x8020483e <core::fmt::Formatter::pad_integral::hf8a5cc02ce52cbd4+0xc4>
; /rustc/90b35a6239c3d8bdabc530a6a0816f7ff89a0aaf/library/core/src/fmt/mod.rs:1928
80204828: 88a1         	andi	s1, s1, 0x8
8020482a: eca1         	bnez	s1, 0x80204882 <core::fmt::Formatter::pad_integral::hf8a5cc02ce52cbd4+0x108>
; /rustc/90b35a6239c3d8bdabc530a6a0816f7ff89a0aaf/library/core/src/fmt/mod.rs:1491
8020482c: 03854583     	lbu	a1, 0x38(a0)
80204830: 4605         	li	a2, 0x1
; /rustc/90b35a6239c3d8bdabc530a6a0816f7ff89a0aaf/library/core/src/fmt/mod.rs:1397
80204832: 418c8cb3     	sub	s9, s9, s8
; /rustc/90b35a6239c3d8bdabc530a6a0816f7ff89a0aaf/library/core/src/fmt/mod.rs:1491
80204836: 08b64e63     	blt	a2, a1, 0x802048d2 <core::fmt::Formatter::pad_integral::hf8a5cc02ce52cbd4+0x158>
8020483a: c5dd         	beqz	a1, 0x802048e8 <core::fmt::Formatter::pad_integral::hf8a5cc02ce52cbd4+0x16e>
8020483c: a065         	j	0x802048e4 <core::fmt::Formatter::pad_integral::hf8a5cc02ce52cbd4+0x16a>
8020483e: 02053b83     	ld	s7, 0x20(a0)
80204842: 7504         	ld	s1, 0x28(a0)
80204844: 855e         	mv	a0, s7
80204846: 85a6         	mv	a1, s1
80204848: 8656         	mv	a2, s5
8020484a: 86da         	mv	a3, s6
8020484c: 8752         	mv	a4, s4
8020484e: 00000097     	auipc	ra, 0x0
80204852: 150080e7     	jalr	0x150(ra) <core::fmt::Formatter::pad_integral::write_prefix::hedb52ada1384a2d4>
80204856: 85aa         	mv	a1, a0
80204858: 4505         	li	a0, 0x1
8020485a: e9c5         	bnez	a1, 0x8020490a <core::fmt::Formatter::pad_integral::hf8a5cc02ce52cbd4+0x190>
8020485c: 6c9c         	ld	a5, 0x18(s1)
8020485e: 855e         	mv	a0, s7
80204860: 85ca         	mv	a1, s2
80204862: 864e         	mv	a2, s3
80204864: 70a6         	ld	ra, 0x68(sp)
80204866: 7406         	ld	s0, 0x60(sp)
80204868: 64e6         	ld	s1, 0x58(sp)
8020486a: 6946         	ld	s2, 0x50(sp)
8020486c: 69a6         	ld	s3, 0x48(sp)
8020486e: 6a06         	ld	s4, 0x40(sp)
80204870: 7ae2         	ld	s5, 0x38(sp)
80204872: 7b42         	ld	s6, 0x30(sp)
80204874: 7ba2         	ld	s7, 0x28(sp)
80204876: 7c02         	ld	s8, 0x20(sp)
80204878: 6ce2         	ld	s9, 0x18(sp)
8020487a: 6d42         	ld	s10, 0x10(sp)
8020487c: 6da2         	ld	s11, 0x8(sp)
8020487e: 6165         	addi	sp, sp, 0x70
80204880: 8782         	jr	a5
; /rustc/90b35a6239c3d8bdabc530a6a0816f7ff89a0aaf/library/core/src/ptr/mod.rs:1435
80204882: 5904         	lw	s1, 0x30(a0)
80204884: 03000593     	li	a1, 0x30
80204888: 03854603     	lbu	a2, 0x38(a0)
8020488c: f8c43823     	sd	a2, -0x70(s0)
; /rustc/90b35a6239c3d8bdabc530a6a0816f7ff89a0aaf/library/core/src/fmt/mod.rs:1387
80204890: 02053b83     	ld	s7, 0x20(a0)
80204894: 02853d03     	ld	s10, 0x28(a0)
; /rustc/90b35a6239c3d8bdabc530a6a0816f7ff89a0aaf/library/core/src/ptr/mod.rs:1640
80204898: d90c         	sw	a1, 0x30(a0)
8020489a: 4585         	li	a1, 0x1
8020489c: 8daa         	mv	s11, a0
8020489e: 02b50c23     	sb	a1, 0x38(a0)
; /rustc/90b35a6239c3d8bdabc530a6a0816f7ff89a0aaf/library/core/src/fmt/mod.rs:1387
802048a2: 855e         	mv	a0, s7
802048a4: 85ea         	mv	a1, s10
802048a6: 8656         	mv	a2, s5
802048a8: 86da         	mv	a3, s6
802048aa: 8752         	mv	a4, s4
802048ac: 00000097     	auipc	ra, 0x0
802048b0: 0f2080e7     	jalr	0xf2(ra) <core::fmt::Formatter::pad_integral::write_prefix::hedb52ada1384a2d4>
802048b4: e931         	bnez	a0, 0x80204908 <core::fmt::Formatter::pad_integral::hf8a5cc02ce52cbd4+0x18e>
802048b6: 8a26         	mv	s4, s1
; /rustc/90b35a6239c3d8bdabc530a6a0816f7ff89a0aaf/library/core/src/fmt/mod.rs:1504
802048b8: 418c84b3     	sub	s1, s9, s8
802048bc: 0485         	addi	s1, s1, 0x1
; /rustc/90b35a6239c3d8bdabc530a6a0816f7ff89a0aaf/library/core/src/cmp.rs:1720
802048be: 14fd         	addi	s1, s1, -0x1
802048c0: c8dd         	beqz	s1, 0x80204976 <core::fmt::Formatter::pad_integral::hf8a5cc02ce52cbd4+0x1fc>
; /rustc/90b35a6239c3d8bdabc530a6a0816f7ff89a0aaf/library/core/src/fmt/mod.rs:1505
802048c2: 020d3603     	ld	a2, 0x20(s10)
802048c6: 03000593     	li	a1, 0x30
802048ca: 855e         	mv	a0, s7
802048cc: 9602         	jalr	a2
; /rustc/90b35a6239c3d8bdabc530a6a0816f7ff89a0aaf/library/core/src/result.rs:1997
802048ce: d965         	beqz	a0, 0x802048be <core::fmt::Formatter::pad_integral::hf8a5cc02ce52cbd4+0x144>
802048d0: a825         	j	0x80204908 <core::fmt::Formatter::pad_integral::hf8a5cc02ce52cbd4+0x18e>
802048d2: 4609         	li	a2, 0x2
; /rustc/90b35a6239c3d8bdabc530a6a0816f7ff89a0aaf/library/core/src/fmt/mod.rs:1491
802048d4: 00c59863     	bne	a1, a2, 0x802048e4 <core::fmt::Formatter::pad_integral::hf8a5cc02ce52cbd4+0x16a>
; /rustc/90b35a6239c3d8bdabc530a6a0816f7ff89a0aaf/library/core/src/fmt/mod.rs:1501
802048d8: 001cd593     	srli	a1, s9, 0x1
802048dc: 0c85         	addi	s9, s9, 0x1
802048de: 001cdc93     	srli	s9, s9, 0x1
802048e2: a019         	j	0x802048e8 <core::fmt::Formatter::pad_integral::hf8a5cc02ce52cbd4+0x16e>
802048e4: 85e6         	mv	a1, s9
802048e6: 4c81         	li	s9, 0x0
802048e8: 02053b83     	ld	s7, 0x20(a0)
802048ec: 02853d03     	ld	s10, 0x28(a0)
802048f0: 03052c03     	lw	s8, 0x30(a0)
; /rustc/90b35a6239c3d8bdabc530a6a0816f7ff89a0aaf/library/core/src/fmt/mod.rs:1504
802048f4: 00158493     	addi	s1, a1, 0x1
; /rustc/90b35a6239c3d8bdabc530a6a0816f7ff89a0aaf/library/core/src/cmp.rs:1720
802048f8: 14fd         	addi	s1, s1, -0x1
; /rustc/90b35a6239c3d8bdabc530a6a0816f7ff89a0aaf/library/core/src/iter/range.rs:752
802048fa: c49d         	beqz	s1, 0x80204928 <core::fmt::Formatter::pad_integral::hf8a5cc02ce52cbd4+0x1ae>
; /rustc/90b35a6239c3d8bdabc530a6a0816f7ff89a0aaf/library/core/src/fmt/mod.rs:1505
802048fc: 020d3603     	ld	a2, 0x20(s10)
80204900: 855e         	mv	a0, s7
80204902: 85e2         	mv	a1, s8
80204904: 9602         	jalr	a2
; /rustc/90b35a6239c3d8bdabc530a6a0816f7ff89a0aaf/library/core/src/result.rs:1997
80204906: d96d         	beqz	a0, 0x802048f8 <core::fmt::Formatter::pad_integral::hf8a5cc02ce52cbd4+0x17e>
80204908: 4505         	li	a0, 0x1
8020490a: 70a6         	ld	ra, 0x68(sp)
8020490c: 7406         	ld	s0, 0x60(sp)
8020490e: 64e6         	ld	s1, 0x58(sp)
80204910: 6946         	ld	s2, 0x50(sp)
80204912: 69a6         	ld	s3, 0x48(sp)
80204914: 6a06         	ld	s4, 0x40(sp)
80204916: 7ae2         	ld	s5, 0x38(sp)
80204918: 7b42         	ld	s6, 0x30(sp)
8020491a: 7ba2         	ld	s7, 0x28(sp)
8020491c: 7c02         	ld	s8, 0x20(sp)
8020491e: 6ce2         	ld	s9, 0x18(sp)
80204920: 6d42         	ld	s10, 0x10(sp)
80204922: 6da2         	ld	s11, 0x8(sp)
; /rustc/90b35a6239c3d8bdabc530a6a0816f7ff89a0aaf/library/core/src/fmt/mod.rs:1403
80204924: 6165         	addi	sp, sp, 0x70
80204926: 8082         	ret
; /rustc/90b35a6239c3d8bdabc530a6a0816f7ff89a0aaf/library/core/src/fmt/mod.rs:1398
80204928: 855e         	mv	a0, s7
8020492a: 85ea         	mv	a1, s10
8020492c: 8656         	mv	a2, s5
8020492e: 86da         	mv	a3, s6
80204930: 8752         	mv	a4, s4
80204932: 00000097     	auipc	ra, 0x0
80204936: 06c080e7     	jalr	0x6c(ra) <core::fmt::Formatter::pad_integral::write_prefix::hedb52ada1384a2d4>
8020493a: 85aa         	mv	a1, a0
8020493c: 4505         	li	a0, 0x1
8020493e: f5f1         	bnez	a1, 0x8020490a <core::fmt::Formatter::pad_integral::hf8a5cc02ce52cbd4+0x190>
; /rustc/90b35a6239c3d8bdabc530a6a0816f7ff89a0aaf/library/core/src/fmt/mod.rs:1399
80204940: 018d3683     	ld	a3, 0x18(s10)
80204944: 855e         	mv	a0, s7
80204946: 85ca         	mv	a1, s2
80204948: 864e         	mv	a2, s3
8020494a: 9682         	jalr	a3
8020494c: 85aa         	mv	a1, a0
8020494e: 4505         	li	a0, 0x1
80204950: fdcd         	bnez	a1, 0x8020490a <core::fmt::Formatter::pad_integral::hf8a5cc02ce52cbd4+0x190>
; /rustc/90b35a6239c3d8bdabc530a6a0816f7ff89a0aaf/library/core/src/fmt/mod.rs:1266
80204952: 41900933     	neg	s2, s9
80204956: 59fd         	li	s3, -0x1
80204958: 54fd         	li	s1, -0x1
; /rustc/90b35a6239c3d8bdabc530a6a0816f7ff89a0aaf/library/core/src/cmp.rs:1720
8020495a: 00990533     	add	a0, s2, s1
; /rustc/90b35a6239c3d8bdabc530a6a0816f7ff89a0aaf/library/core/src/iter/range.rs:752
8020495e: 03350d63     	beq	a0, s3, 0x80204998 <core::fmt::Formatter::pad_integral::hf8a5cc02ce52cbd4+0x21e>
; /rustc/90b35a6239c3d8bdabc530a6a0816f7ff89a0aaf/library/core/src/fmt/mod.rs:1267
80204962: 020d3603     	ld	a2, 0x20(s10)
80204966: 855e         	mv	a0, s7
80204968: 85e2         	mv	a1, s8
8020496a: 9602         	jalr	a2
; /rustc/90b35a6239c3d8bdabc530a6a0816f7ff89a0aaf/library/core/src/result.rs:1997
8020496c: 0485         	addi	s1, s1, 0x1
8020496e: d575         	beqz	a0, 0x8020495a <core::fmt::Formatter::pad_integral::hf8a5cc02ce52cbd4+0x1e0>
; /rustc/90b35a6239c3d8bdabc530a6a0816f7ff89a0aaf/library/core/src/cmp.rs:1720
80204970: 0194b533     	sltu	a0, s1, s9
; /rustc/90b35a6239c3d8bdabc530a6a0816f7ff89a0aaf/library/core/src/fmt/mod.rs:1401
80204974: bf59         	j	0x8020490a <core::fmt::Formatter::pad_integral::hf8a5cc02ce52cbd4+0x190>
; /rustc/90b35a6239c3d8bdabc530a6a0816f7ff89a0aaf/library/core/src/fmt/mod.rs:1389
80204976: 018d3683     	ld	a3, 0x18(s10)
8020497a: 855e         	mv	a0, s7
8020497c: 85ca         	mv	a1, s2
8020497e: 864e         	mv	a2, s3
80204980: 9682         	jalr	a3
80204982: 85aa         	mv	a1, a0
80204984: 4505         	li	a0, 0x1
80204986: f1d1         	bnez	a1, 0x8020490a <core::fmt::Formatter::pad_integral::hf8a5cc02ce52cbd4+0x190>
80204988: 4501         	li	a0, 0x0
; /rustc/90b35a6239c3d8bdabc530a6a0816f7ff89a0aaf/library/core/src/fmt/mod.rs:1391
8020498a: 034da823     	sw	s4, 0x30(s11)
8020498e: f9043583     	ld	a1, -0x70(s0)
; /rustc/90b35a6239c3d8bdabc530a6a0816f7ff89a0aaf/library/core/src/fmt/mod.rs:1392
80204992: 02bd8c23     	sb	a1, 0x38(s11)
80204996: bf95         	j	0x8020490a <core::fmt::Formatter::pad_integral::hf8a5cc02ce52cbd4+0x190>
; /rustc/90b35a6239c3d8bdabc530a6a0816f7ff89a0aaf/library/core/src/cmp.rs:1720
80204998: 019cb533     	sltu	a0, s9, s9
; /rustc/90b35a6239c3d8bdabc530a6a0816f7ff89a0aaf/library/core/src/fmt/mod.rs:1401
8020499c: b7bd         	j	0x8020490a <core::fmt::Formatter::pad_integral::hf8a5cc02ce52cbd4+0x190>

000000008020499e <core::fmt::Formatter::pad_integral::write_prefix::hedb52ada1384a2d4>:
; core::fmt::Formatter::pad_integral::write_prefix::hedb52ada1384a2d4():
; /rustc/90b35a6239c3d8bdabc530a6a0816f7ff89a0aaf/library/core/src/fmt/mod.rs:1361
8020499e: 7179         	addi	sp, sp, -0x30
802049a0: f406         	sd	ra, 0x28(sp)
802049a2: f022         	sd	s0, 0x20(sp)
802049a4: ec26         	sd	s1, 0x18(sp)
802049a6: e84a         	sd	s2, 0x10(sp)
802049a8: e44e         	sd	s3, 0x8(sp)
802049aa: e052         	sd	s4, 0x0(sp)
802049ac: 1800         	addi	s0, sp, 0x30
802049ae: 0006079b     	sext.w	a5, a2
802049b2: 001104b7     	lui	s1, 0x110
802049b6: 893a         	mv	s2, a4
802049b8: 8a36         	mv	s4, a3
802049ba: 89ae         	mv	s3, a1
; /rustc/90b35a6239c3d8bdabc530a6a0816f7ff89a0aaf/library/core/src/fmt/mod.rs:1362
802049bc: 00978b63     	beq	a5, s1, 0x802049d2 <core::fmt::Formatter::pad_integral::write_prefix::hedb52ada1384a2d4+0x34>
; /rustc/90b35a6239c3d8bdabc530a6a0816f7ff89a0aaf/library/core/src/fmt/mod.rs:1363
802049c0: 0209b683     	ld	a3, 0x20(s3)
802049c4: 84aa         	mv	s1, a0
802049c6: 85b2         	mv	a1, a2
802049c8: 9682         	jalr	a3
802049ca: 862a         	mv	a2, a0
802049cc: 8526         	mv	a0, s1
802049ce: 4585         	li	a1, 0x1
; /rustc/90b35a6239c3d8bdabc530a6a0816f7ff89a0aaf/library/core/src/result.rs:1997
802049d0: e205         	bnez	a2, 0x802049f0 <core::fmt::Formatter::pad_integral::write_prefix::hedb52ada1384a2d4+0x52>
; /rustc/90b35a6239c3d8bdabc530a6a0816f7ff89a0aaf/library/core/src/fmt/mod.rs:1365
802049d2: 000a0e63     	beqz	s4, 0x802049ee <core::fmt::Formatter::pad_integral::write_prefix::hedb52ada1384a2d4+0x50>
802049d6: 0189b783     	ld	a5, 0x18(s3)
802049da: 85d2         	mv	a1, s4
802049dc: 864a         	mv	a2, s2
802049de: 70a2         	ld	ra, 0x28(sp)
802049e0: 7402         	ld	s0, 0x20(sp)
802049e2: 64e2         	ld	s1, 0x18(sp)
802049e4: 6942         	ld	s2, 0x10(sp)
802049e6: 69a2         	ld	s3, 0x8(sp)
802049e8: 6a02         	ld	s4, 0x0(sp)
802049ea: 6145         	addi	sp, sp, 0x30
802049ec: 8782         	jr	a5
802049ee: 4581         	li	a1, 0x0
; /rustc/90b35a6239c3d8bdabc530a6a0816f7ff89a0aaf/library/core/src/fmt/mod.rs:1366
802049f0: 852e         	mv	a0, a1
802049f2: 70a2         	ld	ra, 0x28(sp)
802049f4: 7402         	ld	s0, 0x20(sp)
802049f6: 64e2         	ld	s1, 0x18(sp)
802049f8: 6942         	ld	s2, 0x10(sp)
802049fa: 69a2         	ld	s3, 0x8(sp)
802049fc: 6a02         	ld	s4, 0x0(sp)
802049fe: 6145         	addi	sp, sp, 0x30
80204a00: 8082         	ret

0000000080204a02 <core::fmt::Formatter::pad::hc57fcd9e0fbdd8e9>:
; core::fmt::Formatter::pad::hc57fcd9e0fbdd8e9():
; /rustc/90b35a6239c3d8bdabc530a6a0816f7ff89a0aaf/library/core/src/fmt/mod.rs:1435
80204a02: 715d         	addi	sp, sp, -0x50
80204a04: e486         	sd	ra, 0x48(sp)
80204a06: e0a2         	sd	s0, 0x40(sp)
80204a08: fc26         	sd	s1, 0x38(sp)
80204a0a: f84a         	sd	s2, 0x30(sp)
80204a0c: f44e         	sd	s3, 0x28(sp)
80204a0e: f052         	sd	s4, 0x20(sp)
80204a10: ec56         	sd	s5, 0x18(sp)
80204a12: e85a         	sd	s6, 0x10(sp)
80204a14: e45e         	sd	s7, 0x8(sp)
80204a16: 0880         	addi	s0, sp, 0x50
; /rustc/90b35a6239c3d8bdabc530a6a0816f7ff89a0aaf/library/core/src/option.rs:607
80204a18: 6114         	ld	a3, 0x0(a0)
80204a1a: 6918         	ld	a4, 0x10(a0)
80204a1c: 8932         	mv	s2, a2
80204a1e: 89ae         	mv	s3, a1
80204a20: 00177593     	andi	a1, a4, 0x1
; /rustc/90b35a6239c3d8bdabc530a6a0816f7ff89a0aaf/library/core/src/macros/mod.rs:475
80204a24: e291         	bnez	a3, 0x80204a28 <core::fmt::Formatter::pad::hc57fcd9e0fbdd8e9+0x26>
80204a26: cde5         	beqz	a1, 0x80204b1e <core::fmt::Formatter::pad::hc57fcd9e0fbdd8e9+0x11c>
; /rustc/90b35a6239c3d8bdabc530a6a0816f7ff89a0aaf/library/core/src/fmt/mod.rs:1442
80204a28: cdc1         	beqz	a1, 0x80204ac0 <core::fmt::Formatter::pad::hc57fcd9e0fbdd8e9+0xbe>
80204a2a: 6d18         	ld	a4, 0x18(a0)
; /rustc/90b35a6239c3d8bdabc530a6a0816f7ff89a0aaf/library/core/src/ptr/mut_ptr.rs:1005
80204a2c: 01298633     	add	a2, s3, s2
80204a30: 4581         	li	a1, 0x0
; /rustc/90b35a6239c3d8bdabc530a6a0816f7ff89a0aaf/library/core/src/iter/range.rs:752
80204a32: c721         	beqz	a4, 0x80204a7a <core::fmt::Formatter::pad::hc57fcd9e0fbdd8e9+0x78>
80204a34: 0e000893     	li	a7, 0xe0
80204a38: 0f000813     	li	a6, 0xf0
80204a3c: 84ce         	mv	s1, s3
80204a3e: a809         	j	0x80204a50 <core::fmt::Formatter::pad::hc57fcd9e0fbdd8e9+0x4e>
80204a40: 00148793     	addi	a5, s1, 0x1
; /rustc/90b35a6239c3d8bdabc530a6a0816f7ff89a0aaf/library/core/src/str/iter.rs:192
80204a44: 8c8d         	sub	s1, s1, a1
; /rustc/90b35a6239c3d8bdabc530a6a0816f7ff89a0aaf/library/core/src/cmp.rs:1720
80204a46: 177d         	addi	a4, a4, -0x1
; /rustc/90b35a6239c3d8bdabc530a6a0816f7ff89a0aaf/library/core/src/str/iter.rs:192
80204a48: 409785b3     	sub	a1, a5, s1
80204a4c: 84be         	mv	s1, a5
; /rustc/90b35a6239c3d8bdabc530a6a0816f7ff89a0aaf/library/core/src/iter/range.rs:752
80204a4e: c71d         	beqz	a4, 0x80204a7c <core::fmt::Formatter::pad::hc57fcd9e0fbdd8e9+0x7a>
; /rustc/90b35a6239c3d8bdabc530a6a0816f7ff89a0aaf/library/core/src/slice/iter/macros.rs:25
80204a50: 06c48863     	beq	s1, a2, 0x80204ac0 <core::fmt::Formatter::pad::hc57fcd9e0fbdd8e9+0xbe>
; /rustc/90b35a6239c3d8bdabc530a6a0816f7ff89a0aaf/library/core/src/str/validations.rs:37
80204a54: 00048783     	lb	a5, 0x0(s1)
; /rustc/90b35a6239c3d8bdabc530a6a0816f7ff89a0aaf/library/core/src/str/validations.rs:38
80204a58: fe07d4e3     	bgez	a5, 0x80204a40 <core::fmt::Formatter::pad::hc57fcd9e0fbdd8e9+0x3e>
80204a5c: 0ff7f793     	andi	a5, a5, 0xff
; /rustc/90b35a6239c3d8bdabc530a6a0816f7ff89a0aaf/library/core/src/str/validations.rs:50
80204a60: 0117e763     	bltu	a5, a7, 0x80204a6e <core::fmt::Formatter::pad::hc57fcd9e0fbdd8e9+0x6c>
; /rustc/90b35a6239c3d8bdabc530a6a0816f7ff89a0aaf/library/core/src/str/validations.rs:58
80204a64: 0107e863     	bltu	a5, a6, 0x80204a74 <core::fmt::Formatter::pad::hc57fcd9e0fbdd8e9+0x72>
; /rustc/90b35a6239c3d8bdabc530a6a0816f7ff89a0aaf/library/core/src/ptr/non_null.rs:555
80204a68: 00448793     	addi	a5, s1, 0x4
80204a6c: bfe1         	j	0x80204a44 <core::fmt::Formatter::pad::hc57fcd9e0fbdd8e9+0x42>
80204a6e: 00248793     	addi	a5, s1, 0x2
; /rustc/90b35a6239c3d8bdabc530a6a0816f7ff89a0aaf/library/core/src/str/validations.rs:50
80204a72: bfc9         	j	0x80204a44 <core::fmt::Formatter::pad::hc57fcd9e0fbdd8e9+0x42>
80204a74: 00348793     	addi	a5, s1, 0x3
; /rustc/90b35a6239c3d8bdabc530a6a0816f7ff89a0aaf/library/core/src/str/validations.rs:58
80204a78: b7f1         	j	0x80204a44 <core::fmt::Formatter::pad::hc57fcd9e0fbdd8e9+0x42>
80204a7a: 87ce         	mv	a5, s3
; /rustc/90b35a6239c3d8bdabc530a6a0816f7ff89a0aaf/library/core/src/slice/iter/macros.rs:25
80204a7c: 04c78263     	beq	a5, a2, 0x80204ac0 <core::fmt::Formatter::pad::hc57fcd9e0fbdd8e9+0xbe>
; /rustc/90b35a6239c3d8bdabc530a6a0816f7ff89a0aaf/library/core/src/str/validations.rs:37
80204a80: 00078603     	lb	a2, 0x0(a5)
; /rustc/90b35a6239c3d8bdabc530a6a0816f7ff89a0aaf/library/core/src/str/validations.rs:38
80204a84: 00064463     	bltz	a2, 0x80204a8c <core::fmt::Formatter::pad::hc57fcd9e0fbdd8e9+0x8a>
; /rustc/90b35a6239c3d8bdabc530a6a0816f7ff89a0aaf/library/core/src/str/mod.rs:194
80204a88: e599         	bnez	a1, 0x80204a96 <core::fmt::Formatter::pad::hc57fcd9e0fbdd8e9+0x94>
80204a8a: a035         	j	0x80204ab6 <core::fmt::Formatter::pad::hc57fcd9e0fbdd8e9+0xb4>
80204a8c: 0ff67613     	andi	a2, a2, 0xff
80204a90: 0e000713     	li	a4, 0xe0
; /rustc/90b35a6239c3d8bdabc530a6a0816f7ff89a0aaf/library/core/src/str/mod.rs:194
80204a94: c18d         	beqz	a1, 0x80204ab6 <core::fmt::Formatter::pad::hc57fcd9e0fbdd8e9+0xb4>
; /rustc/90b35a6239c3d8bdabc530a6a0816f7ff89a0aaf/library/core/src/slice/index.rs:255
80204a96: 0125fe63     	bgeu	a1, s2, 0x80204ab2 <core::fmt::Formatter::pad::hc57fcd9e0fbdd8e9+0xb0>
; /rustc/90b35a6239c3d8bdabc530a6a0816f7ff89a0aaf/library/core/src/slice/index.rs:117
80204a9a: 00b98633     	add	a2, s3, a1
; /rustc/90b35a6239c3d8bdabc530a6a0816f7ff89a0aaf/library/core/src/str/mod.rs:210
80204a9e: 00060603     	lb	a2, 0x0(a2)
80204aa2: fbf00713     	li	a4, -0x41
; /rustc/90b35a6239c3d8bdabc530a6a0816f7ff89a0aaf/library/core/src/str/traits.rs:434
80204aa6: 00c74863     	blt	a4, a2, 0x80204ab6 <core::fmt::Formatter::pad::hc57fcd9e0fbdd8e9+0xb4>
80204aaa: 4601         	li	a2, 0x0
; /rustc/90b35a6239c3d8bdabc530a6a0816f7ff89a0aaf/library/core/src/option.rs:993
80204aac: 00001863     	bnez	zero, 0x80204abc <core::fmt::Formatter::pad::hc57fcd9e0fbdd8e9+0xba>
80204ab0: a801         	j	0x80204ac0 <core::fmt::Formatter::pad::hc57fcd9e0fbdd8e9+0xbe>
; /rustc/90b35a6239c3d8bdabc530a6a0816f7ff89a0aaf/library/core/src/str/traits.rs:434
80204ab2: ff259ce3     	bne	a1, s2, 0x80204aaa <core::fmt::Formatter::pad::hc57fcd9e0fbdd8e9+0xa8>
80204ab6: 864e         	mv	a2, s3
; /rustc/90b35a6239c3d8bdabc530a6a0816f7ff89a0aaf/library/core/src/option.rs:993
80204ab8: 00098463     	beqz	s3, 0x80204ac0 <core::fmt::Formatter::pad::hc57fcd9e0fbdd8e9+0xbe>
80204abc: 892e         	mv	s2, a1
80204abe: 89b2         	mv	s3, a2
; /rustc/90b35a6239c3d8bdabc530a6a0816f7ff89a0aaf/library/core/src/fmt/mod.rs:1459
80204ac0: ceb9         	beqz	a3, 0x80204b1e <core::fmt::Formatter::pad::hc57fcd9e0fbdd8e9+0x11c>
; /rustc/90b35a6239c3d8bdabc530a6a0816f7ff89a0aaf/library/core/src/fmt/mod.rs:1463
80204ac2: 6504         	ld	s1, 0x8(a0)
80204ac4: 02000593     	li	a1, 0x20
; /rustc/90b35a6239c3d8bdabc530a6a0816f7ff89a0aaf/library/core/src/str/count.rs:28
80204ac8: 04b97063     	bgeu	s2, a1, 0x80204b08 <core::fmt::Formatter::pad::hc57fcd9e0fbdd8e9+0x106>
80204acc: 4581         	li	a1, 0x0
; /rustc/90b35a6239c3d8bdabc530a6a0816f7ff89a0aaf/library/core/src/slice/iter/macros.rs:25
80204ace: 00090f63     	beqz	s2, 0x80204aec <core::fmt::Formatter::pad::hc57fcd9e0fbdd8e9+0xea>
; /rustc/90b35a6239c3d8bdabc530a6a0816f7ff89a0aaf/library/core/src/slice/iter/macros.rs:237
80204ad2: 01298633     	add	a2, s3, s2
80204ad6: 86ce         	mv	a3, s3
; /rustc/90b35a6239c3d8bdabc530a6a0816f7ff89a0aaf/library/core/src/slice/iter/macros.rs:232
80204ad8: 00068703     	lb	a4, 0x0(a3)
; /rustc/90b35a6239c3d8bdabc530a6a0816f7ff89a0aaf/library/core/src/str/validations.rs:24
80204adc: fc072713     	slti	a4, a4, -0x40
80204ae0: 00174713     	xori	a4, a4, 0x1
; /rustc/90b35a6239c3d8bdabc530a6a0816f7ff89a0aaf/library/core/src/slice/iter/macros.rs:237
80204ae4: 0685         	addi	a3, a3, 0x1
; /rustc/90b35a6239c3d8bdabc530a6a0816f7ff89a0aaf/library/core/src/iter/traits/accum.rs:53
80204ae6: 95ba         	add	a1, a1, a4
; /rustc/90b35a6239c3d8bdabc530a6a0816f7ff89a0aaf/library/core/src/slice/iter/macros.rs:237
80204ae8: fec698e3     	bne	a3, a2, 0x80204ad8 <core::fmt::Formatter::pad::hc57fcd9e0fbdd8e9+0xd6>
; /rustc/90b35a6239c3d8bdabc530a6a0816f7ff89a0aaf/library/core/src/fmt/mod.rs:1467
80204aec: 0295f963     	bgeu	a1, s1, 0x80204b1e <core::fmt::Formatter::pad::hc57fcd9e0fbdd8e9+0x11c>
; /rustc/90b35a6239c3d8bdabc530a6a0816f7ff89a0aaf/library/core/src/fmt/mod.rs:1491
80204af0: 03854683     	lbu	a3, 0x38(a0)
80204af4: 4601         	li	a2, 0x0
80204af6: 4705         	li	a4, 0x1
; /rustc/90b35a6239c3d8bdabc530a6a0816f7ff89a0aaf/library/core/src/fmt/mod.rs:1474
80204af8: 40b48ab3     	sub	s5, s1, a1
; /rustc/90b35a6239c3d8bdabc530a6a0816f7ff89a0aaf/library/core/src/fmt/mod.rs:1491
80204afc: 04d74163     	blt	a4, a3, 0x80204b3e <core::fmt::Formatter::pad::hc57fcd9e0fbdd8e9+0x13c>
80204b00: c6b9         	beqz	a3, 0x80204b4e <core::fmt::Formatter::pad::hc57fcd9e0fbdd8e9+0x14c>
80204b02: 8656         	mv	a2, s5
80204b04: 4a81         	li	s5, 0x0
; /rustc/90b35a6239c3d8bdabc530a6a0816f7ff89a0aaf/library/core/src/fmt/mod.rs:1500
80204b06: a0a1         	j	0x80204b4e <core::fmt::Formatter::pad::hc57fcd9e0fbdd8e9+0x14c>
80204b08: 8a2a         	mv	s4, a0
; /rustc/90b35a6239c3d8bdabc530a6a0816f7ff89a0aaf/library/core/src/str/count.rs:35
80204b0a: 854e         	mv	a0, s3
80204b0c: 85ca         	mv	a1, s2
80204b0e: 00000097     	auipc	ra, 0x0
80204b12: 146080e7     	jalr	0x146(ra) <core::str::count::do_count_chars::hdb8f07b07354a3bb>
80204b16: 85aa         	mv	a1, a0
80204b18: 8552         	mv	a0, s4
; /rustc/90b35a6239c3d8bdabc530a6a0816f7ff89a0aaf/library/core/src/fmt/mod.rs:1467
80204b1a: fc95ebe3     	bltu	a1, s1, 0x80204af0 <core::fmt::Formatter::pad::hc57fcd9e0fbdd8e9+0xee>
80204b1e: 750c         	ld	a1, 0x28(a0)
80204b20: 7108         	ld	a0, 0x20(a0)
80204b22: 6d9c         	ld	a5, 0x18(a1)
80204b24: 85ce         	mv	a1, s3
80204b26: 864a         	mv	a2, s2
80204b28: 60a6         	ld	ra, 0x48(sp)
80204b2a: 6406         	ld	s0, 0x40(sp)
80204b2c: 74e2         	ld	s1, 0x38(sp)
80204b2e: 7942         	ld	s2, 0x30(sp)
80204b30: 79a2         	ld	s3, 0x28(sp)
80204b32: 7a02         	ld	s4, 0x20(sp)
80204b34: 6ae2         	ld	s5, 0x18(sp)
80204b36: 6b42         	ld	s6, 0x10(sp)
80204b38: 6ba2         	ld	s7, 0x8(sp)
80204b3a: 6161         	addi	sp, sp, 0x50
80204b3c: 8782         	jr	a5
80204b3e: 4589         	li	a1, 0x2
; /rustc/90b35a6239c3d8bdabc530a6a0816f7ff89a0aaf/library/core/src/fmt/mod.rs:1491
80204b40: 00b69763     	bne	a3, a1, 0x80204b4e <core::fmt::Formatter::pad::hc57fcd9e0fbdd8e9+0x14c>
; /rustc/90b35a6239c3d8bdabc530a6a0816f7ff89a0aaf/library/core/src/fmt/mod.rs:1501
80204b44: 001ad613     	srli	a2, s5, 0x1
80204b48: 0a85         	addi	s5, s5, 0x1
80204b4a: 001ada93     	srli	s5, s5, 0x1
80204b4e: 02053a03     	ld	s4, 0x20(a0)
80204b52: 02853b83     	ld	s7, 0x28(a0)
80204b56: 03052b03     	lw	s6, 0x30(a0)
; /rustc/90b35a6239c3d8bdabc530a6a0816f7ff89a0aaf/library/core/src/fmt/mod.rs:1504
80204b5a: 00160493     	addi	s1, a2, 0x1
; /rustc/90b35a6239c3d8bdabc530a6a0816f7ff89a0aaf/library/core/src/cmp.rs:1720
80204b5e: 14fd         	addi	s1, s1, -0x1
; /rustc/90b35a6239c3d8bdabc530a6a0816f7ff89a0aaf/library/core/src/iter/range.rs:752
80204b60: c889         	beqz	s1, 0x80204b72 <core::fmt::Formatter::pad::hc57fcd9e0fbdd8e9+0x170>
; /rustc/90b35a6239c3d8bdabc530a6a0816f7ff89a0aaf/library/core/src/fmt/mod.rs:1505
80204b62: 020bb603     	ld	a2, 0x20(s7)
80204b66: 8552         	mv	a0, s4
80204b68: 85da         	mv	a1, s6
80204b6a: 9602         	jalr	a2
; /rustc/90b35a6239c3d8bdabc530a6a0816f7ff89a0aaf/library/core/src/result.rs:1997
80204b6c: d96d         	beqz	a0, 0x80204b5e <core::fmt::Formatter::pad::hc57fcd9e0fbdd8e9+0x15c>
80204b6e: 4505         	li	a0, 0x1
; /rustc/90b35a6239c3d8bdabc530a6a0816f7ff89a0aaf/library/core/src/result.rs:1997
80204b70: a82d         	j	0x80204baa <core::fmt::Formatter::pad::hc57fcd9e0fbdd8e9+0x1a8>
; /rustc/90b35a6239c3d8bdabc530a6a0816f7ff89a0aaf/library/core/src/fmt/mod.rs:1475
80204b72: 018bb683     	ld	a3, 0x18(s7)
80204b76: 8552         	mv	a0, s4
80204b78: 85ce         	mv	a1, s3
80204b7a: 864a         	mv	a2, s2
80204b7c: 9682         	jalr	a3
80204b7e: 85aa         	mv	a1, a0
80204b80: 4505         	li	a0, 0x1
; /rustc/90b35a6239c3d8bdabc530a6a0816f7ff89a0aaf/library/core/src/result.rs:1997
80204b82: e585         	bnez	a1, 0x80204baa <core::fmt::Formatter::pad::hc57fcd9e0fbdd8e9+0x1a8>
; /rustc/90b35a6239c3d8bdabc530a6a0816f7ff89a0aaf/library/core/src/fmt/mod.rs:1266
80204b84: 41500933     	neg	s2, s5
80204b88: 59fd         	li	s3, -0x1
80204b8a: 54fd         	li	s1, -0x1
; /rustc/90b35a6239c3d8bdabc530a6a0816f7ff89a0aaf/library/core/src/cmp.rs:1720
80204b8c: 00990533     	add	a0, s2, s1
; /rustc/90b35a6239c3d8bdabc530a6a0816f7ff89a0aaf/library/core/src/iter/range.rs:752
80204b90: 01350a63     	beq	a0, s3, 0x80204ba4 <core::fmt::Formatter::pad::hc57fcd9e0fbdd8e9+0x1a2>
; /rustc/90b35a6239c3d8bdabc530a6a0816f7ff89a0aaf/library/core/src/fmt/mod.rs:1267
80204b94: 020bb603     	ld	a2, 0x20(s7)
80204b98: 8552         	mv	a0, s4
80204b9a: 85da         	mv	a1, s6
80204b9c: 9602         	jalr	a2
; /rustc/90b35a6239c3d8bdabc530a6a0816f7ff89a0aaf/library/core/src/result.rs:1997
80204b9e: 0485         	addi	s1, s1, 0x1
80204ba0: d575         	beqz	a0, 0x80204b8c <core::fmt::Formatter::pad::hc57fcd9e0fbdd8e9+0x18a>
80204ba2: a011         	j	0x80204ba6 <core::fmt::Formatter::pad::hc57fcd9e0fbdd8e9+0x1a4>
80204ba4: 84d6         	mv	s1, s5
; /rustc/90b35a6239c3d8bdabc530a6a0816f7ff89a0aaf/library/core/src/cmp.rs:1720
80204ba6: 0154b533     	sltu	a0, s1, s5
80204baa: 60a6         	ld	ra, 0x48(sp)
80204bac: 6406         	ld	s0, 0x40(sp)
80204bae: 74e2         	ld	s1, 0x38(sp)
80204bb0: 7942         	ld	s2, 0x30(sp)
80204bb2: 79a2         	ld	s3, 0x28(sp)
80204bb4: 7a02         	ld	s4, 0x20(sp)
80204bb6: 6ae2         	ld	s5, 0x18(sp)
80204bb8: 6b42         	ld	s6, 0x10(sp)
80204bba: 6ba2         	ld	s7, 0x8(sp)
; /rustc/90b35a6239c3d8bdabc530a6a0816f7ff89a0aaf/library/core/src/fmt/mod.rs:1480
80204bbc: 6161         	addi	sp, sp, 0x50
80204bbe: 8082         	ret

0000000080204bc0 <_$LT$core..fmt..Formatter$u20$as$u20$core..fmt..Write$GT$::write_str::ha1e2fed410c95c0e>:
; _$LT$core..fmt..Formatter$u20$as$u20$core..fmt..Write$GT$::write_str::ha1e2fed410c95c0e():
; /rustc/90b35a6239c3d8bdabc530a6a0816f7ff89a0aaf/library/core/src/fmt/mod.rs:1633
80204bc0: 1141         	addi	sp, sp, -0x10
80204bc2: e406         	sd	ra, 0x8(sp)
80204bc4: e022         	sd	s0, 0x0(sp)
80204bc6: 0800         	addi	s0, sp, 0x10
; /rustc/90b35a6239c3d8bdabc530a6a0816f7ff89a0aaf/library/core/src/fmt/mod.rs:1634
80204bc8: 7514         	ld	a3, 0x28(a0)
80204bca: 7108         	ld	a0, 0x20(a0)
80204bcc: 6e9c         	ld	a5, 0x18(a3)
80204bce: 60a2         	ld	ra, 0x8(sp)
80204bd0: 6402         	ld	s0, 0x0(sp)
80204bd2: 0141         	addi	sp, sp, 0x10
80204bd4: 8782         	jr	a5

0000000080204bd6 <_$LT$str$u20$as$u20$core..fmt..Display$GT$::fmt::habe95f77ff1b76f2>:
; _$LT$str$u20$as$u20$core..fmt..Display$GT$::fmt::habe95f77ff1b76f2():
; /rustc/90b35a6239c3d8bdabc530a6a0816f7ff89a0aaf/library/core/src/fmt/mod.rs:2484
80204bd6: 1141         	addi	sp, sp, -0x10
80204bd8: e406         	sd	ra, 0x8(sp)
80204bda: e022         	sd	s0, 0x0(sp)
80204bdc: 0800         	addi	s0, sp, 0x10
80204bde: 86ae         	mv	a3, a1
80204be0: 85aa         	mv	a1, a0
; /rustc/90b35a6239c3d8bdabc530a6a0816f7ff89a0aaf/library/core/src/fmt/mod.rs:2485
80204be2: 8532         	mv	a0, a2
80204be4: 8636         	mv	a2, a3
80204be6: 60a2         	ld	ra, 0x8(sp)
80204be8: 6402         	ld	s0, 0x0(sp)
80204bea: 0141         	addi	sp, sp, 0x10
80204bec: 00000317     	auipc	t1, 0x0
80204bf0: e1630067     	jr	-0x1ea(t1) <core::fmt::Formatter::pad::hc57fcd9e0fbdd8e9>

0000000080204bf4 <core::slice::index::slice_start_index_len_fail::hb78324399fa16f4e>:
; core::slice::index::slice_start_index_len_fail::hb78324399fa16f4e():
; /rustc/90b35a6239c3d8bdabc530a6a0816f7ff89a0aaf/library/core/src/slice/index.rs:34
80204bf4: 7159         	addi	sp, sp, -0x70
80204bf6: f486         	sd	ra, 0x68(sp)
80204bf8: f0a2         	sd	s0, 0x60(sp)
80204bfa: 1880         	addi	s0, sp, 0x70
; /rustc/90b35a6239c3d8bdabc530a6a0816f7ff89a0aaf/library/core/src/slice/index.rs:37
80204bfc: f8a43823     	sd	a0, -0x70(s0)
80204c00: f8b43c23     	sd	a1, -0x68(s0)
80204c04: f9040513     	addi	a0, s0, -0x70
; /rustc/90b35a6239c3d8bdabc530a6a0816f7ff89a0aaf/library/core/src/slice/index.rs:43
80204c08: fca43823     	sd	a0, -0x30(s0)

0000000080204c0c <.Lpcrel_hi596>:
; .Lpcrel_hi596():
; /rustc/90b35a6239c3d8bdabc530a6a0816f7ff89a0aaf/library/core/src/slice/index.rs:43
80204c0c: 00000517     	auipc	a0, 0x0
80204c10: 7f650513     	addi	a0, a0, 0x7f6
80204c14: fca43c23     	sd	a0, -0x28(s0)
80204c18: f9840593     	addi	a1, s0, -0x68
80204c1c: feb43023     	sd	a1, -0x20(s0)
80204c20: fea43423     	sd	a0, -0x18(s0)

0000000080204c24 <.Lpcrel_hi597>:
; .Lpcrel_hi597():
; /rustc/90b35a6239c3d8bdabc530a6a0816f7ff89a0aaf/library/core/src/fmt/mod.rs:350
80204c24: 00a03517     	auipc	a0, 0xa03
80204c28: 09450513     	addi	a0, a0, 0x94
80204c2c: faa43023     	sd	a0, -0x60(s0)
80204c30: 4509         	li	a0, 0x2
80204c32: faa43423     	sd	a0, -0x58(s0)
80204c36: fc043023     	sd	zero, -0x40(s0)
80204c3a: fd040593     	addi	a1, s0, -0x30
80204c3e: fab43823     	sd	a1, -0x50(s0)
80204c42: faa43c23     	sd	a0, -0x48(s0)
; /rustc/90b35a6239c3d8bdabc530a6a0816f7ff89a0aaf/library/core/src/slice/index.rs:43
80204c46: fa040513     	addi	a0, s0, -0x60
80204c4a: 85b2         	mv	a1, a2
80204c4c: fffff097     	auipc	ra, 0xfffff
80204c50: 6aa080e7     	jalr	0x6aa(ra) <free_mem_start+0xff5fb2f6>

0000000080204c54 <core::str::count::do_count_chars::hdb8f07b07354a3bb>:
; core::str::count::do_count_chars::hdb8f07b07354a3bb():
; /rustc/90b35a6239c3d8bdabc530a6a0816f7ff89a0aaf/library/core/src/str/count.rs:39
80204c54: 1141         	addi	sp, sp, -0x10
80204c56: e406         	sd	ra, 0x8(sp)
80204c58: e022         	sd	s0, 0x0(sp)
80204c5a: 0800         	addi	s0, sp, 0x10
80204c5c: 862a         	mv	a2, a0
; /rustc/90b35a6239c3d8bdabc530a6a0816f7ff89a0aaf/library/core/src/ptr/mod.rs:2012
80204c5e: 00750793     	addi	a5, a0, 0x7
80204c62: 9be1         	andi	a5, a5, -0x8
; /rustc/90b35a6239c3d8bdabc530a6a0816f7ff89a0aaf/library/core/src/ptr/mod.rs:2013
80204c64: 40a786b3     	sub	a3, a5, a0
; /rustc/90b35a6239c3d8bdabc530a6a0816f7ff89a0aaf/library/core/src/slice/mod.rs:3885
80204c68: 12d5e163     	bltu	a1, a3, 0x80204d8a <core::str::count::do_count_chars::hdb8f07b07354a3bb+0x136>
; /rustc/90b35a6239c3d8bdabc530a6a0816f7ff89a0aaf/library/core/src/slice/mod.rs:1978
80204c6c: 40d58733     	sub	a4, a1, a3
; /rustc/90b35a6239c3d8bdabc530a6a0816f7ff89a0aaf/library/core/src/slice/mod.rs:3837
80204c70: 00375313     	srli	t1, a4, 0x3
; /rustc/90b35a6239c3d8bdabc530a6a0816f7ff89a0aaf/library/core/src/str/count.rs:68
80204c74: 10030b63     	beqz	t1, 0x80204d8a <core::str::count::do_count_chars::hdb8f07b07354a3bb+0x136>
80204c78: 96b2         	add	a3, a3, a2
80204c7a: 00777813     	andi	a6, a4, 0x7
80204c7e: 4501         	li	a0, 0x0
; /rustc/90b35a6239c3d8bdabc530a6a0816f7ff89a0aaf/library/core/src/slice/iter/macros.rs:25
80204c80: 00c78c63     	beq	a5, a2, 0x80204c98 <core::str::count::do_count_chars::hdb8f07b07354a3bb+0x44>
; /rustc/90b35a6239c3d8bdabc530a6a0816f7ff89a0aaf/library/core/src/slice/iter/macros.rs:232
80204c84: 00060583     	lb	a1, 0x0(a2)
; /rustc/90b35a6239c3d8bdabc530a6a0816f7ff89a0aaf/library/core/src/str/validations.rs:24
80204c88: fc05a593     	slti	a1, a1, -0x40
80204c8c: 0015c593     	xori	a1, a1, 0x1
; /rustc/90b35a6239c3d8bdabc530a6a0816f7ff89a0aaf/library/core/src/slice/iter/macros.rs:237
80204c90: 0605         	addi	a2, a2, 0x1
; /rustc/90b35a6239c3d8bdabc530a6a0816f7ff89a0aaf/library/core/src/iter/traits/accum.rs:53
80204c92: 952e         	add	a0, a0, a1
; /rustc/90b35a6239c3d8bdabc530a6a0816f7ff89a0aaf/library/core/src/slice/iter/macros.rs:237
80204c94: fed618e3     	bne	a2, a3, 0x80204c84 <core::str::count::do_count_chars::hdb8f07b07354a3bb+0x30>
80204c98: 4601         	li	a2, 0x0
; /rustc/90b35a6239c3d8bdabc530a6a0816f7ff89a0aaf/library/core/src/slice/iter/macros.rs:25
80204c9a: 02080263     	beqz	a6, 0x80204cbe <core::str::count::do_count_chars::hdb8f07b07354a3bb+0x6a>
80204c9e: ff877593     	andi	a1, a4, -0x8
80204ca2: 00b68733     	add	a4, a3, a1
; /rustc/90b35a6239c3d8bdabc530a6a0816f7ff89a0aaf/library/core/src/slice/iter/macros.rs:237
80204ca6: 95be         	add	a1, a1, a5
80204ca8: 95c2         	add	a1, a1, a6
; /rustc/90b35a6239c3d8bdabc530a6a0816f7ff89a0aaf/library/core/src/slice/iter/macros.rs:232
80204caa: 00070783     	lb	a5, 0x0(a4)
; /rustc/90b35a6239c3d8bdabc530a6a0816f7ff89a0aaf/library/core/src/str/validations.rs:24
80204cae: fc07a793     	slti	a5, a5, -0x40
80204cb2: 0017c793     	xori	a5, a5, 0x1
; /rustc/90b35a6239c3d8bdabc530a6a0816f7ff89a0aaf/library/core/src/slice/iter/macros.rs:237
80204cb6: 0705         	addi	a4, a4, 0x1
; /rustc/90b35a6239c3d8bdabc530a6a0816f7ff89a0aaf/library/core/src/iter/traits/accum.rs:53
80204cb8: 963e         	add	a2, a2, a5
; /rustc/90b35a6239c3d8bdabc530a6a0816f7ff89a0aaf/library/core/src/slice/iter/macros.rs:237
80204cba: feb718e3     	bne	a4, a1, 0x80204caa <core::str::count::do_count_chars::hdb8f07b07354a3bb+0x56>
80204cbe: 010105b7     	lui	a1, 0x1010
80204cc2: 1015859b     	addiw	a1, a1, 0x101
80204cc6: 02059713     	slli	a4, a1, 0x20
80204cca: 00e58fb3     	add	t6, a1, a4
80204cce: 00ff0737     	lui	a4, 0xff0
80204cd2: 0ff7089b     	addiw	a7, a4, 0xff
80204cd6: 02089713     	slli	a4, a7, 0x20
80204cda: 98ba         	add	a7, a7, a4
80204cdc: 6741         	lui	a4, 0x10
80204cde: 2705         	addiw	a4, a4, 0x1
80204ce0: 02071813     	slli	a6, a4, 0x20
80204ce4: 983a         	add	a6, a6, a4
; /rustc/90b35a6239c3d8bdabc530a6a0816f7ff89a0aaf/library/core/src/str/count.rs:72
80204ce6: 9532         	add	a0, a0, a2
80204ce8: 4291         	li	t0, 0x4
80204cea: a015         	j	0x80204d0e <core::str::count::do_count_chars::hdb8f07b07354a3bb+0xba>
80204cec: 006e06b3     	add	a3, t3, t1
80204cf0: 407e8333     	sub	t1, t4, t2
80204cf4: 0033f593     	andi	a1, t2, 0x3
; /rustc/90b35a6239c3d8bdabc530a6a0816f7ff89a0aaf/library/core/src/str/count.rs:127
80204cf8: 0117f633     	and	a2, a5, a7
80204cfc: 83a1         	srli	a5, a5, 0x8
80204cfe: 0117f733     	and	a4, a5, a7
80204d02: 963a         	add	a2, a2, a4
; /rustc/90b35a6239c3d8bdabc530a6a0816f7ff89a0aaf/library/core/src/num/uint_macros.rs:1965
80204d04: 03060633     	mul	a2, a2, a6
; /rustc/90b35a6239c3d8bdabc530a6a0816f7ff89a0aaf/library/core/src/str/count.rs:128
80204d08: 9241         	srli	a2, a2, 0x30
; /rustc/90b35a6239c3d8bdabc530a6a0816f7ff89a0aaf/library/core/src/str/count.rs:91
80204d0a: 9532         	add	a0, a0, a2
80204d0c: e1c5         	bnez	a1, 0x80204dac <core::str::count::do_count_chars::hdb8f07b07354a3bb+0x158>
80204d0e: 08030b63     	beqz	t1, 0x80204da4 <core::str::count::do_count_chars::hdb8f07b07354a3bb+0x150>
80204d12: 8e9a         	mv	t4, t1
80204d14: 8e36         	mv	t3, a3
80204d16: 0c000613     	li	a2, 0xc0
80204d1a: 839a         	mv	t2, t1
80204d1c: 00c36463     	bltu	t1, a2, 0x80204d24 <core::str::count::do_count_chars::hdb8f07b07354a3bb+0xd0>
80204d20: 0c000393     	li	t2, 0xc0
; /rustc/90b35a6239c3d8bdabc530a6a0816f7ff89a0aaf/library/core/src/ptr/const_ptr.rs:921
80204d24: 00339313     	slli	t1, t2, 0x3
80204d28: 4781         	li	a5, 0x0
80204d2a: fc5ee1e3     	bltu	t4, t0, 0x80204cec <core::str::count::do_count_chars::hdb8f07b07354a3bb+0x98>
80204d2e: 7e037613     	andi	a2, t1, 0x7e0
80204d32: 00ce0f33     	add	t5, t3, a2
80204d36: 86f2         	mv	a3, t3
; /rustc/90b35a6239c3d8bdabc530a6a0816f7ff89a0aaf/library/core/src/str/count.rs:82
80204d38: 6298         	ld	a4, 0x0(a3)
; /rustc/90b35a6239c3d8bdabc530a6a0816f7ff89a0aaf/library/core/src/str/count.rs:117
80204d3a: fff74613     	not	a2, a4
80204d3e: 821d         	srli	a2, a2, 0x7
80204d40: 8319         	srli	a4, a4, 0x6
; /rustc/90b35a6239c3d8bdabc530a6a0816f7ff89a0aaf/library/core/src/str/count.rs:82
80204d42: 668c         	ld	a1, 0x8(a3)
; /rustc/90b35a6239c3d8bdabc530a6a0816f7ff89a0aaf/library/core/src/str/count.rs:117
80204d44: 8e59         	or	a2, a2, a4
80204d46: 01f67633     	and	a2, a2, t6
; /rustc/90b35a6239c3d8bdabc530a6a0816f7ff89a0aaf/library/core/src/str/count.rs:85
80204d4a: 963e         	add	a2, a2, a5
; /rustc/90b35a6239c3d8bdabc530a6a0816f7ff89a0aaf/library/core/src/str/count.rs:117
80204d4c: fff5c713     	not	a4, a1
80204d50: 831d         	srli	a4, a4, 0x7
; /rustc/90b35a6239c3d8bdabc530a6a0816f7ff89a0aaf/library/core/src/str/count.rs:82
80204d52: 6a9c         	ld	a5, 0x10(a3)
; /rustc/90b35a6239c3d8bdabc530a6a0816f7ff89a0aaf/library/core/src/str/count.rs:117
80204d54: 8199         	srli	a1, a1, 0x6
80204d56: 8dd9         	or	a1, a1, a4
80204d58: 01f5f5b3     	and	a1, a1, t6
80204d5c: fff7c713     	not	a4, a5
80204d60: 831d         	srli	a4, a4, 0x7
80204d62: 8399         	srli	a5, a5, 0x6
80204d64: 8f5d         	or	a4, a4, a5
; /rustc/90b35a6239c3d8bdabc530a6a0816f7ff89a0aaf/library/core/src/str/count.rs:82
80204d66: 6e9c         	ld	a5, 0x18(a3)
; /rustc/90b35a6239c3d8bdabc530a6a0816f7ff89a0aaf/library/core/src/str/count.rs:117
80204d68: 01f77733     	and	a4, a4, t6
; /rustc/90b35a6239c3d8bdabc530a6a0816f7ff89a0aaf/library/core/src/str/count.rs:85
80204d6c: 95ba         	add	a1, a1, a4
80204d6e: 95b2         	add	a1, a1, a2
; /rustc/90b35a6239c3d8bdabc530a6a0816f7ff89a0aaf/library/core/src/str/count.rs:117
80204d70: fff7c613     	not	a2, a5
80204d74: 821d         	srli	a2, a2, 0x7
80204d76: 8399         	srli	a5, a5, 0x6
80204d78: 8e5d         	or	a2, a2, a5
80204d7a: 01f677b3     	and	a5, a2, t6
; /rustc/90b35a6239c3d8bdabc530a6a0816f7ff89a0aaf/library/core/src/ptr/non_null.rs:555
80204d7e: 02068693     	addi	a3, a3, 0x20
; /rustc/90b35a6239c3d8bdabc530a6a0816f7ff89a0aaf/library/core/src/str/count.rs:85
80204d82: 97ae         	add	a5, a5, a1
80204d84: fbe69ae3     	bne	a3, t5, 0x80204d38 <core::str::count::do_count_chars::hdb8f07b07354a3bb+0xe4>
80204d88: b795         	j	0x80204cec <core::str::count::do_count_chars::hdb8f07b07354a3bb+0x98>
80204d8a: 4501         	li	a0, 0x0
; /rustc/90b35a6239c3d8bdabc530a6a0816f7ff89a0aaf/library/core/src/slice/iter/macros.rs:25
80204d8c: cd81         	beqz	a1, 0x80204da4 <core::str::count::do_count_chars::hdb8f07b07354a3bb+0x150>
; /rustc/90b35a6239c3d8bdabc530a6a0816f7ff89a0aaf/library/core/src/slice/iter/macros.rs:237
80204d8e: 95b2         	add	a1, a1, a2
; /rustc/90b35a6239c3d8bdabc530a6a0816f7ff89a0aaf/library/core/src/slice/iter/macros.rs:232
80204d90: 00060683     	lb	a3, 0x0(a2)
; /rustc/90b35a6239c3d8bdabc530a6a0816f7ff89a0aaf/library/core/src/str/validations.rs:24
80204d94: fc06a693     	slti	a3, a3, -0x40
80204d98: 0016c693     	xori	a3, a3, 0x1
; /rustc/90b35a6239c3d8bdabc530a6a0816f7ff89a0aaf/library/core/src/slice/iter/macros.rs:237
80204d9c: 0605         	addi	a2, a2, 0x1
; /rustc/90b35a6239c3d8bdabc530a6a0816f7ff89a0aaf/library/core/src/iter/traits/accum.rs:53
80204d9e: 9536         	add	a0, a0, a3
; /rustc/90b35a6239c3d8bdabc530a6a0816f7ff89a0aaf/library/core/src/slice/iter/macros.rs:237
80204da0: feb618e3     	bne	a2, a1, 0x80204d90 <core::str::count::do_count_chars::hdb8f07b07354a3bb+0x13c>
80204da4: 60a2         	ld	ra, 0x8(sp)
80204da6: 6402         	ld	s0, 0x0(sp)
; /rustc/90b35a6239c3d8bdabc530a6a0816f7ff89a0aaf/library/core/src/str/count.rs:108
80204da8: 0141         	addi	sp, sp, 0x10
80204daa: 8082         	ret
80204dac: 4601         	li	a2, 0x0
80204dae: 0fc3f593     	andi	a1, t2, 0xfc
80204db2: 058e         	slli	a1, a1, 0x3
80204db4: 9e2e         	add	t3, t3, a1
; /rustc/90b35a6239c3d8bdabc530a6a0816f7ff89a0aaf/library/core/src/slice/iter/macros.rs:25
80204db6: 0c0eb593     	sltiu	a1, t4, 0xc0
80204dba: 40b005bb     	negw	a1, a1
80204dbe: 00bef5b3     	and	a1, t4, a1
80204dc2: 898d         	andi	a1, a1, 0x3
80204dc4: 00359693     	slli	a3, a1, 0x3
; /rustc/90b35a6239c3d8bdabc530a6a0816f7ff89a0aaf/library/core/src/str/count.rs:100
80204dc8: 000e3583     	ld	a1, 0x0(t3)
; /rustc/90b35a6239c3d8bdabc530a6a0816f7ff89a0aaf/library/core/src/ptr/non_null.rs:555
80204dcc: 0e21         	addi	t3, t3, 0x8
; /rustc/90b35a6239c3d8bdabc530a6a0816f7ff89a0aaf/library/core/src/str/count.rs:117
80204dce: fff5c713     	not	a4, a1
80204dd2: 831d         	srli	a4, a4, 0x7
80204dd4: 8199         	srli	a1, a1, 0x6
80204dd6: 8dd9         	or	a1, a1, a4
80204dd8: 01f5f5b3     	and	a1, a1, t6
; /rustc/90b35a6239c3d8bdabc530a6a0816f7ff89a0aaf/library/core/src/ptr/non_null.rs:1709
80204ddc: 16e1         	addi	a3, a3, -0x8
; /rustc/90b35a6239c3d8bdabc530a6a0816f7ff89a0aaf/library/core/src/str/count.rs:101
80204dde: 962e         	add	a2, a2, a1
80204de0: f6e5         	bnez	a3, 0x80204dc8 <core::str::count::do_count_chars::hdb8f07b07354a3bb+0x174>
; /rustc/90b35a6239c3d8bdabc530a6a0816f7ff89a0aaf/library/core/src/str/count.rs:127
80204de2: 011675b3     	and	a1, a2, a7
80204de6: 8221         	srli	a2, a2, 0x8
80204de8: 01167633     	and	a2, a2, a7
80204dec: 95b2         	add	a1, a1, a2
; /rustc/90b35a6239c3d8bdabc530a6a0816f7ff89a0aaf/library/core/src/num/uint_macros.rs:1965
80204dee: 030585b3     	mul	a1, a1, a6
; /rustc/90b35a6239c3d8bdabc530a6a0816f7ff89a0aaf/library/core/src/str/count.rs:128
80204df2: 91c1         	srli	a1, a1, 0x30
; /rustc/90b35a6239c3d8bdabc530a6a0816f7ff89a0aaf/library/core/src/str/count.rs:103
80204df4: 952e         	add	a0, a0, a1
80204df6: 60a2         	ld	ra, 0x8(sp)
80204df8: 6402         	ld	s0, 0x0(sp)
; /rustc/90b35a6239c3d8bdabc530a6a0816f7ff89a0aaf/library/core/src/str/count.rs:108
80204dfa: 0141         	addi	sp, sp, 0x10
80204dfc: 8082         	ret

0000000080204dfe <core::alloc::layout::Layout::is_size_align_valid::ha623b42ba94cf257>:
; core::alloc::layout::Layout::is_size_align_valid::ha623b42ba94cf257():
; /rustc/90b35a6239c3d8bdabc530a6a0816f7ff89a0aaf/library/core/src/alloc/layout.rs:79
80204dfe: 1141         	addi	sp, sp, -0x10
80204e00: e406         	sd	ra, 0x8(sp)
80204e02: e022         	sd	s0, 0x0(sp)
80204e04: 0800         	addi	s0, sp, 0x10
; /rustc/90b35a6239c3d8bdabc530a6a0816f7ff89a0aaf/library/core/src/ptr/alignment.rs:59
80204e06: fff58613     	addi	a2, a1, -0x1
80204e0a: 00c5c6b3     	xor	a3, a1, a2
80204e0e: 00d67d63     	bgeu	a2, a3, 0x80204e28 <core::alloc::layout::Layout::is_size_align_valid::ha623b42ba94cf257+0x2a>
80204e12: 567d         	li	a2, -0x1
80204e14: 167e         	slli	a2, a2, 0x3f
; /rustc/90b35a6239c3d8bdabc530a6a0816f7ff89a0aaf/library/core/src/alloc/layout.rs:106
80204e16: 8e0d         	sub	a2, a2, a1
; /rustc/90b35a6239c3d8bdabc530a6a0816f7ff89a0aaf/library/core/src/alloc/layout.rs:81
80204e18: 00a63533     	sltu	a0, a2, a0
80204e1c: 00154513     	xori	a0, a0, 0x1
80204e20: 60a2         	ld	ra, 0x8(sp)
80204e22: 6402         	ld	s0, 0x0(sp)
; /rustc/90b35a6239c3d8bdabc530a6a0816f7ff89a0aaf/library/core/src/alloc/layout.rs:85
80204e24: 0141         	addi	sp, sp, 0x10
80204e26: 8082         	ret
80204e28: 4501         	li	a0, 0x0
80204e2a: 60a2         	ld	ra, 0x8(sp)
80204e2c: 6402         	ld	s0, 0x0(sp)
; /rustc/90b35a6239c3d8bdabc530a6a0816f7ff89a0aaf/library/core/src/alloc/layout.rs:85
80204e2e: 0141         	addi	sp, sp, 0x10
80204e30: 8082         	ret

0000000080204e32 <core::panicking::panic_const::panic_const_add_overflow::h1eeea1441bfc0f05>:
; core::panicking::panic_const::panic_const_add_overflow::h1eeea1441bfc0f05():
; /rustc/90b35a6239c3d8bdabc530a6a0816f7ff89a0aaf/library/core/src/panicking.rs:174
80204e32: 7139         	addi	sp, sp, -0x40
80204e34: fc06         	sd	ra, 0x38(sp)
80204e36: f822         	sd	s0, 0x30(sp)
80204e38: 0080         	addi	s0, sp, 0x40
80204e3a: 85aa         	mv	a1, a0

0000000080204e3c <.Lpcrel_hi838>:
; .Lpcrel_hi838():
; /rustc/90b35a6239c3d8bdabc530a6a0816f7ff89a0aaf/library/core/src/fmt/mod.rs:339
80204e3c: 00a03517     	auipc	a0, 0xa03
80204e40: a9450513     	addi	a0, a0, -0x56c
80204e44: fca43023     	sd	a0, -0x40(s0)
80204e48: 4505         	li	a0, 0x1
80204e4a: fca43423     	sd	a0, -0x38(s0)
80204e4e: fe043023     	sd	zero, -0x20(s0)
80204e52: 4521         	li	a0, 0x8
80204e54: fca43823     	sd	a0, -0x30(s0)
80204e58: fc043c23     	sd	zero, -0x28(s0)
; /rustc/90b35a6239c3d8bdabc530a6a0816f7ff89a0aaf/library/core/src/panicking.rs:181
80204e5c: fc040513     	addi	a0, s0, -0x40
80204e60: fffff097     	auipc	ra, 0xfffff
80204e64: 496080e7     	jalr	0x496(ra) <free_mem_start+0xff5fb2f6>

0000000080204e68 <core::panicking::panic_const::panic_const_sub_overflow::hfc9e186cc78b3e6c>:
; core::panicking::panic_const::panic_const_sub_overflow::hfc9e186cc78b3e6c():
; /rustc/90b35a6239c3d8bdabc530a6a0816f7ff89a0aaf/library/core/src/panicking.rs:174
80204e68: 7139         	addi	sp, sp, -0x40
80204e6a: fc06         	sd	ra, 0x38(sp)
80204e6c: f822         	sd	s0, 0x30(sp)
80204e6e: 0080         	addi	s0, sp, 0x40
80204e70: 85aa         	mv	a1, a0

0000000080204e72 <.Lpcrel_hi839>:
; .Lpcrel_hi839():
; /rustc/90b35a6239c3d8bdabc530a6a0816f7ff89a0aaf/library/core/src/fmt/mod.rs:339
80204e72: 00a03517     	auipc	a0, 0xa03
80204e76: a9650513     	addi	a0, a0, -0x56a
80204e7a: fca43023     	sd	a0, -0x40(s0)
80204e7e: 4505         	li	a0, 0x1
80204e80: fca43423     	sd	a0, -0x38(s0)
80204e84: fe043023     	sd	zero, -0x20(s0)
80204e88: 4521         	li	a0, 0x8
80204e8a: fca43823     	sd	a0, -0x30(s0)
80204e8e: fc043c23     	sd	zero, -0x28(s0)
; /rustc/90b35a6239c3d8bdabc530a6a0816f7ff89a0aaf/library/core/src/panicking.rs:181
80204e92: fc040513     	addi	a0, s0, -0x40
80204e96: fffff097     	auipc	ra, 0xfffff
80204e9a: 460080e7     	jalr	0x460(ra) <free_mem_start+0xff5fb2f6>

0000000080204e9e <core::panicking::panic_const::panic_const_mul_overflow::h9bca4aab8cdc06a4>:
; core::panicking::panic_const::panic_const_mul_overflow::h9bca4aab8cdc06a4():
; /rustc/90b35a6239c3d8bdabc530a6a0816f7ff89a0aaf/library/core/src/panicking.rs:174
80204e9e: 7139         	addi	sp, sp, -0x40
80204ea0: fc06         	sd	ra, 0x38(sp)
80204ea2: f822         	sd	s0, 0x30(sp)
80204ea4: 0080         	addi	s0, sp, 0x40
80204ea6: 85aa         	mv	a1, a0

0000000080204ea8 <.Lpcrel_hi840>:
; .Lpcrel_hi840():
; /rustc/90b35a6239c3d8bdabc530a6a0816f7ff89a0aaf/library/core/src/fmt/mod.rs:339
80204ea8: 00a03517     	auipc	a0, 0xa03
80204eac: a9850513     	addi	a0, a0, -0x568
80204eb0: fca43023     	sd	a0, -0x40(s0)
80204eb4: 4505         	li	a0, 0x1
80204eb6: fca43423     	sd	a0, -0x38(s0)
80204eba: fe043023     	sd	zero, -0x20(s0)
80204ebe: 4521         	li	a0, 0x8
80204ec0: fca43823     	sd	a0, -0x30(s0)
80204ec4: fc043c23     	sd	zero, -0x28(s0)
; /rustc/90b35a6239c3d8bdabc530a6a0816f7ff89a0aaf/library/core/src/panicking.rs:181
80204ec8: fc040513     	addi	a0, s0, -0x40
80204ecc: fffff097     	auipc	ra, 0xfffff
80204ed0: 42a080e7     	jalr	0x42a(ra) <free_mem_start+0xff5fb2f6>

0000000080204ed4 <core::panicking::panic_const::panic_const_shl_overflow::h2aedb2ea5169edc7>:
; core::panicking::panic_const::panic_const_shl_overflow::h2aedb2ea5169edc7():
; /rustc/90b35a6239c3d8bdabc530a6a0816f7ff89a0aaf/library/core/src/panicking.rs:174
80204ed4: 7139         	addi	sp, sp, -0x40
80204ed6: fc06         	sd	ra, 0x38(sp)
80204ed8: f822         	sd	s0, 0x30(sp)
80204eda: 0080         	addi	s0, sp, 0x40
80204edc: 85aa         	mv	a1, a0

0000000080204ede <.Lpcrel_hi845>:
; .Lpcrel_hi845():
; /rustc/90b35a6239c3d8bdabc530a6a0816f7ff89a0aaf/library/core/src/fmt/mod.rs:339
80204ede: 00a03517     	auipc	a0, 0xa03
80204ee2: a9a50513     	addi	a0, a0, -0x566
80204ee6: fca43023     	sd	a0, -0x40(s0)
80204eea: 4505         	li	a0, 0x1
80204eec: fca43423     	sd	a0, -0x38(s0)
80204ef0: fe043023     	sd	zero, -0x20(s0)
80204ef4: 4521         	li	a0, 0x8
80204ef6: fca43823     	sd	a0, -0x30(s0)
80204efa: fc043c23     	sd	zero, -0x28(s0)
; /rustc/90b35a6239c3d8bdabc530a6a0816f7ff89a0aaf/library/core/src/panicking.rs:181
80204efe: fc040513     	addi	a0, s0, -0x40
80204f02: fffff097     	auipc	ra, 0xfffff
80204f06: 3f4080e7     	jalr	0x3f4(ra) <free_mem_start+0xff5fb2f6>

0000000080204f0a <core::panicking::panic_const::panic_const_div_by_zero::h54d21b33a46fc536>:
; core::panicking::panic_const::panic_const_div_by_zero::h54d21b33a46fc536():
; /rustc/90b35a6239c3d8bdabc530a6a0816f7ff89a0aaf/library/core/src/panicking.rs:174
80204f0a: 7139         	addi	sp, sp, -0x40
80204f0c: fc06         	sd	ra, 0x38(sp)
80204f0e: f822         	sd	s0, 0x30(sp)
80204f10: 0080         	addi	s0, sp, 0x40
80204f12: 85aa         	mv	a1, a0

0000000080204f14 <.Lpcrel_hi846>:
; .Lpcrel_hi846():
; /rustc/90b35a6239c3d8bdabc530a6a0816f7ff89a0aaf/library/core/src/fmt/mod.rs:339
80204f14: 00a03517     	auipc	a0, 0xa03
80204f18: de450513     	addi	a0, a0, -0x21c
80204f1c: fca43023     	sd	a0, -0x40(s0)
80204f20: 4505         	li	a0, 0x1
80204f22: fca43423     	sd	a0, -0x38(s0)
80204f26: fe043023     	sd	zero, -0x20(s0)
80204f2a: 4521         	li	a0, 0x8
80204f2c: fca43823     	sd	a0, -0x30(s0)
80204f30: fc043c23     	sd	zero, -0x28(s0)
; /rustc/90b35a6239c3d8bdabc530a6a0816f7ff89a0aaf/library/core/src/panicking.rs:181
80204f34: fc040513     	addi	a0, s0, -0x40
80204f38: fffff097     	auipc	ra, 0xfffff
80204f3c: 3be080e7     	jalr	0x3be(ra) <free_mem_start+0xff5fb2f6>

0000000080204f40 <core::fmt::num::_$LT$impl$u20$core..fmt..LowerHex$u20$for$u20$u32$GT$::fmt::h3cb3f6a742a684eb>:
; core::fmt::num::_$LT$impl$u20$core..fmt..LowerHex$u20$for$u20$u32$GT$::fmt::h3cb3f6a742a684eb():
; /rustc/90b35a6239c3d8bdabc530a6a0816f7ff89a0aaf/library/core/src/fmt/num.rs:155
80204f40: 7175         	addi	sp, sp, -0x90
80204f42: e506         	sd	ra, 0x88(sp)
80204f44: e122         	sd	s0, 0x80(sp)
80204f46: 0900         	addi	s0, sp, 0x90
; /rustc/90b35a6239c3d8bdabc530a6a0816f7ff89a0aaf/library/core/src/fmt/num.rs:156
80204f48: 4108         	lw	a0, 0x0(a0)
80204f4a: 882e         	mv	a6, a1
80204f4c: 4781         	li	a5, 0x0
; /rustc/90b35a6239c3d8bdabc530a6a0816f7ff89a0aaf/library/core/src/ptr/mut_ptr.rs:1005
80204f4e: ff040613     	addi	a2, s0, -0x10
80204f52: 45a9         	li	a1, 0xa
80204f54: a821         	j	0x80204f6c <core::fmt::num::_$LT$impl$u20$core..fmt..LowerHex$u20$for$u20$u32$GT$::fmt::h3cb3f6a742a684eb+0x2c>
80204f56: 05768693     	addi	a3, a3, 0x57
80204f5a: fff60713     	addi	a4, a2, -0x1
80204f5e: 0045551b     	srliw	a0, a0, 0x4
; /rustc/90b35a6239c3d8bdabc530a6a0816f7ff89a0aaf/library/core/src/mem/maybe_uninit.rs:492
80204f62: fed60fa3     	sb	a3, -0x1(a2)
; /rustc/90b35a6239c3d8bdabc530a6a0816f7ff89a0aaf/library/core/src/fmt/num.rs:84
80204f66: 0785         	addi	a5, a5, 0x1
80204f68: 863a         	mv	a2, a4
80204f6a: c901         	beqz	a0, 0x80204f7a <core::fmt::num::_$LT$impl$u20$core..fmt..LowerHex$u20$for$u20$u32$GT$::fmt::h3cb3f6a742a684eb+0x3a>
; /rustc/90b35a6239c3d8bdabc530a6a0816f7ff89a0aaf/library/core/src/fmt/num.rs:39
80204f6c: 00f57693     	andi	a3, a0, 0xf
80204f70: feb6f3e3     	bgeu	a3, a1, 0x80204f56 <core::fmt::num::_$LT$impl$u20$core..fmt..LowerHex$u20$for$u20$u32$GT$::fmt::h3cb3f6a742a684eb+0x16>
; /rustc/90b35a6239c3d8bdabc530a6a0816f7ff89a0aaf/library/core/src/fmt/num.rs:148
80204f74: 03068693     	addi	a3, a3, 0x30
80204f78: b7cd         	j	0x80204f5a <core::fmt::num::_$LT$impl$u20$core..fmt..LowerHex$u20$for$u20$u32$GT$::fmt::h3cb3f6a742a684eb+0x1a>
80204f7a: 08000593     	li	a1, 0x80
; /rustc/90b35a6239c3d8bdabc530a6a0816f7ff89a0aaf/library/core/src/slice/index.rs:588
80204f7e: 40f58533     	sub	a0, a1, a5
80204f82: 02a5e163     	bltu	a1, a0, 0x80204fa4 <.Lpcrel_hi924>

0000000080204f86 <.Lpcrel_hi925>:
; .Lpcrel_hi925():
; /rustc/90b35a6239c3d8bdabc530a6a0816f7ff89a0aaf/library/core/src/fmt/num.rs:111
80204f86: 00a03517     	auipc	a0, 0xa03
80204f8a: c3250613     	addi	a2, a0, -0x3ce
80204f8e: 4585         	li	a1, 0x1
80204f90: 4689         	li	a3, 0x2
80204f92: 8542         	mv	a0, a6
80204f94: fffff097     	auipc	ra, 0xfffff
80204f98: 7e6080e7     	jalr	0x7e6(ra) <free_mem_start+0xff5fb77a>
80204f9c: 60aa         	ld	ra, 0x88(sp)
80204f9e: 640a         	ld	s0, 0x80(sp)
; /rustc/90b35a6239c3d8bdabc530a6a0816f7ff89a0aaf/library/core/src/fmt/num.rs:157
80204fa0: 6149         	addi	sp, sp, 0x90
80204fa2: 8082         	ret

0000000080204fa4 <.Lpcrel_hi924>:
; .Lpcrel_hi924():
; /rustc/90b35a6239c3d8bdabc530a6a0816f7ff89a0aaf/library/core/src/slice/index.rs:589
80204fa4: 00a03597     	auipc	a1, 0xa03
80204fa8: bfc58613     	addi	a2, a1, -0x404
80204fac: 08000593     	li	a1, 0x80
80204fb0: 00000097     	auipc	ra, 0x0
80204fb4: c44080e7     	jalr	-0x3bc(ra) <core::slice::index::slice_start_index_len_fail::hb78324399fa16f4e>

0000000080204fb8 <core::fmt::num::_$LT$impl$u20$core..fmt..UpperHex$u20$for$u20$u32$GT$::fmt::h0ed1430112dfdf77>:
; core::fmt::num::_$LT$impl$u20$core..fmt..UpperHex$u20$for$u20$u32$GT$::fmt::h0ed1430112dfdf77():
; /rustc/90b35a6239c3d8bdabc530a6a0816f7ff89a0aaf/library/core/src/fmt/num.rs:155
80204fb8: 7175         	addi	sp, sp, -0x90
80204fba: e506         	sd	ra, 0x88(sp)
80204fbc: e122         	sd	s0, 0x80(sp)
80204fbe: 0900         	addi	s0, sp, 0x90
; /rustc/90b35a6239c3d8bdabc530a6a0816f7ff89a0aaf/library/core/src/fmt/num.rs:156
80204fc0: 4108         	lw	a0, 0x0(a0)
80204fc2: 882e         	mv	a6, a1
80204fc4: 4781         	li	a5, 0x0
; /rustc/90b35a6239c3d8bdabc530a6a0816f7ff89a0aaf/library/core/src/ptr/mut_ptr.rs:1005
80204fc6: ff040613     	addi	a2, s0, -0x10
80204fca: 45a9         	li	a1, 0xa
80204fcc: a821         	j	0x80204fe4 <core::fmt::num::_$LT$impl$u20$core..fmt..UpperHex$u20$for$u20$u32$GT$::fmt::h0ed1430112dfdf77+0x2c>
80204fce: 03768693     	addi	a3, a3, 0x37
80204fd2: fff60713     	addi	a4, a2, -0x1
80204fd6: 0045551b     	srliw	a0, a0, 0x4
; /rustc/90b35a6239c3d8bdabc530a6a0816f7ff89a0aaf/library/core/src/mem/maybe_uninit.rs:492
80204fda: fed60fa3     	sb	a3, -0x1(a2)
; /rustc/90b35a6239c3d8bdabc530a6a0816f7ff89a0aaf/library/core/src/fmt/num.rs:84
80204fde: 0785         	addi	a5, a5, 0x1
80204fe0: 863a         	mv	a2, a4
80204fe2: c901         	beqz	a0, 0x80204ff2 <core::fmt::num::_$LT$impl$u20$core..fmt..UpperHex$u20$for$u20$u32$GT$::fmt::h0ed1430112dfdf77+0x3a>
; /rustc/90b35a6239c3d8bdabc530a6a0816f7ff89a0aaf/library/core/src/fmt/num.rs:39
80204fe4: 00f57693     	andi	a3, a0, 0xf
80204fe8: feb6f3e3     	bgeu	a3, a1, 0x80204fce <core::fmt::num::_$LT$impl$u20$core..fmt..UpperHex$u20$for$u20$u32$GT$::fmt::h0ed1430112dfdf77+0x16>
; /rustc/90b35a6239c3d8bdabc530a6a0816f7ff89a0aaf/library/core/src/fmt/num.rs:149
80204fec: 03068693     	addi	a3, a3, 0x30
80204ff0: b7cd         	j	0x80204fd2 <core::fmt::num::_$LT$impl$u20$core..fmt..UpperHex$u20$for$u20$u32$GT$::fmt::h0ed1430112dfdf77+0x1a>
80204ff2: 08000593     	li	a1, 0x80
; /rustc/90b35a6239c3d8bdabc530a6a0816f7ff89a0aaf/library/core/src/slice/index.rs:588
80204ff6: 40f58533     	sub	a0, a1, a5
80204ffa: 02a5e163     	bltu	a1, a0, 0x8020501c <.Lpcrel_hi926>

0000000080204ffe <.Lpcrel_hi927>:
; .Lpcrel_hi927():
; /rustc/90b35a6239c3d8bdabc530a6a0816f7ff89a0aaf/library/core/src/fmt/num.rs:111
80204ffe: 00a03517     	auipc	a0, 0xa03
80205002: bba50613     	addi	a2, a0, -0x446
80205006: 4585         	li	a1, 0x1
80205008: 4689         	li	a3, 0x2
8020500a: 8542         	mv	a0, a6
8020500c: fffff097     	auipc	ra, 0xfffff
80205010: 76e080e7     	jalr	0x76e(ra) <free_mem_start+0xff5fb77a>
80205014: 60aa         	ld	ra, 0x88(sp)
80205016: 640a         	ld	s0, 0x80(sp)
; /rustc/90b35a6239c3d8bdabc530a6a0816f7ff89a0aaf/library/core/src/fmt/num.rs:157
80205018: 6149         	addi	sp, sp, 0x90
8020501a: 8082         	ret

000000008020501c <.Lpcrel_hi926>:
; .Lpcrel_hi926():
; /rustc/90b35a6239c3d8bdabc530a6a0816f7ff89a0aaf/library/core/src/slice/index.rs:589
8020501c: 00a03597     	auipc	a1, 0xa03
80205020: b8458613     	addi	a2, a1, -0x47c
80205024: 08000593     	li	a1, 0x80
80205028: 00000097     	auipc	ra, 0x0
8020502c: bcc080e7     	jalr	-0x434(ra) <core::slice::index::slice_start_index_len_fail::hb78324399fa16f4e>

0000000080205030 <core::fmt::num::_$LT$impl$u20$core..fmt..LowerHex$u20$for$u20$usize$GT$::fmt::hc4c08e143af832aa>:
; core::fmt::num::_$LT$impl$u20$core..fmt..LowerHex$u20$for$u20$u64$GT$::fmt::h8b1759ff3100a591():
; /rustc/90b35a6239c3d8bdabc530a6a0816f7ff89a0aaf/library/core/src/fmt/num.rs:155
80205030: 7175         	addi	sp, sp, -0x90
80205032: e506         	sd	ra, 0x88(sp)
80205034: e122         	sd	s0, 0x80(sp)
80205036: 0900         	addi	s0, sp, 0x90
; /rustc/90b35a6239c3d8bdabc530a6a0816f7ff89a0aaf/library/core/src/fmt/num.rs:156
80205038: 6108         	ld	a0, 0x0(a0)
8020503a: 882e         	mv	a6, a1
8020503c: 4781         	li	a5, 0x0
; /rustc/90b35a6239c3d8bdabc530a6a0816f7ff89a0aaf/library/core/src/ptr/mut_ptr.rs:1005
8020503e: ff040613     	addi	a2, s0, -0x10
80205042: 45a9         	li	a1, 0xa
80205044: a819         	j	0x8020505a <core::fmt::num::_$LT$impl$u20$core..fmt..LowerHex$u20$for$u20$usize$GT$::fmt::hc4c08e143af832aa+0x2a>
80205046: 05768693     	addi	a3, a3, 0x57
8020504a: fff60713     	addi	a4, a2, -0x1
8020504e: 8111         	srli	a0, a0, 0x4
; /rustc/90b35a6239c3d8bdabc530a6a0816f7ff89a0aaf/library/core/src/mem/maybe_uninit.rs:492
80205050: fed60fa3     	sb	a3, -0x1(a2)
; /rustc/90b35a6239c3d8bdabc530a6a0816f7ff89a0aaf/library/core/src/fmt/num.rs:84
80205054: 0785         	addi	a5, a5, 0x1
80205056: 863a         	mv	a2, a4
80205058: c901         	beqz	a0, 0x80205068 <core::fmt::num::_$LT$impl$u20$core..fmt..LowerHex$u20$for$u20$usize$GT$::fmt::hc4c08e143af832aa+0x38>
; /rustc/90b35a6239c3d8bdabc530a6a0816f7ff89a0aaf/library/core/src/fmt/num.rs:39
8020505a: 00f57693     	andi	a3, a0, 0xf
8020505e: feb6f4e3     	bgeu	a3, a1, 0x80205046 <core::fmt::num::_$LT$impl$u20$core..fmt..LowerHex$u20$for$u20$usize$GT$::fmt::hc4c08e143af832aa+0x16>
; /rustc/90b35a6239c3d8bdabc530a6a0816f7ff89a0aaf/library/core/src/fmt/num.rs:148
80205062: 03068693     	addi	a3, a3, 0x30
80205066: b7d5         	j	0x8020504a <core::fmt::num::_$LT$impl$u20$core..fmt..LowerHex$u20$for$u20$usize$GT$::fmt::hc4c08e143af832aa+0x1a>
80205068: 08000593     	li	a1, 0x80
; /rustc/90b35a6239c3d8bdabc530a6a0816f7ff89a0aaf/library/core/src/slice/index.rs:588
8020506c: 40f58533     	sub	a0, a1, a5
80205070: 02a5e163     	bltu	a1, a0, 0x80205092 <.Lpcrel_hi932>

0000000080205074 <.Lpcrel_hi933>:
; .Lpcrel_hi933():
; /rustc/90b35a6239c3d8bdabc530a6a0816f7ff89a0aaf/library/core/src/fmt/num.rs:111
80205074: 00a03517     	auipc	a0, 0xa03
80205078: b4450613     	addi	a2, a0, -0x4bc
8020507c: 4585         	li	a1, 0x1
8020507e: 4689         	li	a3, 0x2
80205080: 8542         	mv	a0, a6
80205082: fffff097     	auipc	ra, 0xfffff
80205086: 6f8080e7     	jalr	0x6f8(ra) <free_mem_start+0xff5fb77a>
8020508a: 60aa         	ld	ra, 0x88(sp)
8020508c: 640a         	ld	s0, 0x80(sp)
; /rustc/90b35a6239c3d8bdabc530a6a0816f7ff89a0aaf/library/core/src/fmt/num.rs:157
8020508e: 6149         	addi	sp, sp, 0x90
80205090: 8082         	ret

0000000080205092 <.Lpcrel_hi932>:
; .Lpcrel_hi932():
; /rustc/90b35a6239c3d8bdabc530a6a0816f7ff89a0aaf/library/core/src/slice/index.rs:589
80205092: 00a03597     	auipc	a1, 0xa03
80205096: b0e58613     	addi	a2, a1, -0x4f2
8020509a: 08000593     	li	a1, 0x80
8020509e: 00000097     	auipc	ra, 0x0
802050a2: b56080e7     	jalr	-0x4aa(ra) <core::slice::index::slice_start_index_len_fail::hb78324399fa16f4e>

00000000802050a6 <core::fmt::num::_$LT$impl$u20$core..fmt..UpperHex$u20$for$u20$usize$GT$::fmt::h6b6a69bcc18c465b>:
; core::fmt::num::_$LT$impl$u20$core..fmt..UpperHex$u20$for$u20$u64$GT$::fmt::h8f0fa3f68e8a92cc():
; /rustc/90b35a6239c3d8bdabc530a6a0816f7ff89a0aaf/library/core/src/fmt/num.rs:155
802050a6: 7175         	addi	sp, sp, -0x90
802050a8: e506         	sd	ra, 0x88(sp)
802050aa: e122         	sd	s0, 0x80(sp)
802050ac: 0900         	addi	s0, sp, 0x90
; /rustc/90b35a6239c3d8bdabc530a6a0816f7ff89a0aaf/library/core/src/fmt/num.rs:156
802050ae: 6108         	ld	a0, 0x0(a0)
802050b0: 882e         	mv	a6, a1
802050b2: 4781         	li	a5, 0x0
; /rustc/90b35a6239c3d8bdabc530a6a0816f7ff89a0aaf/library/core/src/ptr/mut_ptr.rs:1005
802050b4: ff040613     	addi	a2, s0, -0x10
802050b8: 45a9         	li	a1, 0xa
802050ba: a819         	j	0x802050d0 <core::fmt::num::_$LT$impl$u20$core..fmt..UpperHex$u20$for$u20$usize$GT$::fmt::h6b6a69bcc18c465b+0x2a>
802050bc: 03768693     	addi	a3, a3, 0x37
802050c0: fff60713     	addi	a4, a2, -0x1
802050c4: 8111         	srli	a0, a0, 0x4
; /rustc/90b35a6239c3d8bdabc530a6a0816f7ff89a0aaf/library/core/src/mem/maybe_uninit.rs:492
802050c6: fed60fa3     	sb	a3, -0x1(a2)
; /rustc/90b35a6239c3d8bdabc530a6a0816f7ff89a0aaf/library/core/src/fmt/num.rs:84
802050ca: 0785         	addi	a5, a5, 0x1
802050cc: 863a         	mv	a2, a4
802050ce: c901         	beqz	a0, 0x802050de <core::fmt::num::_$LT$impl$u20$core..fmt..UpperHex$u20$for$u20$usize$GT$::fmt::h6b6a69bcc18c465b+0x38>
; /rustc/90b35a6239c3d8bdabc530a6a0816f7ff89a0aaf/library/core/src/fmt/num.rs:39
802050d0: 00f57693     	andi	a3, a0, 0xf
802050d4: feb6f4e3     	bgeu	a3, a1, 0x802050bc <core::fmt::num::_$LT$impl$u20$core..fmt..UpperHex$u20$for$u20$usize$GT$::fmt::h6b6a69bcc18c465b+0x16>
; /rustc/90b35a6239c3d8bdabc530a6a0816f7ff89a0aaf/library/core/src/fmt/num.rs:149
802050d8: 03068693     	addi	a3, a3, 0x30
802050dc: b7d5         	j	0x802050c0 <core::fmt::num::_$LT$impl$u20$core..fmt..UpperHex$u20$for$u20$usize$GT$::fmt::h6b6a69bcc18c465b+0x1a>
802050de: 08000593     	li	a1, 0x80
; /rustc/90b35a6239c3d8bdabc530a6a0816f7ff89a0aaf/library/core/src/slice/index.rs:588
802050e2: 40f58533     	sub	a0, a1, a5
802050e6: 02a5e163     	bltu	a1, a0, 0x80205108 <.Lpcrel_hi934>

00000000802050ea <.Lpcrel_hi935>:
; .Lpcrel_hi935():
; /rustc/90b35a6239c3d8bdabc530a6a0816f7ff89a0aaf/library/core/src/fmt/num.rs:111
802050ea: 00a03517     	auipc	a0, 0xa03
802050ee: ace50613     	addi	a2, a0, -0x532
802050f2: 4585         	li	a1, 0x1
802050f4: 4689         	li	a3, 0x2
802050f6: 8542         	mv	a0, a6
802050f8: fffff097     	auipc	ra, 0xfffff
802050fc: 682080e7     	jalr	0x682(ra) <free_mem_start+0xff5fb77a>
80205100: 60aa         	ld	ra, 0x88(sp)
80205102: 640a         	ld	s0, 0x80(sp)
; /rustc/90b35a6239c3d8bdabc530a6a0816f7ff89a0aaf/library/core/src/fmt/num.rs:157
80205104: 6149         	addi	sp, sp, 0x90
80205106: 8082         	ret

0000000080205108 <.Lpcrel_hi934>:
; .Lpcrel_hi934():
; /rustc/90b35a6239c3d8bdabc530a6a0816f7ff89a0aaf/library/core/src/slice/index.rs:589
80205108: 00a03597     	auipc	a1, 0xa03
8020510c: a9858613     	addi	a2, a1, -0x568
80205110: 08000593     	li	a1, 0x80
80205114: 00000097     	auipc	ra, 0x0
80205118: ae0080e7     	jalr	-0x520(ra) <core::slice::index::slice_start_index_len_fail::hb78324399fa16f4e>

000000008020511c <core::fmt::num::imp::_$LT$impl$u20$core..fmt..Display$u20$for$u20$i32$GT$::fmt::h3cb9ff617446a8a2>:
; core::fmt::num::imp::_$LT$impl$u20$core..fmt..Display$u20$for$u20$i32$GT$::fmt::h3cb9ff617446a8a2():
; /rustc/90b35a6239c3d8bdabc530a6a0816f7ff89a0aaf/library/core/src/fmt/num.rs:219
8020511c: 00052f03     	lw	t5, 0x0(a0)
80205120: 882e         	mv	a6, a1
; /rustc/90b35a6239c3d8bdabc530a6a0816f7ff89a0aaf/library/core/src/fmt/num.rs:223
80205122: 100f4563     	bltz	t5, 0x8020522c <.Lpcrel_hi969+0xf4>
80205126: 1101         	addi	sp, sp, -0x20
80205128: ec06         	sd	ra, 0x18(sp)
8020512a: e822         	sd	s0, 0x10(sp)
8020512c: 1000         	addi	s0, sp, 0x20
; /rustc/90b35a6239c3d8bdabc530a6a0816f7ff89a0aaf/library/core/src/fmt/num.rs:272
8020512e: 004f569b     	srliw	a3, t5, 0x4
80205132: 4529         	li	a0, 0xa
80205134: 27100713     	li	a4, 0x271

0000000080205138 <.Lpcrel_hi969>:
; .Lpcrel_hi969():
; /rustc/90b35a6239c3d8bdabc530a6a0816f7ff89a0aaf/library/core/src/fmt/num.rs:272
80205138: 00a03597     	auipc	a1, 0xa03
8020513c: a8258e93     	addi	t4, a1, -0x57e
80205140: 08e6e663     	bltu	a3, a4, 0x802051cc <.Lpcrel_hi969+0x94>
80205144: 4529         	li	a0, 0xa
; /rustc/90b35a6239c3d8bdabc530a6a0816f7ff89a0aaf/library/core/src/fmt/num.rs:272
80205146: fee40713     	addi	a4, s0, -0x12
8020514a: d1b716b7     	lui	a3, 0xd1b71
8020514e: 75968893     	addi	a7, a3, 0x759
80205152: 1882         	slli	a7, a7, 0x20
80205154: 6689         	lui	a3, 0x2
80205156: 71068313     	addi	t1, a3, 0x710
8020515a: 6685         	lui	a3, 0x1
8020515c: 47b6839b     	addiw	t2, a3, 0x47b
80205160: 06400293     	li	t0, 0x64
80205164: 05f5e6b7     	lui	a3, 0x5f5e
80205168: 0ff68e1b     	addiw	t3, a3, 0xff
8020516c: 85fa         	mv	a1, t5
; /rustc/90b35a6239c3d8bdabc530a6a0816f7ff89a0aaf/library/core/src/fmt/num.rs:274
8020516e: 020f1793     	slli	a5, t5, 0x20
80205172: 0317b7b3     	mulhu	a5, a5, a7
80205176: 02d7df13     	srli	t5, a5, 0x2d
; /rustc/90b35a6239c3d8bdabc530a6a0816f7ff89a0aaf/library/core/src/fmt/num.rs:273
8020517a: 026f06b3     	mul	a3, t5, t1
8020517e: 40d5863b     	subw	a2, a1, a3
; /rustc/90b35a6239c3d8bdabc530a6a0816f7ff89a0aaf/library/core/src/fmt/num.rs:276
80205182: 03061693     	slli	a3, a2, 0x30
80205186: 92c9         	srli	a3, a3, 0x32
80205188: 027686b3     	mul	a3, a3, t2
8020518c: 0116d793     	srli	a5, a3, 0x11
80205190: 82c1         	srli	a3, a3, 0x10
80205192: 7fe6f693     	andi	a3, a3, 0x7fe
; /rustc/90b35a6239c3d8bdabc530a6a0816f7ff89a0aaf/library/core/src/fmt/num.rs:277
80205196: 025787b3     	mul	a5, a5, t0
8020519a: 9e1d         	subw	a2, a2, a5
; /rustc/90b35a6239c3d8bdabc530a6a0816f7ff89a0aaf/library/core/src/ptr/const_ptr.rs:921
8020519c: 96f6         	add	a3, a3, t4
; /rustc/90b35a6239c3d8bdabc530a6a0816f7ff89a0aaf/library/core/src/intrinsics.rs:3375
8020519e: 0016c783     	lbu	a5, 0x1(a3)
; /rustc/90b35a6239c3d8bdabc530a6a0816f7ff89a0aaf/library/core/src/fmt/num.rs:277
802051a2: 1646         	slli	a2, a2, 0x31
802051a4: 9241         	srli	a2, a2, 0x30
; /rustc/90b35a6239c3d8bdabc530a6a0816f7ff89a0aaf/library/core/src/intrinsics.rs:3375
802051a6: 0006c683     	lbu	a3, 0x0(a3)
802051aa: fef70fa3     	sb	a5, -0x1(a4)
; /rustc/90b35a6239c3d8bdabc530a6a0816f7ff89a0aaf/library/core/src/ptr/const_ptr.rs:921
802051ae: 9676         	add	a2, a2, t4
; /rustc/90b35a6239c3d8bdabc530a6a0816f7ff89a0aaf/library/core/src/intrinsics.rs:3375
802051b0: 00164783     	lbu	a5, 0x1(a2)
802051b4: 00064603     	lbu	a2, 0x0(a2)
; /rustc/90b35a6239c3d8bdabc530a6a0816f7ff89a0aaf/library/core/src/fmt/num.rs:278
802051b8: 1571         	addi	a0, a0, -0x4
; /rustc/90b35a6239c3d8bdabc530a6a0816f7ff89a0aaf/library/core/src/intrinsics.rs:3375
802051ba: fed70f23     	sb	a3, -0x2(a4)
802051be: 00f700a3     	sb	a5, 0x1(a4)
802051c2: 00c70023     	sb	a2, 0x0(a4)
; /rustc/90b35a6239c3d8bdabc530a6a0816f7ff89a0aaf/library/core/src/fmt/num.rs:272
802051c6: 1771         	addi	a4, a4, -0x4
802051c8: fabe62e3     	bltu	t3, a1, 0x8020516c <.Lpcrel_hi969+0x34>
802051cc: 06300693     	li	a3, 0x63
; /rustc/90b35a6239c3d8bdabc530a6a0816f7ff89a0aaf/library/core/src/fmt/num.rs:292
802051d0: 05e6f263     	bgeu	a3, t5, 0x80205214 <.Lpcrel_hi969+0xdc>
; /rustc/90b35a6239c3d8bdabc530a6a0816f7ff89a0aaf/library/core/src/fmt/num.rs:294
802051d4: 020f1593     	slli	a1, t5, 0x20
802051d8: 51eb8637     	lui	a2, 0x51eb8
802051dc: 51f60613     	addi	a2, a2, 0x51f
802051e0: 1602         	slli	a2, a2, 0x20
802051e2: 02c5b5b3     	mulhu	a1, a1, a2
802051e6: 9195         	srli	a1, a1, 0x25
802051e8: 06400613     	li	a2, 0x64
; /rustc/90b35a6239c3d8bdabc530a6a0816f7ff89a0aaf/library/core/src/fmt/num.rs:293
802051ec: 02c58633     	mul	a2, a1, a2
802051f0: 40cf063b     	subw	a2, t5, a2
802051f4: 0016161b     	slliw	a2, a2, 0x1
; /rustc/90b35a6239c3d8bdabc530a6a0816f7ff89a0aaf/library/core/src/fmt/num.rs:295
802051f8: 1579         	addi	a0, a0, -0x2
; /rustc/90b35a6239c3d8bdabc530a6a0816f7ff89a0aaf/library/core/src/ptr/const_ptr.rs:921
802051fa: 9676         	add	a2, a2, t4
; /rustc/90b35a6239c3d8bdabc530a6a0816f7ff89a0aaf/library/core/src/intrinsics.rs:3375
802051fc: 00164683     	lbu	a3, 0x1(a2)
80205200: 00064603     	lbu	a2, 0x0(a2)
80205204: fe640713     	addi	a4, s0, -0x1a
; /rustc/90b35a6239c3d8bdabc530a6a0816f7ff89a0aaf/library/core/src/ptr/mut_ptr.rs:1005
80205208: 972a         	add	a4, a4, a0
; /rustc/90b35a6239c3d8bdabc530a6a0816f7ff89a0aaf/library/core/src/intrinsics.rs:3375
8020520a: 00d700a3     	sb	a3, 0x1(a4)
8020520e: 00c70023     	sb	a2, 0x0(a4)
80205212: 8f2e         	mv	t5, a1
80205214: 45a9         	li	a1, 0xa
; /rustc/90b35a6239c3d8bdabc530a6a0816f7ff89a0aaf/library/core/src/fmt/num.rs:302
80205216: 02bf7363     	bgeu	t5, a1, 0x8020523c <.Lpcrel_hi969+0x104>
; /rustc/90b35a6239c3d8bdabc530a6a0816f7ff89a0aaf/library/core/src/fmt/num.rs:303
8020521a: 157d         	addi	a0, a0, -0x1
8020521c: fe640593     	addi	a1, s0, -0x1a
; /rustc/90b35a6239c3d8bdabc530a6a0816f7ff89a0aaf/library/core/src/ptr/mut_ptr.rs:1005
80205220: 95aa         	add	a1, a1, a0
; /rustc/90b35a6239c3d8bdabc530a6a0816f7ff89a0aaf/library/core/src/fmt/num.rs:304
80205222: 030f6613     	ori	a2, t5, 0x30
80205226: 00c58023     	sb	a2, 0x0(a1)
8020522a: a805         	j	0x8020525a <.Lpcrel_hi969+0x122>
; /rustc/90b35a6239c3d8bdabc530a6a0816f7ff89a0aaf/library/core/src/num/uint_macros.rs:1901
8020522c: 41e0053b     	negw	a0, t5
; /rustc/90b35a6239c3d8bdabc530a6a0816f7ff89a0aaf/library/core/src/fmt/num.rs:225
80205230: 4581         	li	a1, 0x0
80205232: 8642         	mv	a2, a6
80205234: 00000317     	auipc	t1, 0x0
80205238: 06430067     	jr	0x64(t1) <core::fmt::num::imp::_$LT$impl$u20$u32$GT$::_fmt::hd790217b648357e8>
; /rustc/90b35a6239c3d8bdabc530a6a0816f7ff89a0aaf/library/core/src/fmt/num.rs:306
8020523c: 001f159b     	slliw	a1, t5, 0x1
; /rustc/90b35a6239c3d8bdabc530a6a0816f7ff89a0aaf/library/core/src/fmt/num.rs:307
80205240: 1579         	addi	a0, a0, -0x2
; /rustc/90b35a6239c3d8bdabc530a6a0816f7ff89a0aaf/library/core/src/ptr/const_ptr.rs:921
80205242: 95f6         	add	a1, a1, t4
; /rustc/90b35a6239c3d8bdabc530a6a0816f7ff89a0aaf/library/core/src/intrinsics.rs:3375
80205244: 0015c603     	lbu	a2, 0x1(a1)
80205248: 0005c583     	lbu	a1, 0x0(a1)
8020524c: fe640693     	addi	a3, s0, -0x1a
; /rustc/90b35a6239c3d8bdabc530a6a0816f7ff89a0aaf/library/core/src/ptr/mut_ptr.rs:1005
80205250: 96aa         	add	a3, a3, a0
; /rustc/90b35a6239c3d8bdabc530a6a0816f7ff89a0aaf/library/core/src/intrinsics.rs:3375
80205252: 00c680a3     	sb	a2, 0x1(a3)
80205256: 00b68023     	sb	a1, 0x0(a3)
8020525a: fe640713     	addi	a4, s0, -0x1a
; /rustc/90b35a6239c3d8bdabc530a6a0816f7ff89a0aaf/library/core/src/ptr/mut_ptr.rs:1005
8020525e: 972a         	add	a4, a4, a0
80205260: 47a9         	li	a5, 0xa
; /rustc/90b35a6239c3d8bdabc530a6a0816f7ff89a0aaf/library/core/src/fmt/num.rs:316
80205262: 8f89         	sub	a5, a5, a0
; /rustc/90b35a6239c3d8bdabc530a6a0816f7ff89a0aaf/library/core/src/fmt/num.rs:318
80205264: 4585         	li	a1, 0x1
80205266: 4605         	li	a2, 0x1
80205268: 8542         	mv	a0, a6
8020526a: 4681         	li	a3, 0x0
8020526c: fffff097     	auipc	ra, 0xfffff
80205270: 50e080e7     	jalr	0x50e(ra) <free_mem_start+0xff5fb77a>
80205274: 60e2         	ld	ra, 0x18(sp)
80205276: 6442         	ld	s0, 0x10(sp)
; /rustc/90b35a6239c3d8bdabc530a6a0816f7ff89a0aaf/library/core/src/fmt/num.rs:245
80205278: 6105         	addi	sp, sp, 0x20
8020527a: 8082         	ret

000000008020527c <core::fmt::num::imp::_$LT$impl$u20$core..fmt..Display$u20$for$u20$u32$GT$::fmt::he20b8ff76fb2616c>:
; core::fmt::num::imp::_$LT$impl$u20$core..fmt..Display$u20$for$u20$u32$GT$::fmt::he20b8ff76fb2616c():
; /rustc/90b35a6239c3d8bdabc530a6a0816f7ff89a0aaf/library/core/src/fmt/num.rs:216
8020527c: 1141         	addi	sp, sp, -0x10
8020527e: e406         	sd	ra, 0x8(sp)
80205280: e022         	sd	s0, 0x0(sp)
80205282: 0800         	addi	s0, sp, 0x10
; /rustc/90b35a6239c3d8bdabc530a6a0816f7ff89a0aaf/library/core/src/fmt/num.rs:239
80205284: 4108         	lw	a0, 0x0(a0)
80205286: 862e         	mv	a2, a1
80205288: 4585         	li	a1, 0x1
8020528a: 60a2         	ld	ra, 0x8(sp)
8020528c: 6402         	ld	s0, 0x0(sp)
8020528e: 0141         	addi	sp, sp, 0x10
80205290: 00000317     	auipc	t1, 0x0
80205294: 00830067     	jr	0x8(t1) <core::fmt::num::imp::_$LT$impl$u20$u32$GT$::_fmt::hd790217b648357e8>

0000000080205298 <core::fmt::num::imp::_$LT$impl$u20$u32$GT$::_fmt::hd790217b648357e8>:
; core::fmt::num::imp::_$LT$impl$u20$u32$GT$::_fmt::hd790217b648357e8():
; /rustc/90b35a6239c3d8bdabc530a6a0816f7ff89a0aaf/library/core/src/fmt/num.rs:250
80205298: 7179         	addi	sp, sp, -0x30
8020529a: f406         	sd	ra, 0x28(sp)
8020529c: f022         	sd	s0, 0x20(sp)
8020529e: ec26         	sd	s1, 0x18(sp)
802052a0: e84a         	sd	s2, 0x10(sp)
802052a2: 1800         	addi	s0, sp, 0x30
802052a4: 8832         	mv	a6, a2
; /rustc/90b35a6239c3d8bdabc530a6a0816f7ff89a0aaf/library/core/src/fmt/num.rs:272
802052a6: 0045569b     	srliw	a3, a0, 0x4
802052aa: 4729         	li	a4, 0xa
802052ac: 27100793     	li	a5, 0x271

00000000802052b0 <.Lpcrel_hi970>:
; .Lpcrel_hi970():
; /rustc/90b35a6239c3d8bdabc530a6a0816f7ff89a0aaf/library/core/src/fmt/num.rs:272
802052b0: 00a03617     	auipc	a2, 0xa03
802052b4: 90a60e93     	addi	t4, a2, -0x6f6
802052b8: 02f6f563     	bgeu	a3, a5, 0x802052e2 <.Lpcrel_hi970+0x32>
; /rustc/90b35a6239c3d8bdabc530a6a0816f7ff89a0aaf/library/core/src/fmt/num.rs:289
802052bc: 0005069b     	sext.w	a3, a0
802052c0: 06300793     	li	a5, 0x63
; /rustc/90b35a6239c3d8bdabc530a6a0816f7ff89a0aaf/library/core/src/fmt/num.rs:292
802052c4: 0ad7ee63     	bltu	a5, a3, 0x80205380 <.Lpcrel_hi970+0xd0>
802052c8: 4529         	li	a0, 0xa
; /rustc/90b35a6239c3d8bdabc530a6a0816f7ff89a0aaf/library/core/src/fmt/num.rs:302
802052ca: 0ea6fb63     	bgeu	a3, a0, 0x802053c0 <.Lpcrel_hi970+0x110>
; /rustc/90b35a6239c3d8bdabc530a6a0816f7ff89a0aaf/library/core/src/fmt/num.rs:303
802052ce: fff70513     	addi	a0, a4, -0x1
802052d2: fd640613     	addi	a2, s0, -0x2a
; /rustc/90b35a6239c3d8bdabc530a6a0816f7ff89a0aaf/library/core/src/ptr/mut_ptr.rs:1005
802052d6: 962a         	add	a2, a2, a0
; /rustc/90b35a6239c3d8bdabc530a6a0816f7ff89a0aaf/library/core/src/fmt/num.rs:304
802052d8: 0306e693     	ori	a3, a3, 0x30
802052dc: 00d60023     	sb	a3, 0x0(a2)
802052e0: a8fd         	j	0x802053de <.Lpcrel_hi970+0x12e>
802052e2: 4701         	li	a4, 0x0
; /rustc/90b35a6239c3d8bdabc530a6a0816f7ff89a0aaf/library/core/src/fmt/num.rs:272
802052e4: fdc40893     	addi	a7, s0, -0x24
802052e8: fde40293     	addi	t0, s0, -0x22
802052ec: d1b716b7     	lui	a3, 0xd1b71
802052f0: 75968313     	addi	t1, a3, 0x759
802052f4: 1302         	slli	t1, t1, 0x20
802052f6: 6689         	lui	a3, 0x2
802052f8: 71068e13     	addi	t3, a3, 0x710
802052fc: 6685         	lui	a3, 0x1
802052fe: 47b68f1b     	addiw	t5, a3, 0x47b
80205302: 06400393     	li	t2, 0x64
80205306: 05f5e6b7     	lui	a3, 0x5f5e
8020530a: 0ff68f9b     	addiw	t6, a3, 0xff
8020530e: 862a         	mv	a2, a0
; /rustc/90b35a6239c3d8bdabc530a6a0816f7ff89a0aaf/library/core/src/fmt/num.rs:274
80205310: 0005091b     	sext.w	s2, a0
80205314: 1502         	slli	a0, a0, 0x20
80205316: 02653533     	mulhu	a0, a0, t1
8020531a: 9135         	srli	a0, a0, 0x2d
; /rustc/90b35a6239c3d8bdabc530a6a0816f7ff89a0aaf/library/core/src/fmt/num.rs:273
8020531c: 03c506b3     	mul	a3, a0, t3
80205320: 9e15         	subw	a2, a2, a3
; /rustc/90b35a6239c3d8bdabc530a6a0816f7ff89a0aaf/library/core/src/fmt/num.rs:276
80205322: 03061693     	slli	a3, a2, 0x30
80205326: 92c9         	srli	a3, a3, 0x32
80205328: 03e686b3     	mul	a3, a3, t5
8020532c: 0116d493     	srli	s1, a3, 0x11
80205330: 82c1         	srli	a3, a3, 0x10
80205332: 7fe6f693     	andi	a3, a3, 0x7fe
; /rustc/90b35a6239c3d8bdabc530a6a0816f7ff89a0aaf/library/core/src/fmt/num.rs:277
80205336: 027484b3     	mul	s1, s1, t2
8020533a: 9e05         	subw	a2, a2, s1
8020533c: 1646         	slli	a2, a2, 0x31
; /rustc/90b35a6239c3d8bdabc530a6a0816f7ff89a0aaf/library/core/src/ptr/const_ptr.rs:921
8020533e: 96f6         	add	a3, a3, t4
; /rustc/90b35a6239c3d8bdabc530a6a0816f7ff89a0aaf/library/core/src/intrinsics.rs:3375
80205340: 0016c483     	lbu	s1, 0x1(a3)
; /rustc/90b35a6239c3d8bdabc530a6a0816f7ff89a0aaf/library/core/src/fmt/num.rs:277
80205344: 9241         	srli	a2, a2, 0x30
; /rustc/90b35a6239c3d8bdabc530a6a0816f7ff89a0aaf/library/core/src/intrinsics.rs:3375
80205346: 00e887b3     	add	a5, a7, a4
8020534a: 0006c683     	lbu	a3, 0x0(a3)
8020534e: 009780a3     	sb	s1, 0x1(a5)
; /rustc/90b35a6239c3d8bdabc530a6a0816f7ff89a0aaf/library/core/src/ptr/const_ptr.rs:921
80205352: 9676         	add	a2, a2, t4
; /rustc/90b35a6239c3d8bdabc530a6a0816f7ff89a0aaf/library/core/src/intrinsics.rs:3375
80205354: 00164483     	lbu	s1, 0x1(a2)
80205358: 00064603     	lbu	a2, 0x0(a2)
8020535c: 00d78023     	sb	a3, 0x0(a5)
80205360: 00e286b3     	add	a3, t0, a4
80205364: 009680a3     	sb	s1, 0x1(a3)
80205368: 00c68023     	sb	a2, 0x0(a3)
; /rustc/90b35a6239c3d8bdabc530a6a0816f7ff89a0aaf/library/core/src/fmt/num.rs:272
8020536c: 1771         	addi	a4, a4, -0x4
8020536e: fb2fe0e3     	bltu	t6, s2, 0x8020530e <.Lpcrel_hi970+0x5e>
; /rustc/90b35a6239c3d8bdabc530a6a0816f7ff89a0aaf/library/core/src/fmt/num.rs:289
80205372: 0729         	addi	a4, a4, 0xa
80205374: 0005069b     	sext.w	a3, a0
80205378: 06300793     	li	a5, 0x63
; /rustc/90b35a6239c3d8bdabc530a6a0816f7ff89a0aaf/library/core/src/fmt/num.rs:292
8020537c: f4d7f6e3     	bgeu	a5, a3, 0x802052c8 <.Lpcrel_hi970+0x18>
; /rustc/90b35a6239c3d8bdabc530a6a0816f7ff89a0aaf/library/core/src/fmt/num.rs:294
80205380: 03051613     	slli	a2, a0, 0x30
80205384: 9249         	srli	a2, a2, 0x32
80205386: 6685         	lui	a3, 0x1
80205388: 47b6869b     	addiw	a3, a3, 0x47b
8020538c: 02d606b3     	mul	a3, a2, a3
80205390: 82c5         	srli	a3, a3, 0x11
80205392: 06400613     	li	a2, 0x64
; /rustc/90b35a6239c3d8bdabc530a6a0816f7ff89a0aaf/library/core/src/fmt/num.rs:293
80205396: 02c68633     	mul	a2, a3, a2
8020539a: 9d11         	subw	a0, a0, a2
8020539c: 1546         	slli	a0, a0, 0x31
8020539e: 9141         	srli	a0, a0, 0x30
; /rustc/90b35a6239c3d8bdabc530a6a0816f7ff89a0aaf/library/core/src/fmt/num.rs:295
802053a0: 1779         	addi	a4, a4, -0x2
; /rustc/90b35a6239c3d8bdabc530a6a0816f7ff89a0aaf/library/core/src/ptr/const_ptr.rs:921
802053a2: 9576         	add	a0, a0, t4
; /rustc/90b35a6239c3d8bdabc530a6a0816f7ff89a0aaf/library/core/src/intrinsics.rs:3375
802053a4: 00154603     	lbu	a2, 0x1(a0)
802053a8: 00054503     	lbu	a0, 0x0(a0)
802053ac: fd640793     	addi	a5, s0, -0x2a
; /rustc/90b35a6239c3d8bdabc530a6a0816f7ff89a0aaf/library/core/src/ptr/mut_ptr.rs:1005
802053b0: 97ba         	add	a5, a5, a4
; /rustc/90b35a6239c3d8bdabc530a6a0816f7ff89a0aaf/library/core/src/intrinsics.rs:3375
802053b2: 00c780a3     	sb	a2, 0x1(a5)
802053b6: 00a78023     	sb	a0, 0x0(a5)
802053ba: 4529         	li	a0, 0xa
; /rustc/90b35a6239c3d8bdabc530a6a0816f7ff89a0aaf/library/core/src/fmt/num.rs:302
802053bc: f0a6e9e3     	bltu	a3, a0, 0x802052ce <.Lpcrel_hi970+0x1e>
; /rustc/90b35a6239c3d8bdabc530a6a0816f7ff89a0aaf/library/core/src/fmt/num.rs:306
802053c0: 0686         	slli	a3, a3, 0x1
; /rustc/90b35a6239c3d8bdabc530a6a0816f7ff89a0aaf/library/core/src/fmt/num.rs:307
802053c2: ffe70513     	addi	a0, a4, -0x2
; /rustc/90b35a6239c3d8bdabc530a6a0816f7ff89a0aaf/library/core/src/ptr/const_ptr.rs:921
802053c6: 96f6         	add	a3, a3, t4
; /rustc/90b35a6239c3d8bdabc530a6a0816f7ff89a0aaf/library/core/src/intrinsics.rs:3375
802053c8: 0016c603     	lbu	a2, 0x1(a3)
802053cc: 0006c683     	lbu	a3, 0x0(a3)
802053d0: fd640713     	addi	a4, s0, -0x2a
; /rustc/90b35a6239c3d8bdabc530a6a0816f7ff89a0aaf/library/core/src/ptr/mut_ptr.rs:1005
802053d4: 972a         	add	a4, a4, a0
; /rustc/90b35a6239c3d8bdabc530a6a0816f7ff89a0aaf/library/core/src/intrinsics.rs:3375
802053d6: 00c700a3     	sb	a2, 0x1(a4)
802053da: 00d70023     	sb	a3, 0x0(a4)
802053de: fd640713     	addi	a4, s0, -0x2a
; /rustc/90b35a6239c3d8bdabc530a6a0816f7ff89a0aaf/library/core/src/ptr/mut_ptr.rs:1005
802053e2: 972a         	add	a4, a4, a0
802053e4: 47a9         	li	a5, 0xa
; /rustc/90b35a6239c3d8bdabc530a6a0816f7ff89a0aaf/library/core/src/fmt/num.rs:316
802053e6: 8f89         	sub	a5, a5, a0
; /rustc/90b35a6239c3d8bdabc530a6a0816f7ff89a0aaf/library/core/src/fmt/num.rs:318
802053e8: 4605         	li	a2, 0x1
802053ea: 8542         	mv	a0, a6
802053ec: 4681         	li	a3, 0x0
802053ee: fffff097     	auipc	ra, 0xfffff
802053f2: 38c080e7     	jalr	0x38c(ra) <free_mem_start+0xff5fb77a>
802053f6: 70a2         	ld	ra, 0x28(sp)
802053f8: 7402         	ld	s0, 0x20(sp)
802053fa: 64e2         	ld	s1, 0x18(sp)
802053fc: 6942         	ld	s2, 0x10(sp)
; /rustc/90b35a6239c3d8bdabc530a6a0816f7ff89a0aaf/library/core/src/fmt/num.rs:319
802053fe: 6145         	addi	sp, sp, 0x30
80205400: 8082         	ret

0000000080205402 <core::fmt::num::imp::_$LT$impl$u20$core..fmt..Display$u20$for$u20$usize$GT$::fmt::he8f7951851a21d3a>:
; core::fmt::num::imp::_$LT$impl$u20$core..fmt..Display$u20$for$u20$u64$GT$::fmt::h33b60b321dbbe008():
; /rustc/90b35a6239c3d8bdabc530a6a0816f7ff89a0aaf/library/core/src/fmt/num.rs:216
80205402: 1141         	addi	sp, sp, -0x10
80205404: e406         	sd	ra, 0x8(sp)
80205406: e022         	sd	s0, 0x0(sp)
80205408: 0800         	addi	s0, sp, 0x10
; /rustc/90b35a6239c3d8bdabc530a6a0816f7ff89a0aaf/library/core/src/fmt/num.rs:239
8020540a: 6108         	ld	a0, 0x0(a0)
8020540c: 862e         	mv	a2, a1
8020540e: 4585         	li	a1, 0x1
80205410: 60a2         	ld	ra, 0x8(sp)
80205412: 6402         	ld	s0, 0x0(sp)
80205414: 0141         	addi	sp, sp, 0x10
80205416: 00000317     	auipc	t1, 0x0
8020541a: 00830067     	jr	0x8(t1) <core::fmt::num::imp::_$LT$impl$u20$u64$GT$::_fmt::h4271b32161f5ead9>

000000008020541e <core::fmt::num::imp::_$LT$impl$u20$u64$GT$::_fmt::h4271b32161f5ead9>:
; core::fmt::num::imp::_$LT$impl$u20$u64$GT$::_fmt::h4271b32161f5ead9():
; /rustc/90b35a6239c3d8bdabc530a6a0816f7ff89a0aaf/library/core/src/fmt/num.rs:250
8020541e: 7139         	addi	sp, sp, -0x40
80205420: fc06         	sd	ra, 0x38(sp)
80205422: f822         	sd	s0, 0x30(sp)
80205424: f426         	sd	s1, 0x28(sp)
80205426: f04a         	sd	s2, 0x20(sp)
80205428: 0080         	addi	s0, sp, 0x40
8020542a: 8832         	mv	a6, a2
; /rustc/90b35a6239c3d8bdabc530a6a0816f7ff89a0aaf/library/core/src/fmt/num.rs:272
8020542c: 00455693     	srli	a3, a0, 0x4
80205430: 4751         	li	a4, 0x14
80205432: 27100793     	li	a5, 0x271

0000000080205436 <.Lpcrel_hi974>:
; .Lpcrel_hi974():
; /rustc/90b35a6239c3d8bdabc530a6a0816f7ff89a0aaf/library/core/src/fmt/num.rs:272
80205436: 00a02617     	auipc	a2, 0xa02
8020543a: 78460e93     	addi	t4, a2, 0x784
8020543e: 02f6f363     	bgeu	a3, a5, 0x80205464 <.Lpcrel_hi974+0x2e>
80205442: 06300693     	li	a3, 0x63
; /rustc/90b35a6239c3d8bdabc530a6a0816f7ff89a0aaf/library/core/src/fmt/num.rs:292
80205446: 0aa6e963     	bltu	a3, a0, 0x802054f8 <.Lpcrel_hi975+0x8a>
8020544a: 4629         	li	a2, 0xa
; /rustc/90b35a6239c3d8bdabc530a6a0816f7ff89a0aaf/library/core/src/fmt/num.rs:302
8020544c: 0ec57763     	bgeu	a0, a2, 0x8020553a <.Lpcrel_hi975+0xcc>
; /rustc/90b35a6239c3d8bdabc530a6a0816f7ff89a0aaf/library/core/src/fmt/num.rs:303
80205450: fff70693     	addi	a3, a4, -0x1
80205454: fcc40613     	addi	a2, s0, -0x34
; /rustc/90b35a6239c3d8bdabc530a6a0816f7ff89a0aaf/library/core/src/ptr/mut_ptr.rs:1005
80205458: 9636         	add	a2, a2, a3
; /rustc/90b35a6239c3d8bdabc530a6a0816f7ff89a0aaf/library/core/src/fmt/num.rs:304
8020545a: 03056513     	ori	a0, a0, 0x30
8020545e: 00a60023     	sb	a0, 0x0(a2)
80205462: a8dd         	j	0x80205558 <.Lpcrel_hi975+0xea>
80205464: 4701         	li	a4, 0x0
; /rustc/90b35a6239c3d8bdabc530a6a0816f7ff89a0aaf/library/core/src/fmt/num.rs:272
80205466: fdc40893     	addi	a7, s0, -0x24
8020546a: fde40293     	addi	t0, s0, -0x22

000000008020546e <.Lpcrel_hi975>:
; .Lpcrel_hi975():
; /rustc/90b35a6239c3d8bdabc530a6a0816f7ff89a0aaf/library/core/src/fmt/num.rs:272
8020546e: 00001697     	auipc	a3, 0x1
80205472: fe26b303     	ld	t1, -0x1e(a3)
80205476: 6689         	lui	a3, 0x2
80205478: 71068e13     	addi	t3, a3, 0x710
8020547c: 6685         	lui	a3, 0x1
8020547e: 47b68f1b     	addiw	t5, a3, 0x47b
80205482: 06400393     	li	t2, 0x64
80205486: 05f5e6b7     	lui	a3, 0x5f5e
8020548a: 0ff68f9b     	addiw	t6, a3, 0xff
8020548e: 892a         	mv	s2, a0
; /rustc/90b35a6239c3d8bdabc530a6a0816f7ff89a0aaf/library/core/src/fmt/num.rs:274
80205490: 02653533     	mulhu	a0, a0, t1
80205494: 812d         	srli	a0, a0, 0xb
; /rustc/90b35a6239c3d8bdabc530a6a0816f7ff89a0aaf/library/core/src/fmt/num.rs:273
80205496: 03c507b3     	mul	a5, a0, t3
8020549a: 40f9063b     	subw	a2, s2, a5
; /rustc/90b35a6239c3d8bdabc530a6a0816f7ff89a0aaf/library/core/src/fmt/num.rs:276
8020549e: 03061793     	slli	a5, a2, 0x30
802054a2: 93c9         	srli	a5, a5, 0x32
802054a4: 03e787b3     	mul	a5, a5, t5
802054a8: 0117d493     	srli	s1, a5, 0x11
802054ac: 83c1         	srli	a5, a5, 0x10
802054ae: 7fe7f793     	andi	a5, a5, 0x7fe
; /rustc/90b35a6239c3d8bdabc530a6a0816f7ff89a0aaf/library/core/src/fmt/num.rs:277
802054b2: 027484b3     	mul	s1, s1, t2
802054b6: 9e05         	subw	a2, a2, s1
802054b8: 1646         	slli	a2, a2, 0x31
; /rustc/90b35a6239c3d8bdabc530a6a0816f7ff89a0aaf/library/core/src/ptr/const_ptr.rs:921
802054ba: 97f6         	add	a5, a5, t4
; /rustc/90b35a6239c3d8bdabc530a6a0816f7ff89a0aaf/library/core/src/intrinsics.rs:3375
802054bc: 0017c483     	lbu	s1, 0x1(a5)
; /rustc/90b35a6239c3d8bdabc530a6a0816f7ff89a0aaf/library/core/src/fmt/num.rs:277
802054c0: 9241         	srli	a2, a2, 0x30
; /rustc/90b35a6239c3d8bdabc530a6a0816f7ff89a0aaf/library/core/src/intrinsics.rs:3375
802054c2: 00e886b3     	add	a3, a7, a4
802054c6: 0007c783     	lbu	a5, 0x0(a5)
802054ca: 009680a3     	sb	s1, 0x1(a3)
; /rustc/90b35a6239c3d8bdabc530a6a0816f7ff89a0aaf/library/core/src/ptr/const_ptr.rs:921
802054ce: 9676         	add	a2, a2, t4
; /rustc/90b35a6239c3d8bdabc530a6a0816f7ff89a0aaf/library/core/src/intrinsics.rs:3375
802054d0: 00164483     	lbu	s1, 0x1(a2)
802054d4: 00064603     	lbu	a2, 0x0(a2)
802054d8: 00f68023     	sb	a5, 0x0(a3)
802054dc: 00e286b3     	add	a3, t0, a4
802054e0: 009680a3     	sb	s1, 0x1(a3)
802054e4: 00c68023     	sb	a2, 0x0(a3)
; /rustc/90b35a6239c3d8bdabc530a6a0816f7ff89a0aaf/library/core/src/fmt/num.rs:272
802054e8: 1771         	addi	a4, a4, -0x4
802054ea: fb2fe2e3     	bltu	t6, s2, 0x8020548e <.Lpcrel_hi975+0x20>
; /rustc/90b35a6239c3d8bdabc530a6a0816f7ff89a0aaf/library/core/src/fmt/num.rs:292
802054ee: 0751         	addi	a4, a4, 0x14
802054f0: 06300693     	li	a3, 0x63
802054f4: f4a6fbe3     	bgeu	a3, a0, 0x8020544a <.Lpcrel_hi974+0x14>
; /rustc/90b35a6239c3d8bdabc530a6a0816f7ff89a0aaf/library/core/src/fmt/num.rs:294
802054f8: 03051613     	slli	a2, a0, 0x30
802054fc: 9249         	srli	a2, a2, 0x32
802054fe: 6685         	lui	a3, 0x1
80205500: 47b6869b     	addiw	a3, a3, 0x47b
80205504: 02d60633     	mul	a2, a2, a3
80205508: 8245         	srli	a2, a2, 0x11
8020550a: 06400693     	li	a3, 0x64
; /rustc/90b35a6239c3d8bdabc530a6a0816f7ff89a0aaf/library/core/src/fmt/num.rs:293
8020550e: 02d606b3     	mul	a3, a2, a3
80205512: 9d15         	subw	a0, a0, a3
80205514: 1546         	slli	a0, a0, 0x31
80205516: 9141         	srli	a0, a0, 0x30
; /rustc/90b35a6239c3d8bdabc530a6a0816f7ff89a0aaf/library/core/src/fmt/num.rs:295
80205518: 1779         	addi	a4, a4, -0x2
; /rustc/90b35a6239c3d8bdabc530a6a0816f7ff89a0aaf/library/core/src/ptr/const_ptr.rs:921
8020551a: 9576         	add	a0, a0, t4
; /rustc/90b35a6239c3d8bdabc530a6a0816f7ff89a0aaf/library/core/src/intrinsics.rs:3375
8020551c: 00154683     	lbu	a3, 0x1(a0)
80205520: 00054503     	lbu	a0, 0x0(a0)
80205524: fcc40793     	addi	a5, s0, -0x34
; /rustc/90b35a6239c3d8bdabc530a6a0816f7ff89a0aaf/library/core/src/ptr/mut_ptr.rs:1005
80205528: 97ba         	add	a5, a5, a4
; /rustc/90b35a6239c3d8bdabc530a6a0816f7ff89a0aaf/library/core/src/intrinsics.rs:3375
8020552a: 00d780a3     	sb	a3, 0x1(a5)
8020552e: 00a78023     	sb	a0, 0x0(a5)
80205532: 8532         	mv	a0, a2
80205534: 4629         	li	a2, 0xa
; /rustc/90b35a6239c3d8bdabc530a6a0816f7ff89a0aaf/library/core/src/fmt/num.rs:302
80205536: f0c56de3     	bltu	a0, a2, 0x80205450 <.Lpcrel_hi974+0x1a>
; /rustc/90b35a6239c3d8bdabc530a6a0816f7ff89a0aaf/library/core/src/fmt/num.rs:306
8020553a: 0506         	slli	a0, a0, 0x1
; /rustc/90b35a6239c3d8bdabc530a6a0816f7ff89a0aaf/library/core/src/fmt/num.rs:307
8020553c: ffe70693     	addi	a3, a4, -0x2
; /rustc/90b35a6239c3d8bdabc530a6a0816f7ff89a0aaf/library/core/src/ptr/const_ptr.rs:921
80205540: 9576         	add	a0, a0, t4
; /rustc/90b35a6239c3d8bdabc530a6a0816f7ff89a0aaf/library/core/src/intrinsics.rs:3375
80205542: 00154603     	lbu	a2, 0x1(a0)
80205546: 00054503     	lbu	a0, 0x0(a0)
8020554a: fcc40713     	addi	a4, s0, -0x34
; /rustc/90b35a6239c3d8bdabc530a6a0816f7ff89a0aaf/library/core/src/ptr/mut_ptr.rs:1005
8020554e: 9736         	add	a4, a4, a3
; /rustc/90b35a6239c3d8bdabc530a6a0816f7ff89a0aaf/library/core/src/intrinsics.rs:3375
80205550: 00c700a3     	sb	a2, 0x1(a4)
80205554: 00a70023     	sb	a0, 0x0(a4)
80205558: fcc40713     	addi	a4, s0, -0x34
; /rustc/90b35a6239c3d8bdabc530a6a0816f7ff89a0aaf/library/core/src/ptr/mut_ptr.rs:1005
8020555c: 9736         	add	a4, a4, a3
8020555e: 47d1         	li	a5, 0x14
; /rustc/90b35a6239c3d8bdabc530a6a0816f7ff89a0aaf/library/core/src/fmt/num.rs:316
80205560: 8f95         	sub	a5, a5, a3
; /rustc/90b35a6239c3d8bdabc530a6a0816f7ff89a0aaf/library/core/src/fmt/num.rs:318
80205562: 4605         	li	a2, 0x1
80205564: 8542         	mv	a0, a6
80205566: 4681         	li	a3, 0x0
80205568: fffff097     	auipc	ra, 0xfffff
8020556c: 212080e7     	jalr	0x212(ra) <free_mem_start+0xff5fb77a>
80205570: 70e2         	ld	ra, 0x38(sp)
80205572: 7442         	ld	s0, 0x30(sp)
80205574: 74a2         	ld	s1, 0x28(sp)
80205576: 7902         	ld	s2, 0x20(sp)
; /rustc/90b35a6239c3d8bdabc530a6a0816f7ff89a0aaf/library/core/src/fmt/num.rs:319
80205578: 6121         	addi	sp, sp, 0x40
8020557a: 8082         	ret

000000008020557c <_$LT$$RF$T$u20$as$u20$core..fmt..Debug$GT$::fmt::h0c0695e0170f676a>:
; _$LT$$RF$T$u20$as$u20$core..fmt..Debug$GT$::fmt::h0c0695e0170f676a():
; /rustc/90b35a6239c3d8bdabc530a6a0816f7ff89a0aaf/library/core/src/fmt/mod.rs:2390
8020557c: 1141         	addi	sp, sp, -0x10
8020557e: e406         	sd	ra, 0x8(sp)
80205580: e022         	sd	s0, 0x0(sp)
80205582: 0800         	addi	s0, sp, 0x10
80205584: 6510         	ld	a2, 0x8(a0)
80205586: 6108         	ld	a0, 0x0(a0)
80205588: 6e1c         	ld	a5, 0x18(a2)
8020558a: 60a2         	ld	ra, 0x8(sp)
8020558c: 6402         	ld	s0, 0x0(sp)
8020558e: 0141         	addi	sp, sp, 0x10
80205590: 8782         	jr	a5

0000000080205592 <_$LT$$RF$T$u20$as$u20$core..fmt..Display$GT$::fmt::h95c11fde8c557b90>:
; _$LT$$RF$T$u20$as$u20$core..fmt..Display$GT$::fmt::h95c11fde8c557b90():
; /rustc/90b35a6239c3d8bdabc530a6a0816f7ff89a0aaf/library/core/src/fmt/mod.rs:2390
80205592: 1141         	addi	sp, sp, -0x10
80205594: e406         	sd	ra, 0x8(sp)
80205596: e022         	sd	s0, 0x0(sp)
80205598: 0800         	addi	s0, sp, 0x10
8020559a: 6114         	ld	a3, 0x0(a0)
8020559c: 6510         	ld	a2, 0x8(a0)
8020559e: 852e         	mv	a0, a1
; /rustc/90b35a6239c3d8bdabc530a6a0816f7ff89a0aaf/library/core/src/fmt/mod.rs:2485
802055a0: 85b6         	mv	a1, a3
802055a2: 60a2         	ld	ra, 0x8(sp)
802055a4: 6402         	ld	s0, 0x0(sp)
802055a6: 0141         	addi	sp, sp, 0x10
802055a8: fffff317     	auipc	t1, 0xfffff
802055ac: 45a30067     	jr	0x45a(t1) <free_mem_start+0xff5fba02>

00000000802055b0 <memset>:
; memset():
; /rust/deps/compiler_builtins-0.1.133/src/macros.rs:479
802055b0: 1141         	addi	sp, sp, -0x10
802055b2: e406         	sd	ra, 0x8(sp)
802055b4: e022         	sd	s0, 0x0(sp)
802055b6: 0800         	addi	s0, sp, 0x10
802055b8: 46c1         	li	a3, 0x10
; /rust/deps/compiler_builtins-0.1.133/src/mem/impls.rs:253
802055ba: 04d66a63     	bltu	a2, a3, 0x8020560e <memset+0x5e>
; /rustc/90b35a6239c3d8bdabc530a6a0816f7ff89a0aaf/library/core/src/num/uint_macros.rs:1942
802055be: 40a006bb     	negw	a3, a0
; /rust/deps/compiler_builtins-0.1.133/src/mem/impls.rs:256
802055c2: 8a9d         	andi	a3, a3, 0x7
; /rustc/90b35a6239c3d8bdabc530a6a0816f7ff89a0aaf/library/core/src/ptr/mut_ptr.rs:1005
802055c4: 00d50733     	add	a4, a0, a3
; /rust/deps/compiler_builtins-0.1.133/src/mem/impls.rs:229
802055c8: c699         	beqz	a3, 0x802055d6 <memset+0x26>
802055ca: 87aa         	mv	a5, a0
; /rust/deps/compiler_builtins-0.1.133/src/mem/impls.rs:230
802055cc: 00b78023     	sb	a1, 0x0(a5)
; /rustc/90b35a6239c3d8bdabc530a6a0816f7ff89a0aaf/library/core/src/ptr/mut_ptr.rs:1005
802055d0: 0785         	addi	a5, a5, 0x1
; /rust/deps/compiler_builtins-0.1.133/src/mem/impls.rs:229
802055d2: fee7ede3     	bltu	a5, a4, 0x802055cc <memset+0x1c>
; /rust/deps/compiler_builtins-0.1.133/src/mem/impls.rs:259
802055d6: 40d608b3     	sub	a7, a2, a3
; /rust/deps/compiler_builtins-0.1.133/src/mem/impls.rs:261
802055da: ff88f793     	andi	a5, a7, -0x8
; /rustc/90b35a6239c3d8bdabc530a6a0816f7ff89a0aaf/library/core/src/ptr/mut_ptr.rs:1005
802055de: 00f706b3     	add	a3, a4, a5
; /rust/deps/compiler_builtins-0.1.133/src/mem/impls.rs:247
802055e2: 02f05263     	blez	a5, 0x80205606 <memset+0x56>
802055e6: 03859813     	slli	a6, a1, 0x38
802055ea: 101017b7     	lui	a5, 0x10101
802055ee: 0792         	slli	a5, a5, 0x4
802055f0: 10078793     	addi	a5, a5, 0x100
802055f4: 02f83633     	mulhu	a2, a6, a5
802055f8: 02061793     	slli	a5, a2, 0x20
802055fc: 8fd1         	or	a5, a5, a2
; /rust/deps/compiler_builtins-0.1.133/src/mem/impls.rs:248
802055fe: e31c         	sd	a5, 0x0(a4)
; /rustc/90b35a6239c3d8bdabc530a6a0816f7ff89a0aaf/library/core/src/ptr/mut_ptr.rs:1005
80205600: 0721         	addi	a4, a4, 0x8
; /rust/deps/compiler_builtins-0.1.133/src/mem/impls.rs:247
80205602: fed76ee3     	bltu	a4, a3, 0x802055fe <memset+0x4e>
; /rust/deps/compiler_builtins-0.1.133/src/mem/impls.rs:264
80205606: 0078f613     	andi	a2, a7, 0x7
8020560a: e601         	bnez	a2, 0x80205612 <memset+0x62>
8020560c: a809         	j	0x8020561e <memset+0x6e>
8020560e: 86aa         	mv	a3, a0
80205610: c619         	beqz	a2, 0x8020561e <memset+0x6e>
80205612: 9636         	add	a2, a2, a3
; /rust/deps/compiler_builtins-0.1.133/src/mem/impls.rs:230
80205614: 00b68023     	sb	a1, 0x0(a3)
; /rustc/90b35a6239c3d8bdabc530a6a0816f7ff89a0aaf/library/core/src/ptr/mut_ptr.rs:1005
80205618: 0685         	addi	a3, a3, 0x1
8020561a: fec6ede3     	bltu	a3, a2, 0x80205614 <memset+0x64>
8020561e: 60a2         	ld	ra, 0x8(sp)
80205620: 6402         	ld	s0, 0x0(sp)
; /rust/deps/compiler_builtins-0.1.133/src/macros.rs:481
80205622: 0141         	addi	sp, sp, 0x10
80205624: 8082         	ret

0000000080205626 <memcpy>:
; memcpy():
; /rust/deps/compiler_builtins-0.1.133/src/macros.rs:479
80205626: 1141         	addi	sp, sp, -0x10
80205628: e406         	sd	ra, 0x8(sp)
8020562a: e022         	sd	s0, 0x0(sp)
8020562c: 0800         	addi	s0, sp, 0x10
8020562e: 46c1         	li	a3, 0x10
; /rust/deps/compiler_builtins-0.1.133/src/mem/impls.rs:100
80205630: 06d66b63     	bltu	a2, a3, 0x802056a6 <memcpy+0x80>
; /rustc/90b35a6239c3d8bdabc530a6a0816f7ff89a0aaf/library/core/src/num/uint_macros.rs:1942
80205634: 40a006bb     	negw	a3, a0
; /rust/deps/compiler_builtins-0.1.133/src/mem/impls.rs:103
80205638: 0076f813     	andi	a6, a3, 0x7
; /rustc/90b35a6239c3d8bdabc530a6a0816f7ff89a0aaf/library/core/src/ptr/mut_ptr.rs:1005
8020563c: 010503b3     	add	t2, a0, a6
; /rust/deps/compiler_builtins-0.1.133/src/mem/impls.rs:32
80205640: 00080c63     	beqz	a6, 0x80205658 <memcpy+0x32>
80205644: 87aa         	mv	a5, a0
80205646: 86ae         	mv	a3, a1
; /rust/deps/compiler_builtins-0.1.133/src/mem/impls.rs:33
80205648: 0006c703     	lbu	a4, 0x0(a3)
8020564c: 00e78023     	sb	a4, 0x0(a5)
; /rustc/90b35a6239c3d8bdabc530a6a0816f7ff89a0aaf/library/core/src/ptr/mut_ptr.rs:1005
80205650: 0785         	addi	a5, a5, 0x1
; /rustc/90b35a6239c3d8bdabc530a6a0816f7ff89a0aaf/library/core/src/ptr/const_ptr.rs:921
80205652: 0685         	addi	a3, a3, 0x1
; /rust/deps/compiler_builtins-0.1.133/src/mem/impls.rs:32
80205654: fe77eae3     	bltu	a5, t2, 0x80205648 <memcpy+0x22>
; /rustc/90b35a6239c3d8bdabc530a6a0816f7ff89a0aaf/library/core/src/ptr/const_ptr.rs:921
80205658: 010588b3     	add	a7, a1, a6
; /rust/deps/compiler_builtins-0.1.133/src/mem/impls.rs:107
8020565c: 41060833     	sub	a6, a2, a6
; /rust/deps/compiler_builtins-0.1.133/src/mem/impls.rs:109
80205660: ff887293     	andi	t0, a6, -0x8
; /rust/deps/compiler_builtins-0.1.133/src/mem/impls.rs:110
80205664: 0078f593     	andi	a1, a7, 0x7
80205668: 005386b3     	add	a3, t2, t0
; /rust/deps/compiler_builtins-0.1.133/src/mem/impls.rs:111
8020566c: c1a1         	beqz	a1, 0x802056ac <memcpy+0x86>
; /rust/deps/compiler_builtins-0.1.133/src/mem/impls.rs:72
8020566e: 04505963     	blez	t0, 0x802056c0 <memcpy+0x9a>
80205672: 00389593     	slli	a1, a7, 0x3
80205676: 0385f313     	andi	t1, a1, 0x38
; /rust/deps/compiler_builtins-0.1.133/src/mem/impls.rs:63
8020567a: ff88f793     	andi	a5, a7, -0x8
; /rust/deps/compiler_builtins-0.1.133/src/mem/impls.rs:68
8020567e: 6390         	ld	a2, 0x0(a5)
80205680: 40b005bb     	negw	a1, a1
80205684: 0385fe13     	andi	t3, a1, 0x38
; /rust/deps/compiler_builtins-0.1.133/src/mem/impls.rs:72
80205688: 07a1         	addi	a5, a5, 0x8
; /rust/deps/compiler_builtins-0.1.133/src/mem/impls.rs:74
8020568a: 6398         	ld	a4, 0x0(a5)
; /rust/deps/compiler_builtins-0.1.133/src/mem/impls.rs:76
8020568c: 00665633     	srl	a2, a2, t1
80205690: 01c715b3     	sll	a1, a4, t3
80205694: 8dd1         	or	a1, a1, a2
; /rust/deps/compiler_builtins-0.1.133/src/mem/impls.rs:81
80205696: 00b3b023     	sd	a1, 0x0(t2)
; /rustc/90b35a6239c3d8bdabc530a6a0816f7ff89a0aaf/library/core/src/ptr/mut_ptr.rs:1005
8020569a: 03a1         	addi	t2, t2, 0x8
; /rust/deps/compiler_builtins-0.1.133/src/mem/impls.rs:72
8020569c: 07a1         	addi	a5, a5, 0x8
8020569e: 863a         	mv	a2, a4
802056a0: fed3e5e3     	bltu	t2, a3, 0x8020568a <memcpy+0x64>
802056a4: a831         	j	0x802056c0 <memcpy+0x9a>
802056a6: 86aa         	mv	a3, a0
802056a8: e20d         	bnez	a2, 0x802056ca <memcpy+0xa4>
802056aa: a80d         	j	0x802056dc <memcpy+0xb6>
; /rust/deps/compiler_builtins-0.1.133/src/mem/impls.rs:45
802056ac: 00505a63     	blez	t0, 0x802056c0 <memcpy+0x9a>
802056b0: 85c6         	mv	a1, a7
; /rust/deps/compiler_builtins-0.1.133/src/mem/impls.rs:46
802056b2: 6190         	ld	a2, 0x0(a1)
802056b4: 00c3b023     	sd	a2, 0x0(t2)
; /rustc/90b35a6239c3d8bdabc530a6a0816f7ff89a0aaf/library/core/src/ptr/mut_ptr.rs:1005
802056b8: 03a1         	addi	t2, t2, 0x8
802056ba: 05a1         	addi	a1, a1, 0x8
; /rust/deps/compiler_builtins-0.1.133/src/mem/impls.rs:45
802056bc: fed3ebe3     	bltu	t2, a3, 0x802056b2 <memcpy+0x8c>
; /rustc/90b35a6239c3d8bdabc530a6a0816f7ff89a0aaf/library/core/src/ptr/const_ptr.rs:921
802056c0: 005885b3     	add	a1, a7, t0
; /rust/deps/compiler_builtins-0.1.133/src/mem/impls.rs:118
802056c4: 00787613     	andi	a2, a6, 0x7
802056c8: ca11         	beqz	a2, 0x802056dc <memcpy+0xb6>
802056ca: 9636         	add	a2, a2, a3
; /rust/deps/compiler_builtins-0.1.133/src/mem/impls.rs:33
802056cc: 0005c703     	lbu	a4, 0x0(a1)
802056d0: 00e68023     	sb	a4, 0x0(a3)
; /rustc/90b35a6239c3d8bdabc530a6a0816f7ff89a0aaf/library/core/src/ptr/mut_ptr.rs:1005
802056d4: 0685         	addi	a3, a3, 0x1
; /rustc/90b35a6239c3d8bdabc530a6a0816f7ff89a0aaf/library/core/src/ptr/const_ptr.rs:921
802056d6: 0585         	addi	a1, a1, 0x1
802056d8: fec6eae3     	bltu	a3, a2, 0x802056cc <memcpy+0xa6>
802056dc: 60a2         	ld	ra, 0x8(sp)
802056de: 6402         	ld	s0, 0x0(sp)
; /rust/deps/compiler_builtins-0.1.133/src/macros.rs:481
802056e0: 0141         	addi	sp, sp, 0x10
802056e2: 8082         	ret
